(lp0
((lp1
(S'Techmeme'
p2
S'NNP'
p3
F0.4051
tp4
a(S':'
p5
g5
F0.9765
tp6
a(S'Apple'
p7
S'NNP'
p8
F0.938
tp9
a(S'TV'
p10
S'NNP'
p11
F0.8076
tp12
a(S'2015'
p13
S'CD'
p14
F0.7189
tp15
a(S'review'
p16
S'NN'
p17
F0.9844
tp18
a(g5
g5
F0.9695
tp19
a(S'Fast'
p20
S'RB'
p21
F0.5114
tp22
a(S'and'
p23
S'CC'
p24
F0.9893
tp25
a(S'easy'
p26
S'JJ'
p27
F0.9097
tp28
a(S'to'
p29
S'TO'
p30
F0.9954
tp31
a(S'navigate'
p32
S'VB'
p33
F0.9865
tp34
a(S','
p35
g35
F0.9868
tp36
a(S'but'
p37
S'CC'
p38
F0.9939
tp39
a(S'keyboard'
p40
S'NN'
p41
F0.8972
tp42
a(S'worse'
p43
S'JJ'
p44
F0.3493
tp45
a(g35
g35
F0.9891
tp46
a(S'Siri'
p47
S'NNP'
p48
F0.9995
tp49
a(S'limited'
p50
S'JJ'
p51
F0.37
tp52
aS'0'
p53
tp54
a((lp55
(S'Future'
p56
S'NNP'
p57
F0.6308
tp58
a(S'teardown'
p59
S'NN'
p60
F0.4741
tp61
a(S'of'
p62
S'IN'
p63
F0.9904
tp64
a(S'an'
p65
S'DT'
p66
F0.9588
tp67
a(S'Apple'
p68
S'NNP'
p69
F0.9922
tp70
a(S'Car'
p71
S'NNP'
p72
F0.5723
tp73
a(S'shows'
p74
S'VBZ'
p75
F0.9182
tp76
a(S'us'
p77
S'PRP'
p78
F0.9398
tp79
a(S'who'
p80
S'WP'
p81
F0.9564
tp82
a(S'could'
p83
S'MD'
p84
F0.9825
tp85
a(S'be'
p86
S'VB'
p87
F0.9981
tp88
a(S'making'
p89
S'VBG'
p90
F0.9952
tp91
a(S'the'
p92
S'DT'
p93
F0.9895
tp94
a(S'variouselements'
p95
S'NNS'
p96
F0.7302
tp97
a(S'Just'
p98
S'RB'
p99
F0.9967
tp100
a(S'when'
p101
S'WRB'
p102
F0.9906
tp103
a(S'I'
p104
S'PRP'
p105
F0.9994
tp106
a(S'thought'
p107
S'VBD'
p108
F0.8943
tp109
a(S'the'
p110
S'DT'
p111
F0.9924
tp112
a(S'tech'
p113
S'NN'
p114
F0.9367
tp115
a(S'blogs'
p116
S'NNS'
p117
F0.9575
tp118
a(S'couldnt'
p119
S'MD'
p120
F0.5984
tp121
a(S'get'
p122
S'VB'
p123
F0.9936
tp124
a(S'worse'
p125
S'JJ'
p126
F0.6484
tp127
a(S'.'
p128
g128
F0.9947
tp129
ag53
tp130
a((lp131
(S'RT'
p132
S'RT'
p133
F0.9709
tp134
a(S'Even'
p135
S'RB'
p136
F0.9696
tp137
a(S'though'
p138
S'RB'
p139
F0.6427
tp140
a(S"I'm"
p141
S'PRP'
p142
F0.5555
tp143
a(S'a'
p144
S'DT'
p145
F0.9914
tp146
a(S'100%'
p147
S'CD'
p148
F0.5896
tp149
a(S'certified'
p150
S'JJ'
p151
F0.5576
tp152
a(S'Apple'
p153
S'NNP'
p154
F0.8988
tp155
a(S'Fanboy/apologist'
p156
S'NNP'
p157
F0.6568
tp158
a(g35
g35
F0.9901
tp159
a(S'after'
p160
S'IN'
p161
F0.9567
tp162
a(S'3'
p163
S'CD'
p164
F0.9888
tp165
a(S'months'
p166
S'NNS'
p167
F0.9756
tp168
a(S'without'
p169
S'IN'
p170
F0.997
tp171
a(S'Spotify'
p172
S'NNP'
p173
F0.9909
tp174
a(S"I'm"
p175
S'NNP'
p176
F0.5962
tp177
a(S'ready'
p178
S'JJ'
p179
F0.5545
tp180
a(S'to'
p181
S'TO'
p182
F0.9936
tp183
a(S'admit'
p184
S'VB'
p185
F0.9547
tp186
a(S'Apple'
p187
S'NNP'
p188
F0.9848
tp189
a(S'Music'
p190
S'NNP'
p191
F0.557
tp192
a(S'sucks'
p193
S'VBZ'
p194
F0.9646
tp195
a(g144
S'DT'
p196
F0.987
tp197
ag53
tp198
a((lp199
(S'Why'
p200
S'WRB'
p201
F0.9509
tp202
a(S"can't"
p203
S'MD'
p204
F0.7341
tp205
a(S'everyone'
p206
S'NN'
p207
F0.9702
tp208
a(S'have'
p209
S'VB'
p210
F0.5876
tp211
a(S'the'
p212
S'DT'
p213
F0.9925
tp214
a(S'same'
p215
S'JJ'
p216
F0.9568
tp217
a(S'content'
p218
S'NN'
p219
F0.9097
tp220
a(S'on'
p221
S'IN'
p222
F0.9963
tp223
a(S'there'
p224
S'EX'
p225
F0.3338
tp226
a(S'Apple'
p227
S'NNP'
p228
F0.9726
tp229
a(S'TV'
p230
S'NNP'
p231
F0.5375
tp232
a(S'the'
p233
S'DT'
p234
F0.9198
tp235
a(S'uk'
p236
S'NN'
p237
F0.7574
tp238
a(S'sucks'
p239
S'VBZ'
p240
F0.9071
tp241
a(S'with'
p242
S'IN'
p243
F0.9992
tp244
a(S'Apple'
p245
S'NNP'
p246
F0.9956
tp247
a(S'TV'
p248
S'NN'
p249
F0.6644
tp250
a(S'content'
p251
S'NN'
p252
F0.9209
tp253
a(S'????????'
p254
g128
F0.9824
tp255
ag53
tp256
a((lp257
(S'Apple'
p258
S'NNP'
p259
F0.962
tp260
a(S'Music'
p261
S'NNP'
p262
F0.7897
tp263
a(S'sucks'
p264
S'VBZ'
p265
F0.927
tp266
ag53
tp267
a((lp268
(S'Aw'
p269
S'UH'
p270
F0.9841
tp271
a(S'look'
p272
S'VB'
p273
F0.4056
tp274
a(S'they'
p275
S'PRP'
p276
F0.9857
tp277
a(S'made'
p278
S'VBD'
p279
F0.9706
tp280
a(S'Travis'
p281
S'NNP'
p282
F0.9991
tp283
a(S'into'
p284
S'IN'
p285
F0.9949
tp286
a(S'an'
p287
S'DT'
p288
F0.984
tp289
a(S'emoji'
p290
S'NN'
p291
F0.9104
tp292
a(S'!'
p293
g128
F0.9887
tp294
a(S'Good'
p295
S'JJ'
p296
F0.824
tp297
a(S'job'
p298
S'NN'
p299
F0.9554
tp300
a(S'Apple'
p301
S'NNP'
p302
F0.8916
tp303
aS'1'
p304
tp305
a((lp306
(S'????????????????????????????????????????????????????????????????????????????????????????????????????????????????????????????????????????????????????????????????????????????'
p307
S'NNP'
p308
F0.2092
tp309
a(S'++'
p310
S'UH'
p311
F0.2824
tp312
a(S'all'
p313
S'DT'
p314
F0.932
tp315
a(S'the'
p316
S'DT'
p317
F0.9947
tp318
a(S'flags'
p319
S'NNS'
p320
F0.9644
tp321
a(S'//'
p322
g5
F0.2061
tp323
a(S'there'
p324
S'EX'
p325
F0.5865
tp326
a(S'are'
p327
S'VBP'
p328
F0.9132
tp329
a(S'the'
p330
S'DT'
p331
F0.9918
tp332
a(S'new'
p333
S'JJ'
p334
F0.9805
tp335
a(S'emojis'
p336
S'NNS'
p337
F0.9319
tp338
a(S'good'
p339
S'JJ'
p340
F0.9639
tp341
a(S'job'
p342
S'NN'
p343
F0.9622
tp344
a(S'apple'
p345
S'NN'
p346
F0.7657
tp347
a(g293
g128
F0.9871
tp348
a(S'You'
p349
S'PRP'
p350
F0.9979
tp351
a(S'added'
p352
S'VBD'
p353
F0.7791
tp354
a(S'the'
p355
S'DT'
p356
F0.9941
tp357
a(S'unicorn'
p358
S'NN'
p359
F0.916
tp360
ag304
tp361
a((lp362
(S'Lovely'
p363
S'NNP'
p364
F0.4545
tp365
a(S'how'
p366
S'WRB'
p367
F0.9505
tp368
a(S'Apple'
p369
S'NNP'
p370
F0.9815
tp371
a(S'added'
p372
S'VBN'
p373
F0.4947
tp374
a(g144
S'DT'
p375
F0.993
tp376
a(S'middle'
p377
S'NN'
p378
F0.9722
tp379
a(S'finger'
p380
S'NN'
p381
F0.9879
tp382
a(S'emoji'
p383
S'NN'
p384
F0.5235
tp385
a(S'good'
p386
S'JJ'
p387
F0.9459
tp388
a(S'job'
p389
S'NN'
p390
F0.9862
tp391
a(S'????????????????????????'
p392
g128
F0.983
tp393
ag304
tp394
a((lp395
(S'RT'
p396
S'RT'
p397
F0.9539
tp398
a(S'Apple'
p399
S'NNP'
p400
F0.9731
tp401
a(S'sucks'
p402
S'VBZ'
p403
F0.9762
tp404
a(S'now'
p405
S'RB'
p406
F0.9863
tp407
a(g128
g128
F0.9924
tp408
a(S'lets'
p409
S'VBP'
p410
F0.7662
tp411
a(S'all'
p412
S'DT'
p413
F0.9724
tp414
a(S'find'
p415
S'VBP'
p416
F0.4826
tp417
a(g144
S'DT'
p418
F0.9916
tp419
a(S'new'
p420
S'JJ'
p421
F0.9948
tp422
a(S'company'
p423
S'NN'
p424
F0.9797
tp425
a(S'to'
p426
S'TO'
p427
F0.9874
tp428
a(S'worship'
p429
S'VB'
p430
F0.7699
tp431
ag53
tp432
a((lp433
(S'i'
p434
S'PRP'
p435
F0.9814
tp436
a(S'cannot'
p437
S'MD'
p438
F0.7924
tp439
a(S'for'
p440
S'IN'
p441
F0.9937
tp442
a(S'the'
p443
S'DT'
p444
F0.9955
tp445
a(S'life'
p446
S'NN'
p447
F0.9949
tp448
a(S'of'
p449
S'IN'
p450
F0.9955
tp451
a(S'me'
p452
S'PRP'
p453
F0.9979
tp454
a(S'be'
p455
S'VB'
p456
F0.6414
tp457
a(S'professional'
p458
S'JJ'
p459
F0.933
tp460
a(g35
g35
F0.9887
tp461
a(g434
S'PRP'
p462
F0.9517
tp463
a(S'just'
p464
S'RB'
p465
F0.9975
tp466
a(S"can't"
p467
S'MD'
p468
F0.7752
tp469
a(g128
g128
F0.9888
tp470
a(g434
S'PRP'
p471
F0.9728
tp472
a(S'just'
p473
S'RB'
p474
F0.9974
tp475
a(S'emailed'
p476
S'VBD'
p477
F0.8064
tp478
a(S'apple'
p479
S'NNP'
p480
F0.5026
tp481
a(S'saying'
p482
S'VBG'
p483
F0.9556
tp484
a(S'the'
p485
S'DT'
p486
F0.9907
tp487
a(S'new'
p488
S'JJ'
p489
F0.9576
tp490
a(S'iphone'
p491
S'NN'
p492
F0.9603
tp493
a(S'6s'
p494
S'NNS'
p495
F0.7088
tp496
a(S'snapchat'
p497
S'NN'
p498
F0.2668
tp499
a(S'camera'
p500
S'NN'
p501
F0.9784
tp502
a(S'sucks'
p503
S'VBZ'
p504
F0.9638
tp505
a(S'ass'
p506
S'NN'
p507
F0.8984
tp508
a(S'..'
p509
g5
F0.8728
tp510
ag53
tp511
a((lp512
(S'iPhone'
p513
S'NNP'
p514
F0.575
tp515
a(S'has'
p516
S'VBZ'
p517
F0.9722
tp518
a(g144
S'DT'
p519
F0.9968
tp520
a(S'middle'
p521
S'NN'
p522
F0.9641
tp523
a(S'finger'
p524
S'NN'
p525
F0.9879
tp526
a(S'emoji'
p527
S'NN'
p528
F0.6546
tp529
a(S'now'
p530
S'RB'
p531
F0.966
tp532
a(g128
g128
F0.9928
tp533
a(S'Interesting'
p534
S'JJ'
p535
F0.9416
tp536
a(g128
g128
F0.9913
tp537
a(S'????????????????????????????????????????????'
p538
S'RB'
p539
F0.1576
tp540
a(S'good'
p541
S'JJ'
p542
F0.9801
tp543
a(S'job'
p544
S'NN'
p545
F0.9622
tp546
a(S'apple'
p547
S'NN'
p548
F0.7832
tp549
a(g128
g128
F0.9925
tp550
a(S'????????????????'
p551
g128
F0.9185
tp552
a(S'????????'
p553
g128
F0.9657
tp554
ag304
tp555
a((lp556
(S'????????????????????????'
p557
g128
F0.9242
tp558
a(S'????????'
p559
g128
F0.9015
tp560
a(S'good'
p561
S'JJ'
p562
F0.9525
tp563
a(S'job'
p564
S'NN'
p565
F0.923
tp566
a(S'Apple'
p567
S'NNP'
p568
F0.9024
tp569
ag304
tp570
a((lp571
(S'well'
p572
S'UH'
p573
F0.7308
tp574
a(S'then'
p575
S'IN'
p576
F0.7139
tp577
a(g104
S'PRP'
p578
F0.9967
tp579
a(S'guess'
p580
S'VBP'
p581
F0.9844
tp582
a(S'it'
p583
S'PRP'
p584
F0.999
tp585
a(S'sucks'
p586
S'VBZ'
p587
F0.9894
tp588
a(S'that'
p589
S'IN'
p590
F0.83
tp591
a(g104
S'PRP'
p592
F0.9957
tp593
a(S'already'
p594
S'RB'
p595
F0.9865
tp596
a(S'bought'
p597
S'VBD'
p598
F0.7818
tp599
a(S'it'
p600
S'PRP'
p601
F0.9967
tp602
a(S'at'
p603
S'IN'
p604
F0.9925
tp605
a(S'full'
p606
S'JJ'
p607
F0.961
tp608
a(S'price'
p609
S'NN'
p610
F0.9547
tp611
a(S'and'
p612
S'CC'
p613
F0.9929
tp614
a(S'now'
p615
S'RB'
p616
F0.9815
tp617
a(g104
S'PRP'
p618
F0.9972
tp619
a(S"can't"
p620
S'MD'
p621
F0.8557
tp622
a(S'even'
p623
S'RB'
p624
F0.9821
tp625
a(S'listen'
p626
S'VB'
p627
F0.773
tp628
a(S'to'
p629
S'TO'
p630
F0.9901
tp631
a(S'it'
p632
S'PRP'
p633
F0.9919
tp634
a(S'because'
p635
S'IN'
p636
F0.9903
tp637
a(S'of'
p638
S'IN'
p639
F0.9868
tp640
a(S'this'
p641
S'DT'
p642
F0.9935
tp643
a(S'Apple'
p644
S'NNP'
p645
F0.9793
tp646
a(S'Music'
p647
S'NN'
p648
F0.5532
tp649
a(S'shit'
p650
S'NN'
p651
F0.9821
tp652
ag53
tp653
a((lp654
(S'RT'
p655
S'RT'
p656
F0.9663
tp657
a(g104
S'PRP'
p658
F0.9965
tp659
a(S'must'
p660
S'MD'
p661
F0.8362
tp662
a(S'say'
p663
S'VB'
p664
F0.9873
tp665
a(S'Apple'
p666
S'NNP'
p667
F0.8795
tp668
a(S'did'
p669
S'VBD'
p670
F0.9205
tp671
a(g144
S'DT'
p672
F0.9965
tp673
a(S'good'
p674
S'JJ'
p675
F0.9825
tp676
a(S'job'
p677
S'NN'
p678
F0.9876
tp679
a(S'with'
p680
S'IN'
p681
F0.9994
tp682
a(S'the'
p683
S'DT'
p684
F0.9941
tp685
a(S'new'
p686
S'JJ'
p687
F0.9789
tp688
a(S'emojis'
p689
S'NNS'
p690
F0.9679
tp691
ag304
tp692
a((lp693
(S'One'
p694
S'CD'
p695
F0.8922
tp696
a(S'thing'
p697
S'NN'
p698
F0.9461
tp699
a(g104
S'PRP'
p700
F0.9895
tp701
a(S'wont'
p702
S'MD'
p703
F0.4754
tp704
a(S'miss'
p705
S'VB'
p706
F0.6503
tp707
a(S'when'
p708
S'WRB'
p709
F0.9923
tp710
a(g104
S'PRP'
p711
F0.9985
tp712
a(S'upgrade'
p713
S'VBP'
p714
F0.9152
tp715
a(S'my'
p716
S'PRP$'
p717
F0.9792
tp718
a(S'2009'
p719
S'CD'
p720
F0.8364
tp721
a(S'MacBook'
p722
S'NN'
p723
F0.4647
tp724
a(S'Pro'
p725
S'NN'
p726
F0.6249
tp727
a(S'to'
p728
S'TO'
p729
F0.9908
tp730
a(g144
S'DT'
p731
F0.9924
tp732
a(S'new'
p733
S'JJ'
p734
F0.9917
tp735
a(S'MacBook'
p736
S'NN'
p737
F0.6312
tp738
a(S'INSANE'
p739
S'JJ'
p740
F0.955
tp741
a(S'FAN'
p742
S'NN'
p743
F0.6153
tp744
a(S'NOISE'
p745
S'NN'
p746
F0.7434
tp747
a(S'OMG'
p748
S'UH'
p749
F0.9277
tp750
a(S'ITS'
p751
S'PRP'
p752
F0.9307
tp753
a(S'SO'
p754
S'RB'
p755
F0.7754
tp756
a(S'LOUD'
p757
S'JJ'
p758
F0.7673
tp759
a(S'MAKE'
p760
S'VB'
p761
F0.8106
tp762
a(S'IT'
p763
S'PRP'
p764
F0.9976
tp765
a(S'STOP'
p766
S'VBP'
p767
F0.462
tp768
a(g128
g128
F0.9945
tp769
ag53
tp770
a((lp771
(S'switching'
p772
S'VBG'
p773
F0.9691
tp774
a(S'to'
p775
S'TO'
p776
F0.9943
tp777
a(g144
S'DT'
p778
F0.9965
tp779
a(S'Nexus'
p780
S'NN'
p781
F0.6213
tp782
a(S'phone'
p783
S'NN'
p784
F0.9511
tp785
a(S'it'
p786
S'PRP'
p787
F0.9812
tp788
a(S'causes'
p789
S'VBZ'
p790
F0.912
tp791
a(S'iPhones'
p792
S'NNS'
p793
F0.852
tp794
a(S'to'
p795
S'TO'
p796
F0.9947
tp797
a(S'think'
p798
S'VB'
p799
F0.9455
tp800
a(S'you'
p801
S'PRP'
p802
F0.9993
tp803
a(S'still'
p804
S'RB'
p805
F0.9942
tp806
a(S'have'
p807
S'VB'
p808
F0.6402
tp809
a(S'an'
p810
S'DT'
p811
F0.9606
tp812
a(S'iPhone'
p813
S'NNP'
p814
F0.6485
tp815
a(g128
g128
F0.9921
tp816
a(S'Apple'
p817
S'NNP'
p818
F0.9163
tp819
a(S'sucks'
p820
S'VBZ'
p821
F0.9241
tp822
a(S'for'
p823
S'IN'
p824
F0.9961
tp825
a(S'that'
p826
S'DT'
p827
F0.971
tp828
a(S'stuff'
p829
S'NN'
p830
F0.9757
tp831
a(g128
g128
F0.9941
tp832
ag53
tp833
a((lp834
(S'RT'
p835
S'RT'
p836
F0.9674
tp837
a(S'with'
p838
S'IN'
p839
F0.9978
tp840
a(S'every'
p841
S'DT'
p842
F0.9535
tp843
a(S'update'
p844
S'NN'
p845
F0.8681
tp846
a(S'my'
p847
S'PRP$'
p848
F0.9906
tp849
a(S'phone'
p850
S'NN'
p851
F0.996
tp852
a(S'gets'
p853
S'VBZ'
p854
F0.9514
tp855
a(S'worse'
p856
S'JJ'
p857
F0.4509
tp858
a(g35
g35
F0.9902
tp859
a(S"I'm"
p860
S'PRP'
p861
F0.475
tp862
a(S'so'
p863
S'RB'
p864
F0.9208
tp865
a(S'over'
p866
S'IN'
p867
F0.9901
tp868
a(S'Apple'
p869
S'NNP'
p870
F0.9728
tp871
a(S'????'
p872
g128
F0.9735
tp873
ag53
tp874
a((lp875
(S'These'
p876
S'DT'
p877
F0.9726
tp878
a(S'new'
p879
S'JJ'
p880
F0.9899
tp881
a(S'emojis'
p882
S'NNS'
p883
F0.9844
tp884
a(S'are'
p885
S'VBP'
p886
F0.986
tp887
a(S'so'
p888
S'RB'
p889
F0.9549
tp890
a(S'cute'
p891
S'JJ'
p892
F0.9958
tp893
a(S'????????????????????????????????????????????????????????????????????????'
p894
S'NNP'
p895
F0.2095
tp896
a(S'Good'
p897
S'NNP'
p898
F0.8055
tp899
a(S'job'
p900
S'NN'
p901
F0.4931
tp902
a(S'apple'
p903
S'NN'
p904
F0.7706
tp905
a(S'????????'
p906
g128
F0.9762
tp907
ag304
tp908
a((lp909
(S'RT'
p910
S'RT'
p911
F0.9716
tp912
a(S'Theres'
p913
S'VBZ'
p914
F0.3527
tp915
a(g144
S'DT'
p916
F0.9972
tp917
a(S'lot'
p918
S'NN'
p919
F0.9138
tp920
a(S'to'
p921
S'TO'
p922
F0.9905
tp923
a(S'love'
p924
S'VB'
p925
F0.9349
tp926
a(S'about'
p927
S'IN'
p928
F0.9841
tp929
a(S'Apple'
p930
S'NNP'
p931
F0.9892
tp932
a(S'Watch'
p933
S'NNP'
p934
F0.4335
tp935
a(g35
g35
F0.9817
tp936
a(S'but'
p937
S'CC'
p938
F0.996
tp939
a(S'the'
p940
S'DT'
p941
F0.9937
tp942
a(S'truth'
p943
S'NN'
p944
F0.9883
tp945
a(S'is'
p946
S'VBZ'
p947
F0.9899
tp948
a(g35
g35
F0.9891
tp949
a(S'as'
p950
S'IN'
p951
F0.899
tp952
a(g144
S'DT'
p953
F0.9779
tp954
a(S'running'
p955
S'NN'
p956
F0.9008
tp957
a(S'watch'
p958
S'NN'
p959
F0.8665
tp960
a(g35
g35
F0.9901
tp961
a(S'it'
p962
S'PRP'
p963
F0.9973
tp964
a(S'sucks'
p965
S'VBZ'
p966
F0.9905
tp967
ag53
tp968
a((lp969
(S'ugh'
p970
S'UH'
p971
F0.8924
tp972
a(S'Jobs'
p973
S'NNP'
p974
F0.4913
tp975
a(S'*'
p976
S'UH'
p977
F0.2425
tp978
a(S'dammit'
p979
S'UH'
p980
F0.996
tp981
a(S'apple'
p982
S'UH'
p983
F0.2955
tp984
a(S'your'
p985
S'PRP$'
p986
F0.8936
tp987
a(S'autocorrect'
p988
S'NN'
p989
F0.8556
tp990
a(S'sucks'
p991
S'VBZ'
p992
F0.958
tp993
a(S'just'
p994
S'RB'
p995
F0.9996
tp996
a(S'like'
p997
S'IN'
p998
F0.5668
tp999
a(S'your'
p1000
S'PRP$'
p1001
F0.9653
tp1002
a(S'founder'
p1003
S'NN'
p1004
F0.9901
tp1005
ag53
tp1006
a((lp1007
(g104
S'PRP'
p1008
F0.9981
tp1009
a(S'had'
p1010
S'VBD'
p1011
F0.9908
tp1012
a(g144
S'DT'
p1013
F0.994
tp1014
a(S'15'
p1015
S'CD'
p1016
F0.9746
tp1017
a(S'"'
p1018
S"''"
p1019
F0.9849
tp1020
a(S'mbp'
p1021
S'NN'
p1022
F0.8025
tp1023
a(S'as'
p1024
S'IN'
p1025
F0.9626
tp1026
a(g144
S'DT'
p1027
F0.9966
tp1028
a(S'desktop'
p1029
S'NN'
p1030
F0.9671
tp1031
a(S'replacement'
p1032
S'NN'
p1033
F0.9823
tp1034
a(S'and'
p1035
S'CC'
p1036
F0.9929
tp1037
a(S'it'
p1038
S'PRP'
p1039
F0.9977
tp1040
a(S'was'
p1041
S'VBD'
p1042
F0.9801
tp1043
a(S'good'
p1044
S'JJ'
p1045
F0.8831
tp1046
a(g35
g35
F0.9874
tp1047
a(g104
S'PRP'
p1048
F0.9903
tp1049
a(S'have'
p1050
S'VBP'
p1051
F0.9852
tp1052
a(g144
S'DT'
p1053
F0.9958
tp1054
a(S'desktop'
p1055
S'NN'
p1056
F0.9588
tp1057
a(S'pc'
p1058
S'NN'
p1059
F0.7049
tp1060
a(S'now'
p1061
S'RB'
p1062
F0.9724
tp1063
a(S'so'
p1064
S'RB'
p1065
F0.7383
tp1066
a(S"I'd"
p1067
S'PRP'
p1068
F0.9588
tp1069
a(S'probably'
p1070
S'RB'
p1071
F0.9968
tp1072
a(S'get'
p1073
S'VB'
p1074
F0.7289
tp1075
a(g144
S'DT'
p1076
F0.9894
tp1077
a(S'13'
p1078
S'CD'
p1079
F0.9572
tp1080
a(g1018
S"''"
p1081
F0.985
tp1082
a(S'because'
p1083
S'IN'
p1084
F0.9921
tp1085
a(g104
S'PRP'
p1086
F0.999
tp1087
a(S'want'
p1088
S'VBP'
p1089
F0.9588
tp1090
ag304
tp1091
a((lp1092
(S'RT'
p1093
S'RT'
p1094
F0.9702
tp1095
a(S'hmm'
p1096
S'UH'
p1097
F0.8844
tp1098
a(S'apple'
p1099
S'NNP'
p1100
F0.5123
tp1101
a(S'music'
p1102
S'NN'
p1103
F0.9406
tp1104
a(S'sucks'
p1105
S'VBZ'
p1106
F0.9311
tp1107
a(g293
g128
F0.9891
tp1108
a(S'buggy'
p1109
S'RB'
p1110
F0.5035
tp1111
a(g35
g35
F0.9911
tp1112
a(S'slow'
p1113
S'JJ'
p1114
F0.8192
tp1115
a(g35
g35
F0.9911
tp1116
a(S'terrible'
p1117
S'JJ'
p1118
F0.9453
tp1119
a(S'UX'
p1120
S'NN'
p1121
F0.5082
tp1122
a(S'across'
p1123
S'IN'
p1124
F0.9904
tp1125
a(S'all'
p1126
S'DT'
p1127
F0.9969
tp1128
a(S'platforms'
p1129
S'NNS'
p1130
F0.824
tp1131
a(g128
g128
F0.9961
tp1132
a(S'ftw'
p1133
S'UH'
p1134
F0.9148
tp1135
ag53
tp1136
a((lp1137
(S'????'
p1138
g128
F0.9174
tp1139
a(S'good'
p1140
S'JJ'
p1141
F0.9296
tp1142
a(S'job'
p1143
S'NN'
p1144
F0.9332
tp1145
a(S'Apple'
p1146
S'NNP'
p1147
F0.8269
tp1148
a(S'you'
p1149
S'PRP'
p1150
F0.9972
tp1151
a(S'finally'
p1152
S'RB'
p1153
F0.9948
tp1154
a(S'made'
p1155
S'VBD'
p1156
F0.8281
tp1157
a(g144
S'DT'
p1158
F0.9917
tp1159
a(S'volleyball'
p1160
S'NN'
p1161
F0.9849
tp1162
a(S'emoji'
p1163
S'NN'
p1164
F0.7795
tp1165
ag304
tp1166
a((lp1167
(S'RT'
p1168
S'RT'
p1169
F0.9539
tp1170
a(S'Apple'
p1171
S'NNP'
p1172
F0.969
tp1173
a(S'music'
p1174
S'NN'
p1175
F0.9593
tp1176
a(S'='
p1177
g5
F0.3354
tp1178
a(S'sucks'
p1179
S'VBZ'
p1180
F0.8537
tp1181
a(g128
g128
F0.9966
tp1182
ag53
tp1183
a((lp1184
(g104
S'PRP'
p1185
F0.9982
tp1186
a(S'hate'
p1187
S'VBP'
p1188
F0.996
tp1189
a(g35
g35
F0.9879
tp1190
a(S'with'
p1191
S'IN'
p1192
F0.9906
tp1193
a(g144
S'DT'
p1194
F0.9941
tp1195
a(S'passion'
p1196
S'NN'
p1197
F0.9979
tp1198
a(g35
g35
F0.9912
tp1199
a(S'working'
p1200
S'VBG'
p1201
F0.9481
tp1202
a(S'with'
p1203
S'IN'
p1204
F0.9989
tp1205
a(S'Apple'
p1206
S'NNP'
p1207
F0.9914
tp1208
a(S'products'
p1209
S'NNS'
p1210
F0.898
tp1211
a(g128
g128
F0.9944
tp1212
a(S'Between'
p1213
S'IN'
p1214
F0.9828
tp1215
a(S'my'
p1216
S'PRP$'
p1217
F0.9946
tp1218
a(S'phone'
p1219
S'NN'
p1220
F0.9966
tp1221
a(g35
g35
F0.9909
tp1222
a(S'my'
p1223
S'PRP$'
p1224
F0.99
tp1225
a(S'laptop'
p1226
S'NN'
p1227
F0.9683
tp1228
a(g35
g35
F0.9909
tp1229
a(S'my'
p1230
S'PRP$'
p1231
F0.9886
tp1232
a(S'desktop'
p1233
S'NN'
p1234
F0.9591
tp1235
a(S'at'
p1236
S'IN'
p1237
F0.9931
tp1238
a(S'home'
p1239
S'NN'
p1240
F0.9147
tp1241
a(g104
S'PRP'
p1242
F0.9901
tp1243
a(S'DONT'
p1244
S'VBP'
p1245
F0.9585
tp1246
a(S'KNOW'
p1247
S'VB'
p1248
F0.9565
tp1249
a(S"WHAT'S"
p1250
S'PRP'
p1251
F0.4603
tp1252
a(S'WORSE'
p1253
S'JJ'
p1254
F0.5599
tp1255
a(g128
g128
F0.995
tp1256
ag53
tp1257
a((lp1258
(S'Good'
p1259
S'JJ'
p1260
F0.777
tp1261
a(S'job'
p1262
S'NN'
p1263
F0.9364
tp1264
a(S'Apple'
p1265
S'NNP'
p1266
F0.8664
tp1267
a(g293
g128
F0.9871
tp1268
a(S'You'
p1269
S'PRP'
p1270
F0.9974
tp1271
a(S'get'
p1272
S'VBP'
p1273
F0.904
tp1274
a(S'me'
p1275
S'PRP'
p1276
F0.9955
tp1277
a(S'to'
p1278
S'TO'
p1279
F0.995
tp1280
a(S'do'
p1281
S'VB'
p1282
F0.984
tp1283
a(S'your'
p1284
S'PRP$'
p1285
F0.8949
tp1286
a(S'stupid'
p1287
S'JJ'
p1288
F0.935
tp1289
a(S'update'
p1290
S'NN'
p1291
F0.9877
tp1292
a(S'and'
p1293
S'CC'
p1294
F0.9952
tp1295
a(S'all'
p1296
S'DT'
p1297
F0.9249
tp1298
a(g104
S'PRP'
p1299
F0.9952
tp1300
a(S'get'
p1301
S'VBP'
p1302
F0.9546
tp1303
a(S'for'
p1304
S'IN'
p1305
F0.995
tp1306
a(S'5'
p1307
S'CD'
p1308
F0.9966
tp1309
a(S'hours'
p1310
S'NNS'
p1311
F0.9629
tp1312
a(S'is'
p1313
S'VBZ'
p1314
F0.9927
tp1315
a(g144
S'DT'
p1316
F0.9929
tp1317
a(S'black'
p1318
S'NN'
p1319
F0.5906
tp1320
a(S'screen'
p1321
S'NN'
p1322
F0.9881
tp1323
a(S'to'
p1324
S'TO'
p1325
F0.9956
tp1326
a(S'connect'
p1327
S'VB'
p1328
F0.9782
tp1329
a(S'to'
p1330
S'TO'
p1331
F0.9918
tp1332
a(S'...'
p1333
g5
F0.9913
tp1334
ag53
tp1335
a((lp1336
(S'Its'
p1337
S'PRP'
p1338
F0.9379
tp1339
a(S'confusing'
p1340
S'JJ'
p1341
F0.9601
tp1342
a(g35
g35
F0.9912
tp1343
a(S'and'
p1344
S'CC'
p1345
F0.9989
tp1346
a(S'Apple'
p1347
S'NNP'
p1348
F0.9771
tp1349
a(S'hasnt'
p1350
S'VBZ'
p1351
F0.6704
tp1352
a(S'done'
p1353
S'VBN'
p1354
F0.9848
tp1355
a(g144
S'DT'
p1356
F0.9874
tp1357
a(S'good'
p1358
S'JJ'
p1359
F0.9825
tp1360
a(S'job'
p1361
S'NN'
p1362
F0.9886
tp1363
a(S'of'
p1364
S'IN'
p1365
F0.9827
tp1366
a(S'explaining'
p1367
S'VBG'
p1368
F0.6461
tp1369
a(g128
g128
F0.9973
tp1370
ag53
tp1371
a((lp1372
(S'????'
p1373
g128
F0.9161
tp1374
a(g144
S'DT'
p1375
F0.993
tp1376
a(S'unicorn'
p1377
S'NN'
p1378
F0.9753
tp1379
a(S'...'
p1380
g5
F0.9969
tp1381
a(S'damn'
p1382
S'UH'
p1383
F0.7057
tp1384
a(g128
g128
F0.9735
tp1385
a(S'Good'
p1386
S'JJ'
p1387
F0.7859
tp1388
a(S'job'
p1389
S'NN'
p1390
F0.957
tp1391
a(S'Apple'
p1392
S'NNP'
p1393
F0.8797
tp1394
ag304
tp1395
a((lp1396
(S'Quite'
p1397
S'RB'
p1398
F0.8887
tp1399
a(S'surprised'
p1400
S'JJ'
p1401
F0.3743
tp1402
a(S'with'
p1403
S'IN'
p1404
F0.9997
tp1405
a(S'the'
p1406
S'DT'
p1407
F0.9967
tp1408
a(S'batt'
p1409
S'NN'
p1410
F0.9866
tp1411
a(g128
g128
F0.9902
tp1412
a(S'performance'
p1413
S'NN'
p1414
F0.919
tp1415
a(S'of'
p1416
S'IN'
p1417
F0.9895
tp1418
a(S'6s'
p1419
S'CD'
p1420
F0.5786
tp1421
a(g128
g128
F0.9899
tp1422
a(S'Discharged'
p1423
S'VBD'
p1424
F0.54
tp1425
a(S'at'
p1426
S'IN'
p1427
F0.9958
tp1428
a(S'8'
p1429
S'CD'
p1430
F0.984
tp1431
a(S'a.m.'
p1432
S'NN'
p1433
F0.908
tp1434
a(g35
g35
F0.9917
tp1435
a(S'used'
p1436
S'VBD'
p1437
F0.9752
tp1438
a(S'it'
p1439
S'PRP'
p1440
F0.9857
tp1441
a(S'heavily'
p1442
S'RB'
p1443
F0.9848
tp1444
a(g35
g35
F0.9922
tp1445
a(S'still'
p1446
S'RB'
p1447
F0.9693
tp1448
a(S'last'
p1449
S'JJ'
p1450
F0.9761
tp1451
a(S'41%'
p1452
S'CD'
p1453
F0.4523
tp1454
a(S'now'
p1455
S'RB'
p1456
F0.9714
tp1457
a(g128
g128
F0.993
tp1458
a(S'Good'
p1459
S'JJ'
p1460
F0.8114
tp1461
a(S'job'
p1462
S'NN'
p1463
F0.9534
tp1464
a(S'Apple'
p1465
S'NNP'
p1466
F0.9089
tp1467
a(S'for'
p1468
S'IN'
p1469
F0.9873
tp1470
a(S'ur'
p1471
S'PRP$'
p1472
F0.5748
tp1473
a(S'new'
p1474
S'JJ'
p1475
F0.9899
tp1476
a(S'chip'
p1477
S'NN'
p1478
F0.9841
tp1479
a(g293
g128
F0.9979
tp1480
ag304
tp1481
a((lp1482
(g434
S'PRP'
p1483
F0.9883
tp1484
a(S'love'
p1485
S'VBP'
p1486
F0.9936
tp1487
a(S'my'
p1488
S'PRP$'
p1489
F0.9831
tp1490
a(S'iphone'
p1491
S'NN'
p1492
F0.9163
tp1493
a(S'but'
p1494
S'CC'
p1495
F0.9855
tp1496
a(S'apple'
p1497
S'NN'
p1498
F0.4546
tp1499
a(S'sucks'
p1500
S'VBZ'
p1501
F0.9762
tp1502
ag53
tp1503
a((lp1504
(S'????????????????????????'
p1505
g128
F0.9089
tp1506
a(S'Good'
p1507
S'JJ'
p1508
F0.7956
tp1509
a(S'job'
p1510
S'NN'
p1511
F0.9494
tp1512
a(S'Apple'
p1513
S'NNP'
p1514
F0.8597
tp1515
a(S'????????????????'
p1516
g128
F0.9737
tp1517
ag304
tp1518
a((lp1519
(S'????'
p1520
g128
F0.9122
tp1521
a(S'and'
p1522
S'CC'
p1523
F0.9939
tp1524
a(S'????????'
p1525
g128
F0.9162
tp1526
a(S'and'
p1527
S'CC'
p1528
F0.9934
tp1529
a(S'????'
p1530
g128
F0.9377
tp1531
a(S'are'
p1532
S'VBP'
p1533
F0.9335
tp1534
a(S'my'
p1535
S'PRP$'
p1536
F0.9922
tp1537
a(S'new'
p1538
S'JJ'
p1539
F0.9879
tp1540
a(S'fave'
p1541
S'NN'
p1542
F0.7126
tp1543
a(S'emojis'
p1544
S'NNS'
p1545
F0.9624
tp1546
a(g293
g128
F0.9891
tp1547
a(S'Good'
p1548
S'JJ'
p1549
F0.8509
tp1550
a(S'job'
p1551
S'NN'
p1552
F0.9507
tp1553
a(S'Apple'
p1554
S'NNP'
p1555
F0.8787
tp1556
a(g128
g128
F0.9961
tp1557
ag304
tp1558
a((lp1559
(S'RT'
p1560
S'RT'
p1561
F0.9705
tp1562
a(S'Also'
p1563
S'RB'
p1564
F0.9738
tp1565
a(g35
g35
F0.9881
tp1566
a(S'Apple'
p1567
S'NNP'
p1568
F0.9924
tp1569
a(g35
g35
F0.9858
tp1570
a(S'please'
p1571
S'UH'
p1572
F0.8919
tp1573
a(S'stop'
p1574
S'VB'
p1575
F0.8874
tp1576
a(S'changing'
p1577
S'VBG'
p1578
F0.9915
tp1579
a(S"'"
p1580
S"''"
p1581
F0.9493
tp1582
a(S'fucking'
p1583
S'VBG'
p1584
F0.4638
tp1585
a(g1580
S"''"
p1586
F0.9416
tp1587
a(S'to'
p1588
S'TO'
p1589
F0.9937
tp1590
a(g1580
S"''"
p1591
F0.8834
tp1592
a(S'ducking'
p1593
S'VBG'
p1594
F0.9272
tp1595
a(g1580
S"''"
p1596
F0.9414
tp1597
a(g35
g35
F0.9897
tp1598
a(S"you're"
p1599
S'PRP'
p1600
F0.4638
tp1601
a(S'worse'
p1602
S'JJ'
p1603
F0.4999
tp1604
a(S'than'
p1605
S'IN'
p1606
F0.9933
tp1607
a(S'my'
p1608
S'PRP$'
p1609
F0.9946
tp1610
a(S'mum'
p1611
S'NN'
p1612
F0.9354
tp1613
a(g128
g128
F0.9941
tp1614
a(S"I'm"
p1615
S'PRP'
p1616
F0.4489
tp1617
a(S'31'
p1618
S'CD'
p1619
F0.9687
tp1620
a(g35
g35
F0.9902
tp1621
a(g104
S'PRP'
p1622
F0.983
tp1623
a(S'can'
p1624
S'MD'
p1625
F0.9935
tp1626
a(S'make'
p1627
S'VB'
p1628
F0.9982
tp1629
a(S'my'
p1630
S'PRP$'
p1631
F0.995
tp1632
a(S'own'
p1633
S'JJ'
p1634
F0.9687
tp1635
a(S'decisions'
p1636
S'NNS'
p1637
F0.9939
tp1638
a(g128
g128
F0.9922
tp1639
a(S'T'
p1640
S'UH'
p1641
F0.3161
tp1642
ag53
tp1643
a((lp1644
(S'Everyone'
p1645
S'NN'
p1646
F0.9833
tp1647
a(S'knows'
p1648
S'VBZ'
p1649
F0.9584
tp1650
a(g104
S'PRP'
p1651
F0.9978
tp1652
a(S'love'
p1653
S'VBP'
p1654
F0.9957
tp1655
a(S'everything'
p1656
S'NN'
p1657
F0.9445
tp1658
a(S'Apple'
p1659
S'NNP'
p1660
F0.8958
tp1661
a(g35
g35
F0.9891
tp1662
a(S'but'
p1663
S'CC'
p1664
F0.996
tp1665
a(S'the'
p1666
S'DT'
p1667
F0.9928
tp1668
a(S'UI'
p1669
S'NNP'
p1670
F0.6984
tp1671
a(S'of'
p1672
S'IN'
p1673
F0.9293
tp1674
a(S'sucks'
p1675
S'VBZ'
p1676
F0.768
tp1677
a(g128
g128
F0.9952
tp1678
a(S'Why'
p1679
S'WRB'
p1680
F0.9321
tp1681
a(S"can't"
p1682
S'MD'
p1683
F0.795
tp1684
a(g104
S'PRP'
p1685
F0.9886
tp1686
a(S'swipe'
p1687
S'VBP'
p1688
F0.9524
tp1689
a(S'to'
p1690
S'TO'
p1691
F0.9969
tp1692
a(S'delete'
p1693
S'VB'
p1694
F0.9983
tp1695
a(S'any'
p1696
S'DT'
p1697
F0.9829
tp1698
a(S'songs'
p1699
S'NNS'
p1700
F0.9895
tp1701
a(S'that'
p1702
S'IN'
p1703
F0.5694
tp1704
a(S'iOS9'
p1705
S'PRP'
p1706
F0.2499
tp1707
a(S'has'
p1708
S'VBZ'
p1709
F0.9492
tp1710
a(S'duplicated'
p1711
S'VBN'
p1712
F0.9432
tp1713
a(S'?!?'
p1714
g128
F0.9829
tp1715
ag53
tp1716
a((lp1717
(S'Apple'
p1718
S'NNP'
p1719
F0.9012
tp1720
a(S'and'
p1721
S'CC'
p1722
F0.9963
tp1723
a(S'sprint'
p1724
S'NNP'
p1725
F0.6518
tp1726
a(S'are'
p1727
S'VBP'
p1728
F0.9074
tp1729
a(S'worse'
p1730
S'JJ'
p1731
F0.4788
tp1732
a(S'than'
p1733
S'IN'
p1734
F0.9896
tp1735
a(S'crocs'
p1736
S'NNS'
p1737
F0.9227
tp1738
ag53
tp1739
a((lp1740
(S'Spotify'
p1741
S'NNP'
p1742
F0.947
tp1743
a(S'literally'
p1744
S'RB'
p1745
F0.9938
tp1746
a(S'sucks'
p1747
S'VBZ'
p1748
F0.9315
tp1749
a(S'so'
p1750
S'RB'
p1751
F0.9593
tp1752
a(S'much'
p1753
S'RB'
p1754
F0.8929
tp1755
a(g35
g35
F0.9909
tp1756
a(S'the'
p1757
S'DT'
p1758
F0.9556
tp1759
a(S'Apple'
p1760
S'NNP'
p1761
F0.9736
tp1762
a(S'interface'
p1763
S'NN'
p1764
F0.9905
tp1765
a(S'is'
p1766
S'VBZ'
p1767
F0.9953
tp1768
a(S'trash'
p1769
S'NN'
p1770
F0.5456
tp1771
a(S'and'
p1772
S'CC'
p1773
F0.9929
tp1774
a(S'the'
p1775
S'DT'
p1776
F0.9673
tp1777
a(S'curated'
p1778
S'NN'
p1779
F0.4332
tp1780
a(S'playlists'
p1781
S'NNS'
p1782
F0.9829
tp1783
a(S'are'
p1784
S'VBP'
p1785
F0.9782
tp1786
a(S'trash'
p1787
S'NN'
p1788
F0.5132
tp1789
a(S'like'
p1790
S'IN'
p1791
F0.8922
tp1792
a(S'why'
p1793
S'WRB'
p1794
F0.9347
tp1795
ag53
tp1796
a((lp1797
(S'Damn'
p1798
S'UH'
p1799
F0.902
tp1800
a(g35
g35
F0.9846
tp1801
a(S'the'
p1802
S'DT'
p1803
F0.9912
tp1804
a(S'new'
p1805
S'JJ'
p1806
F0.8831
tp1807
a(S'Apple'
p1808
S'NNP'
p1809
F0.8167
tp1810
a(S'TV'
p1811
S'NN'
p1812
F0.5634
tp1813
a(S'only'
p1814
S'RB'
p1815
F0.9681
tp1816
a(S'has'
p1817
S'VBZ'
p1818
F0.9552
tp1819
a(S'an'
p1820
S'DT'
p1821
F0.9751
tp1822
a(S'hdmi'
p1823
S'NN'
p1824
F0.9309
tp1825
a(S'output'
p1826
S'NN'
p1827
F0.9765
tp1828
a(g35
g35
F0.9907
tp1829
a(S'no'
p1830
S'DT'
p1831
F0.821
tp1832
a(S'optical'
p1833
S'NN'
p1834
F0.7852
tp1835
a(g128
g128
F0.9922
tp1836
a(S'Sucks'
p1837
S'VBZ'
p1838
F0.6261
tp1839
a(S'for'
p1840
S'IN'
p1841
F0.9894
tp1842
a(S'streaming'
p1843
S'NN'
p1844
F0.5792
tp1845
a(S'music'
p1846
S'NN'
p1847
F0.9967
tp1848
a(S'only'
p1849
S'RB'
p1850
F0.9184
tp1851
a(g128
g128
F0.994
tp1852
ag53
tp1853
a((lp1854
(S'So'
p1855
S'RB'
p1856
F0.5664
tp1857
a(S'not'
p1858
S'RB'
p1859
F0.9958
tp1860
a(S'only'
p1861
S'RB'
p1862
F0.9643
tp1863
a(S'does'
p1864
S'VBZ'
p1865
F0.8716
tp1866
a(S'the'
p1867
S'DT'
p1868
F0.993
tp1869
a(S'iOS'
p1870
S'NNP'
p1871
F0.8503
tp1872
a(S'update'
p1873
S'NN'
p1874
F0.9599
tp1875
a(S'have'
p1876
S'VB'
p1877
F0.7096
tp1878
a(S'the'
p1879
S'DT'
p1880
F0.9951
tp1881
a(S'middle'
p1882
S'NN'
p1883
F0.9732
tp1884
a(S'finger'
p1885
S'NN'
p1886
F0.9879
tp1887
a(S'emoji'
p1888
S'NN'
p1889
F0.7651
tp1890
a(g35
g35
F0.9913
tp1891
a(S'it'
p1892
S'PRP'
p1893
F0.9959
tp1894
a(S'also'
p1895
S'RB'
p1896
F0.9923
tp1897
a(S'has'
p1898
S'VBZ'
p1899
F0.9577
tp1900
a(g144
S'DT'
p1901
F0.9959
tp1902
a(S'jazz'
p1903
S'NN'
p1904
F0.9837
tp1905
a(S'hands'
p1906
S'NNS'
p1907
F0.7854
tp1908
a(S'on'
p1909
S'IN'
p1910
F0.9882
tp1911
a(g128
g128
F0.9964
tp1912
a(S'Good'
p1913
S'JJ'
p1914
F0.8114
tp1915
a(S'job'
p1916
S'NN'
p1917
F0.9541
tp1918
a(S'Apple'
p1919
S'NNP'
p1920
F0.8513
tp1921
a(g293
g128
F0.9948
tp1922
ag304
tp1923
a((lp1924
(S"WC's"
p1925
S'NNP'
p1926
F0.79
tp1927
a(S'album'
p1928
S'NN'
p1929
F0.779
tp1930
a(S'is'
p1931
S'VBZ'
p1932
F0.9942
tp1933
a(S'????????????,'
p1934
S'NNP'
p1935
F0.5497
tp1936
a(S'Apple'
p1937
S'NNP'
p1938
F0.9992
tp1939
a(S'Music'
p1940
S'NN'
p1941
F0.4976
tp1942
a(S'with'
p1943
S'IN'
p1944
F0.9993
tp1945
a(S'the'
p1946
S'DT'
p1947
F0.9878
tp1948
a(S'connect'
p1949
S'NN'
p1950
F0.9619
tp1951
a(g35
g35
F0.9898
tp1952
a(S'good'
p1953
S'JJ'
p1954
F0.9361
tp1955
a(S'job'
p1956
S'NN'
p1957
F0.9834
tp1958
ag304
tp1959
a((lp1960
(S'RT'
p1961
S'RT'
p1962
F0.971
tp1963
a(S'Never'
p1964
S'RB'
p1965
F0.9445
tp1966
a(S'came'
p1967
S'VBD'
p1968
F0.4801
tp1969
a(S'across'
p1970
S'IN'
p1971
F0.9937
tp1972
a(g144
S'DT'
p1973
F0.9982
tp1974
a(S'thing'
p1975
S'NN'
p1976
F0.997
tp1977
a(S'so'
p1978
S'RB'
p1979
F0.8891
tp1980
a(S'poorly'
p1981
S'RB'
p1982
F0.9908
tp1983
a(S'designed'
p1984
S'VBD'
p1985
F0.5854
tp1986
a(S'as'
p1987
S'IN'
p1988
F0.987
tp1989
a(S'Apple'
p1990
S'NNP'
p1991
F0.9962
tp1992
a(S'Music'
p1993
S'NNP'
p1994
F0.5
tp1995
a(g128
g128
F0.9957
tp1996
a(S"It's"
p1997
S'PRP'
p1998
F0.6736
tp1999
a(S'worse'
p2000
S'JJ'
p2001
F0.456
tp2002
a(S'than'
p2003
S'IN'
p2004
F0.9973
tp2005
a(S'Apple'
p2006
S'NNP'
p2007
F0.9883
tp2008
a(S'maps'
p2009
S'NN'
p2010
F0.4584
tp2011
a(S'gen1'
p2012
S'NN'
p2013
F0.3978
tp2014
a(g128
g128
F0.9922
tp2015
a(S'What'
p2016
S'WP'
p2017
F0.9605
tp2018
a(g144
S'DT'
p2019
F0.9956
tp2020
a(S'piece'
p2021
S'NN'
p2022
F0.9951
tp2023
a(S'of'
p2024
S'IN'
p2025
F0.9914
tp2026
a(S'crap'
p2027
S'NN'
p2028
F0.9296
tp2029
a(g293
g128
F0.9954
tp2030
a(S'#applem'
p2031
S'HT'
p2032
F0.9679
tp2033
ag53
tp2034
a((lp2035
(S'RT'
p2036
S'RT'
p2037
F0.9493
tp2038
a(S'Good'
p2039
S'JJ'
p2040
F0.7994
tp2041
a(S'job'
p2042
S'NN'
p2043
F0.9929
tp2044
a(g35
g35
F0.9882
tp2045
a(S'Apple'
p2046
S'NNP'
p2047
F0.992
tp2048
a(g35
g35
F0.9903
tp2049
a(S'for'
p2050
S'IN'
p2051
F0.9681
tp2052
a(S'placing'
p2053
S'VBG'
p2054
F0.9956
tp2055
a(S'the'
p2056
S'DT'
p2057
F0.9927
tp2058
a(S'popcorn'
p2059
S'NN'
p2060
F0.7946
tp2061
a(S'emoji'
p2062
S'NN'
p2063
F0.8558
tp2064
a(S'next'
p2065
S'JJ'
p2066
F0.9204
tp2067
a(S'to'
p2068
S'TO'
p2069
F0.9792
tp2070
a(S'the'
p2071
S'DT'
p2072
F0.9968
tp2073
a(S'wine'
p2074
S'NN'
p2075
F0.964
tp2076
a(S'for'
p2077
S'IN'
p2078
F0.9938
tp2079
a(S'#ScandalABC'
p2080
S'HT'
p2081
F0.944
tp2082
a(S'????????'
p2083
g128
F0.926
tp2084
a(S'#ScandaI'
p2085
S'HT'
p2086
F0.9878
tp2087
ag304
tp2088
a((lp2089
(S'apple'
p2090
S'NNP'
p2091
F0.6904
tp2092
a(S'company'
p2093
S'NN'
p2094
F0.8468
tp2095
a(S'sucks'
p2096
S'VBZ'
p2097
F0.9688
tp2098
ag53
tp2099
a((lp2100
(S'AND'
p2101
S'CC'
p2102
F0.9868
tp2103
a(g144
S'DT'
p2104
F0.9772
tp2105
a(S'taco'
p2106
S'NN'
p2107
F0.9168
tp2108
a(S'emoji'
p2109
S'NN'
p2110
F0.8612
tp2111
a(g128
g128
F0.993
tp2112
a(S'Good'
p2113
S'JJ'
p2114
F0.8114
tp2115
a(S'job'
p2116
S'NN'
p2117
F0.9931
tp2118
a(g35
g35
F0.9891
tp2119
a(S'Apple'
p2120
S'NNP'
p2121
F0.987
tp2122
ag304
tp2123
a((lp2124
(S'????????????'
p2125
g128
F0.9123
tp2126
a(S'and'
p2127
S'CC'
p2128
F0.9957
tp2129
a(g144
S'DT'
p2130
F0.9912
tp2131
a(S'lion'
p2132
S'NN'
p2133
F0.9734
tp2134
a(S'yes'
p2135
S'UH'
p2136
F0.7396
tp2137
a(S'apple'
p2138
S'NNP'
p2139
F0.4246
tp2140
a(S'good'
p2141
S'JJ'
p2142
F0.9423
tp2143
a(S'job'
p2144
S'NN'
p2145
F0.9812
tp2146
ag304
tp2147
a((lp2148
(S'RT'
p2149
S'RT'
p2150
F0.9723
tp2151
a(S'Because'
p2152
S'IN'
p2153
F0.9622
tp2154
a(S'it'
p2155
S'PRP'
p2156
F0.9987
tp2157
a(S'sucks'
p2158
S'VBZ'
p2159
F0.989
tp2160
a(S'>'
p2161
g5
F0.1988
tp2162
a(S'Apple'
p2163
S'NNP'
p2164
F0.9887
tp2165
a(S'Music'
p2166
S'NNP'
p2167
F0.5665
tp2168
a(S'loses'
p2169
S'VBZ'
p2170
F0.9267
tp2171
a(S'4.5'
p2172
S'CD'
p2173
F0.8258
tp2174
a(S'M'
p2175
S'NNP'
p2176
F0.6473
tp2177
a(S'subs'
p2178
S'NNS'
p2179
F0.8132
tp2180
a(S'after'
p2181
S'IN'
p2182
F0.9932
tp2183
a(S'trial'
p2184
S'NN'
p2185
F0.9897
tp2186
a(S'expires'
p2187
S'VBZ'
p2188
F0.959
tp2189
ag53
tp2190
a((lp2191
(S'Okay'
p2192
S'UH'
p2193
F0.8622
tp2194
a(S"here's"
p2195
S'RB'
p2196
F0.469
tp2197
a(S'the'
p2198
S'DT'
p2199
F0.9962
tp2200
a(S'story'
p2201
S'NN'
p2202
F0.9954
tp2203
a(g5
g5
F0.9767
tp2204
a(S'Basically'
p2205
S'RB'
p2206
F0.9926
tp2207
a(S'...'
p2208
g5
F0.996
tp2209
a(g104
S'PRP'
p2210
F0.9958
tp2211
a(S"didn't"
p2212
S'VBD'
p2213
F0.4849
tp2214
a(S'realized'
p2215
S'VB'
p2216
F0.4718
tp2217
a(S'how'
p2218
S'WRB'
p2219
F0.9415
tp2220
a(S'loud'
p2221
S'JJ'
p2222
F0.9323
tp2223
a(S'my'
p2224
S'PRP$'
p2225
F0.9926
tp2226
a(S'laptop'
p2227
S'NN'
p2228
F0.9836
tp2229
a(S'is'
p2230
S'VBZ'
p2231
F0.9878
tp2232
a(S'('
p2233
S'-LRB-'
p2234
F0.9328
tp2235
a(S'the'
p2236
S'DT'
p2237
F0.9887
tp2238
a(S'new'
p2239
S'JJ'
p2240
F0.9577
tp2241
a(S'MacBook'
p2242
S'NN'
p2243
F0.7631
tp2244
a(S'Pro'
p2245
S'NN'
p2246
F0.7706
tp2247
a(S'is'
p2248
S'VBZ'
p2249
F0.9903
tp2250
a(S'louder'
p2251
S'JJR'
p2252
F0.8982
tp2253
a(S'than'
p2254
S'IN'
p2255
F0.9953
tp2256
a(S'the'
p2257
S'DT'
p2258
F0.9957
tp2259
a(S'old'
p2260
S'JJ'
p2261
F0.7696
tp2262
a(S'edition'
p2263
S'NN'
p2264
F0.9945
tp2265
a(S')'
p2266
S'-RRB-'
p2267
F0.9253
tp2268
ag53
tp2269
a((lp2270
(S'????????'
p2271
g128
F0.9177
tp2272
a(g104
S'PRP'
p2273
F0.9977
tp2274
a(S'have'
p2275
S'VBP'
p2276
F0.984
tp2277
a(S'been'
p2278
S'VBN'
p2279
F0.987
tp2280
a(S'using'
p2281
S'VBG'
p2282
F0.9924
tp2283
a(S'this'
p2284
S'DT'
p2285
F0.9956
tp2286
a(S'emoji'
p2287
S'NN'
p2288
F0.8157
tp2289
a(S'like'
p2290
S'IN'
p2291
F0.9442
tp2292
a(S'no'
p2293
S'DT'
p2294
F0.9323
tp2295
a(S'other'
p2296
S'JJ'
p2297
F0.6065
tp2298
a(g128
g128
F0.9916
tp2299
a(S'Good'
p2300
S'JJ'
p2301
F0.7856
tp2302
a(S'job'
p2303
S'NN'
p2304
F0.9716
tp2305
a(S'apple'
p2306
S'NN'
p2307
F0.6967
tp2308
ag304
tp2309
a((lp2310
(S'RT'
p2311
S'RT'
p2312
F0.9539
tp2313
a(S'Apple'
p2314
S'NNP'
p2315
F0.9657
tp2316
a(S'TV'
p2317
S'NNP'
p2318
F0.7748
tp2319
a(S'2015'
p2320
S'CD'
p2321
F0.6796
tp2322
a(S'review'
p2323
S'NN'
p2324
F0.9844
tp2325
a(g5
g5
F0.9695
tp2326
a(S'Fast'
p2327
S'RB'
p2328
F0.5114
tp2329
a(S'and'
p2330
S'CC'
p2331
F0.9893
tp2332
a(S'easy'
p2333
S'JJ'
p2334
F0.9097
tp2335
a(S'to'
p2336
S'TO'
p2337
F0.9954
tp2338
a(S'navigate'
p2339
S'VB'
p2340
F0.9865
tp2341
a(g35
g35
F0.9868
tp2342
a(S'but'
p2343
S'CC'
p2344
F0.9939
tp2345
a(S'keyboard'
p2346
S'NN'
p2347
F0.8972
tp2348
a(S'worse'
p2349
S'JJ'
p2350
F0.3493
tp2351
a(g35
g35
F0.9893
tp2352
a(S'Siri'
p2353
S'NNP'
p2354
F0.9995
tp2355
a(S'limited'
p2356
S'JJ'
p2357
F0.4453
tp2358
ag53
tp2359
a((lp2360
(S'????'
p2361
g128
F0.9208
tp2362
a(S'Wow'
p2363
S'UH'
p2364
F0.8642
tp2365
a(S'that'
p2366
S'DT'
p2367
F0.4425
tp2368
a(S'sucks'
p2369
S'VBZ'
p2370
F0.9759
tp2371
a(g293
g128
F0.9939
tp2372
a(S'How'
p2373
S'WRB'
p2374
F0.9392
tp2375
a(S'about'
p2376
S'IN'
p2377
F0.8987
tp2378
a(S'fighting'
p2379
S'VBG'
p2380
F0.9107
tp2381
a(S'together'
p2382
S'RB'
p2383
F0.8881
tp2384
a(S'against'
p2385
S'IN'
p2386
F0.9961
tp2387
a(S'apple'
p2388
S'NN'
p2389
F0.4869
tp2390
a(S'?'
p2391
g128
F0.9955
tp2392
ag53
tp2393
a((lp2394
(S'My'
p2395
S'PRP$'
p2396
F0.9017
tp2397
a(S'hoover'
p2398
S'NN'
p2399
F0.8451
tp2400
a(g2233
S'-LRB-'
p2401
F0.9248
tp2402
a(S'MacBook'
p2403
S'NNP'
p2404
F0.7031
tp2405
a(g2266
S'-RRB-'
p2406
F0.9463
tp2407
a(S'is'
p2408
S'VBZ'
p2409
F0.9847
tp2410
a(S'getting'
p2411
S'VBG'
p2412
F0.9971
tp2413
a(S'ridiculously'
p2414
S'RB'
p2415
F0.9989
tp2416
a(S'loud'
p2417
S'JJ'
p2418
F0.8953
tp2419
a(g128
g128
F0.9928
tp2420
a(S"I'm"
p2421
S'PRP'
p2422
F0.6589
tp2423
a(S'so'
p2424
S'RB'
p2425
F0.9758
tp2426
a(S'afraid'
p2427
S'JJ'
p2428
F0.8737
tp2429
a(S'it'
p2430
S'PRP'
p2431
F0.9958
tp2432
a(S'might'
p2433
S'MD'
p2434
F0.9586
tp2435
a(S'just'
p2436
S'RB'
p2437
F0.9969
tp2438
a(S'blow'
p2439
S'VB'
p2440
F0.8422
tp2441
a(S'up'
p2442
S'RP'
p2443
F0.781
tp2444
a(S'on'
p2445
S'IN'
p2446
F0.998
tp2447
a(S'me'
p2448
S'PRP'
p2449
F0.9172
tp2450
a(S'one'
p2451
S'CD'
p2452
F0.9143
tp2453
a(S'day'
p2454
S'NN'
p2455
F0.9941
tp2456
a(g128
g128
F0.9957
tp2457
a(S'Time'
p2458
S'NN'
p2459
F0.7189
tp2460
a(S'for'
p2461
S'IN'
p2462
F0.9979
tp2463
a(g144
S'DT'
p2464
F0.9932
tp2465
a(S'new'
p2466
S'JJ'
p2467
F0.9923
tp2468
a(S'one'
p2469
S'CD'
p2470
F0.7268
tp2471
a(S'me'
p2472
S'PRP'
p2473
F0.9969
tp2474
a(S'thinks'
p2475
S'VBP'
p2476
F0.4309
tp2477
a(g128
g128
F0.9957
tp2478
ag53
tp2479
a((lp2480
(S'So'
p2481
S'RB'
p2482
F0.4963
tp2483
a(S'having'
p2484
S'VBG'
p2485
F0.9844
tp2486
a(g144
S'DT'
p2487
F0.9952
tp2488
a(S'new'
p2489
S'JJ'
p2490
F0.9926
tp2491
a(S'iPhone'
p2492
S'NN'
p2493
F0.8948
tp2494
a(S'is'
p2495
S'VBZ'
p2496
F0.9897
tp2497
a(S'pretty'
p2498
S'RB'
p2499
F0.9879
tp2500
a(S'nice'
p2501
S'JJ'
p2502
F0.9912
tp2503
a(g128
g128
F0.991
tp2504
a(S'Not'
p2505
S'RB'
p2506
F0.9898
tp2507
a(S'even'
p2508
S'RB'
p2509
F0.9912
tp2510
a(S'gonna'
p2511
S'VBG'
p2512
F0.9745
tp2513
a(S'lie'
p2514
S'VB'
p2515
F0.976
tp2516
a(g128
g128
F0.9929
tp2517
a(S'Good'
p2518
S'JJ'
p2519
F0.8372
tp2520
a(S'job'
p2521
S'NN'
p2522
F0.96
tp2523
a(S'Apple'
p2524
S'NNP'
p2525
F0.8991
tp2526
ag304
tp2527
a((lp2528
(S'My'
p2529
S'PRP$'
p2530
F0.9483
tp2531
a(S'macbook'
p2532
S'NN'
p2533
F0.8836
tp2534
a(S'fan'
p2535
S'NN'
p2536
F0.9772
tp2537
a(S'noise'
p2538
S'NN'
p2539
F0.9828
tp2540
a(S'is'
p2541
S'VBZ'
p2542
F0.9932
tp2543
a(S'extremely'
p2544
S'RB'
p2545
F0.9984
tp2546
a(S'loud'
p2547
S'JJ'
p2548
F0.8953
tp2549
a(g128
g128
F0.9909
tp2550
a(S'Should'
p2551
S'MD'
p2552
F0.9259
tp2553
a(g104
S'PRP'
p2554
F0.9952
tp2555
a(S'buy'
p2556
S'VBP'
p2557
F0.9474
tp2558
a(g144
S'DT'
p2559
F0.9918
tp2560
a(S'new'
p2561
S'JJ'
p2562
F0.9969
tp2563
a(S'fan'
p2564
S'NN'
p2565
F0.9807
tp2566
a(g2391
g128
F0.9962
tp2567
ag53
tp2568
a((lp2569
(S'????????????????'
p2570
g128
F0.9193
tp2571
a(S'these'
p2572
S'DT'
p2573
F0.9745
tp2574
a(S'fit'
p2575
S'NN'
p2576
F0.3206
tp2577
a(S'my'
p2578
S'PRP$'
p2579
F0.9929
tp2580
a(S'personality'
p2581
S'NN'
p2582
F0.986
tp2583
a(S'so'
p2584
S'RB'
p2585
F0.7202
tp2586
a(S'well'
p2587
S'RB'
p2588
F0.6507
tp2589
a(g128
g128
F0.9902
tp2590
a(S'good'
p2591
S'JJ'
p2592
F0.9245
tp2593
a(S'job'
p2594
S'NN'
p2595
F0.9648
tp2596
a(S'apple'
p2597
S'NN'
p2598
F0.7071
tp2599
ag304
tp2600
a((lp2601
(S'New'
p2602
S'JJ'
p2603
F0.8469
tp2604
a(S'figure'
p2605
S'NN'
p2606
F0.8534
tp2607
a(S'skate'
p2608
S'NN'
p2609
F0.594
tp2610
a(S'emoji'
p2611
S'NN'
p2612
F0.8657
tp2613
a(g35
g35
F0.9923
tp2614
a(S'good'
p2615
S'JJ'
p2616
F0.9363
tp2617
a(S'job'
p2618
S'NN'
p2619
F0.9365
tp2620
a(S'Apple'
p2621
S'NNP'
p2622
F0.8377
tp2623
a(S'????????'
p2624
g128
F0.974
tp2625
ag304
tp2626
a((lp2627
(S'APPLE'
p2628
S'NNP'
p2629
F0.9334
tp2630
a(S'DID'
p2631
S'VBD'
p2632
F0.7314
tp2633
a(S'A'
p2634
S'DT'
p2635
F0.979
tp2636
a(S'GOOD'
p2637
S'JJ'
p2638
F0.9627
tp2639
a(S'JOB'
p2640
S'NN'
p2641
F0.826
tp2642
a(S'HAHA'
p2643
S'UH'
p2644
F0.9222
tp2645
a(S'????'
p2646
g128
F0.9215
tp2647
ag304
tp2648
a((lp2649
(S'Apple'
p2650
S'NNP'
p2651
F0.9095
tp2652
a(S'sucks'
p2653
S'VBZ'
p2654
F0.9649
tp2655
a(S'Ass'
p2656
S'NNP'
p2657
F0.329
tp2658
a(S'or'
p2659
S'CC'
p2660
F0.9631
tp2661
a(S'Apples'
p2662
S'NNP'
p2663
F0.6251
tp2664
a(S'iPhone'
p2665
S'NNP'
p2666
F0.9843
tp2667
a(S'6s'
p2668
S'CD'
p2669
F0.433
tp2670
a(S'sucks'
p2671
S'VBZ'
p2672
F0.9172
tp2673
a(S'ass'
p2674
S'NN'
p2675
F0.7792
tp2676
ag53
tp2677
a((lp2678
(S'tell'
p2679
S'VB'
p2680
F0.9249
tp2681
a(S'her'
p2682
S'PRP'
p2683
F0.8918
tp2684
a(S'to'
p2685
S'TO'
p2686
F0.9946
tp2687
a(S'download'
p2688
S'VB'
p2689
F0.9824
tp2690
a(S'it'
p2691
S'PRP'
p2692
F0.9968
tp2693
a(S'again'
p2694
S'RB'
p2695
F0.9397
tp2696
a(S'idek'
p2697
S'UH'
p2698
F0.4561
tp2699
a(S'probably'
p2700
S'RB'
p2701
F0.9925
tp2702
a(S'just'
p2703
S'RB'
p2704
F0.9991
tp2705
a(S'because'
p2706
S'IN'
p2707
F0.9378
tp2708
a(S'apple'
p2709
S'NN'
p2710
F0.498
tp2711
a(S'sucks'
p2712
S'VBZ'
p2713
F0.9755
tp2714
ag53
tp2715
a((lp2716
(S'How'
p2717
S'WRB'
p2718
F0.97
tp2719
a(S'good'
p2720
S'JJ'
p2721
F0.9337
tp2722
a(S'is'
p2723
S'VBZ'
p2724
F0.9858
tp2725
a(S'3D'
p2726
S'NNP'
p2727
F0.4421
tp2728
a(S'Touch'
p2729
S'NNP'
p2730
F0.7822
tp2731
a(S'on'
p2732
S'IN'
p2733
F0.9927
tp2734
a(S'the'
p2735
S'DT'
p2736
F0.9932
tp2737
a(S'new'
p2738
S'JJ'
p2739
F0.9576
tp2740
a(S'iPhone'
p2741
S'NN'
p2742
F0.7981
tp2743
a(g2391
g128
F0.9915
tp2744
a(g104
S'PRP'
p2745
F0.995
tp2746
a(S'now'
p2747
S'RB'
p2748
F0.9905
tp2749
a(S'try'
p2750
S'VB'
p2751
F0.7668
tp2752
a(S'to'
p2753
S'TO'
p2754
F0.9925
tp2755
a(S'3D'
p2756
S'VB'
p2757
F0.3064
tp2758
a(S'touch'
p2759
S'NN'
p2760
F0.8835
tp2761
a(S'also'
p2762
S'RB'
p2763
F0.9985
tp2764
a(S'on'
p2765
S'IN'
p2766
F0.986
tp2767
a(S'my'
p2768
S'PRP$'
p2769
F0.9963
tp2770
a(S'iPad'
p2771
S'NNP'
p2772
F0.5804
tp2773
a(g128
g128
F0.9952
tp2774
a(S'Yes'
p2775
S'UH'
p2776
F0.9533
tp2777
a(g35
g35
F0.9835
tp2778
a(S"it's"
p2779
S'PRP'
p2780
F0.8237
tp2781
a(S'that'
p2782
S'DT'
p2783
F0.7394
tp2784
a(S'good'
p2785
S'JJ'
p2786
F0.8935
tp2787
a(g35
g35
F0.9902
tp2788
a(S'great'
p2789
S'JJ'
p2790
F0.9862
tp2791
a(S'job'
p2792
S'NN'
p2793
F0.9468
tp2794
a(S'Apple'
p2795
S'NNP'
p2796
F0.8045
tp2797
a(g293
g128
F0.9949
tp2798
ag304
tp2799
a((lp2800
(S'RT'
p2801
S'RT'
p2802
F0.9663
tp2803
a(g104
S'PRP'
p2804
F0.9975
tp2805
a(S'hate'
p2806
S'VBP'
p2807
F0.9941
tp2808
a(S'Apple'
p2809
S'NNP'
p2810
F0.9829
tp2811
a(S'Music'
p2812
S'NNP'
p2813
F0.6105
tp2814
a(S'and'
p2815
S'CC'
p2816
F0.9934
tp2817
a(S'now'
p2818
S'RB'
p2819
F0.9854
tp2820
a(S'what'
p2821
S'WP'
p2822
F0.9788
tp2823
a(S'was'
p2824
S'VBD'
p2825
F0.9524
tp2826
a(S'great'
p2827
S'JJ'
p2828
F0.9615
tp2829
a(S'about'
p2830
S'IN'
p2831
F0.9791
tp2832
a(S'my'
p2833
S'PRP$'
p2834
F0.9878
tp2835
a(S'iPhone'
p2836
S'NNP'
p2837
F0.5235
tp2838
a(S'sucks'
p2839
S'VBZ'
p2840
F0.942
tp2841
a(S'#applemusicsucks'
p2842
S'HT'
p2843
F0.962
tp2844
ag53
tp2845
a((lp2846
(S'Best'
p2847
S'JJS'
p2848
F0.8816
tp2849
a(S'thing'
p2850
S'NN'
p2851
F0.9901
tp2852
a(S'about'
p2853
S'IN'
p2854
F0.9896
tp2855
a(S'the'
p2856
S'DT'
p2857
F0.9977
tp2858
a(S'6s'
p2859
S'NNS'
p2860
F0.8842
tp2861
a(S'is'
p2862
S'VBZ'
p2863
F0.9807
tp2864
a(S'probably'
p2865
S'RB'
p2866
F0.9978
tp2867
a(S'the'
p2868
S'DT'
p2869
F0.9961
tp2870
a(S'front'
p2871
S'NN'
p2872
F0.8677
tp2873
a(S'flash'
p2874
S'NN'
p2875
F0.971
tp2876
a(g128
g128
F0.9951
tp2877
a(S'Good'
p2878
S'JJ'
p2879
F0.8114
tp2880
a(S'job'
p2881
S'NN'
p2882
F0.9534
tp2883
a(S'Apple'
p2884
S'NNP'
p2885
F0.9379
tp2886
a(S'#toronto'
p2887
S'HT'
p2888
F0.8937
tp2889
a(S'#toig'
p2890
S'HT'
p2891
F0.9169
tp2892
a(S'#instablogger'
p2893
S'HT'
p2894
F0.9646
tp2895
ag304
tp2896
a((lp2897
(S"It's"
p2898
S'PRP'
p2899
F0.8286
tp2900
a(S'worse'
p2901
S'JJ'
p2902
F0.4076
tp2903
a(S'than'
p2904
S'IN'
p2905
F0.9928
tp2906
a(S'that'
p2907
S'DT'
p2908
F0.8536
tp2909
a(g128
g128
F0.9925
tp2910
a(S'Some'
p2911
S'DT'
p2912
F0.8761
tp2913
a(S'are'
p2914
S'VBP'
p2915
F0.8895
tp2916
a(S'having'
p2917
S'VBG'
p2918
F0.9971
tp2919
a(S'to'
p2920
S'TO'
p2921
F0.9918
tp2922
a(S'queue'
p2923
S'NN'
p2924
F0.4526
tp2925
a(S'twice'
p2926
S'RB'
p2927
F0.9064
tp2928
a(S'because'
p2929
S'IN'
p2930
F0.9922
tp2931
a(S'the'
p2932
S'DT'
p2933
F0.9921
tp2934
a(S'ticketing'
p2935
S'NN'
p2936
F0.86
tp2937
a(S'site'
p2938
S'NN'
p2939
F0.9968
tp2940
a(S"wasn't"
p2941
S'NN'
p2942
F0.456
tp2943
a(S'set'
p2944
S'NN'
p2945
F0.4735
tp2946
a(S'up'
p2947
S'RP'
p2948
F0.7349
tp2949
a(S'for'
p2950
S'IN'
p2951
F0.9993
tp2952
a(S"Apple's"
p2953
S'NNP'
p2954
F0.9815
tp2955
a(S'Safari'
p2956
S'NNP'
p2957
F0.9971
tp2958
a(S'browser'
p2959
S'NN'
p2960
F0.6146
tp2961
a(g128
g128
F0.9962
tp2962
ag53
tp2963
a((lp2964
(S"THERE'S"
p2965
S'VBZ'
p2966
F0.1279
tp2967
a(g2634
S'DT'
p2968
F0.9702
tp2969
a(S'MIDDLE'
p2970
S'NN'
p2971
F0.8974
tp2972
a(S'FINGER'
p2973
S'NN'
p2974
F0.9478
tp2975
a(S'EMOJI'
p2976
S'NN'
p2977
F0.3969
tp2978
a(g128
g128
F0.9939
tp2979
a(S'YES'
p2980
S'UH'
p2981
F0.6903
tp2982
a(S'APPLE'
p2983
S'NNP'
p2984
F0.9273
tp2985
a(S'GOOD'
p2986
S'JJ'
p2987
F0.6398
tp2988
a(S'JOB'
p2989
S'NN'
p2990
F0.8995
tp2991
a(S'!!!!'
p2992
g128
F0.9921
tp2993
a(S'????????????????????????????????????????????????'
p2994
g128
F0.2348
tp2995
ag304
tp2996
a((lp2997
(S'Absolutely'
p2998
S'RB'
p2999
F0.9518
tp3000
a(g293
g128
F0.9833
tp3001
a(S'So'
p3002
S'RB'
p3003
F0.9556
tp3004
a(S'far'
p3005
S'RB'
p3006
F0.9358
tp3007
a(g104
S'PRP'
p3008
F0.9946
tp3009
a(S'still'
p3010
S'RB'
p3011
F0.9735
tp3012
a(S'prefer'
p3013
S'VBP'
p3014
F0.7288
tp3015
a(S'the'
p3016
S'DT'
p3017
F0.9851
tp3018
a(S'Force'
p3019
S'NNP'
p3020
F0.9489
tp3021
a(S'Touch'
p3022
S'NNP'
p3023
F0.8365
tp3024
a(S'on'
p3025
S'IN'
p3026
F0.9838
tp3027
a(S'my'
p3028
S'PRP$'
p3029
F0.9966
tp3030
a(S'MBP'
p3031
S'NN'
p3032
F0.5798
tp3033
a(g128
g128
F0.9915
tp3034
a(S'But'
p3035
S'CC'
p3036
F0.9559
tp3037
a(S'if'
p3038
S'IN'
p3039
F0.9716
tp3040
a(S'Devs'
p3041
S'NNS'
p3042
F0.8076
tp3043
a(S'like'
p3044
S'IN'
p3045
F0.842
tp3046
a(S'you'
p3047
S'PRP'
p3048
F0.9744
tp3049
a(S'guys'
p3050
S'NNS'
p3051
F0.9909
tp3052
a(S'find'
p3053
S'VBP'
p3054
F0.6599
tp3055
a(S'good'
p3056
S'JJ'
p3057
F0.9743
tp3058
a(S'use'
p3059
S'NN'
p3060
F0.9147
tp3061
a(g35
g35
F0.9891
tp3062
a(S'well'
p3063
S'UH'
p3064
F0.5467
tp3065
a(S'then'
p3066
S'IN'
p3067
F0.6813
tp3068
a(S'it'
p3069
S'PRP'
p3070
F0.9962
tp3071
a(S'will'
p3072
S'MD'
p3073
F0.9934
tp3074
a(S'rock'
p3075
S'VB'
p3076
F0.9952
tp3077
a(g293
g128
F0.9959
tp3078
ag304
tp3079
a((lp3080
(g104
S'PRP'
p3081
F0.9959
tp3082
a(S'really'
p3083
S'RB'
p3084
F0.9782
tp3085
a(S'appreciate'
p3086
S'VBP'
p3087
F0.6818
tp3088
a(S'the'
p3089
S'DT'
p3090
F0.9932
tp3091
a(S'figure'
p3092
S'NN'
p3093
F0.9096
tp3094
a(S'skate'
p3095
S'NN'
p3096
F0.6116
tp3097
a(S'emoji'
p3098
S'NN'
p3099
F0.745
tp3100
a(S'good'
p3101
S'JJ'
p3102
F0.9186
tp3103
a(S'job'
p3104
S'NN'
p3105
F0.9367
tp3106
a(S'Apple'
p3107
S'NNP'
p3108
F0.8825
tp3109
ag304
tp3110
a((lp3111
(S'my'
p3112
S'PRP$'
p3113
F0.9814
tp3114
a(S'computer'
p3115
S'NN'
p3116
F0.9829
tp3117
a(S'just'
p3118
S'RB'
p3119
F0.9991
tp3120
a(S'went'
p3121
S'VBD'
p3122
F0.9745
tp3123
a(S'through'
p3124
S'IN'
p3125
F0.9898
tp3126
a(g144
S'DT'
p3127
F0.9967
tp3128
a(S'serious'
p3129
S'JJ'
p3130
F0.9948
tp3131
a(S'crash'
p3132
S'NN'
p3133
F0.9147
tp3134
a(S'and'
p3135
S'CC'
p3136
F0.9929
tp3137
a(S'it'
p3138
S'PRP'
p3139
F0.998
tp3140
a(S'looks'
p3141
S'VBZ'
p3142
F0.9758
tp3143
a(S'like'
p3144
S'IN'
p3145
F0.6553
tp3146
a(S'everything'
p3147
S'NN'
p3148
F0.9931
tp3149
a(S'was'
p3150
S'VBD'
p3151
F0.9779
tp3152
a(S'restored'
p3153
S'VBN'
p3154
F0.9281
tp3155
a(S'properly'
p3156
S'RB'
p3157
F0.9731
tp3158
a(S'automatically'
p3159
S'RB'
p3160
F0.9964
tp3161
a(g128
g128
F0.9896
tp3162
a(S'good'
p3163
S'JJ'
p3164
F0.9084
tp3165
a(S'job'
p3166
S'NN'
p3167
F0.9639
tp3168
a(S'apple'
p3169
S'NN'
p3170
F0.7681
tp3171
a(g293
g128
F0.9938
tp3172
ag304
tp3173
a((lp3174
(S'Apple'
p3175
S'NNP'
p3176
F0.9095
tp3177
a(S'sucks'
p3178
S'VBZ'
p3179
F0.92
tp3180
a(g128
g128
F0.9942
tp3181
a(g104
S'PRP'
p3182
F0.9975
tp3183
a(S'hate'
p3184
S'VBP'
p3185
F0.9952
tp3186
a(S'them'
p3187
S'PRP'
p3188
F0.987
tp3189
a(S'rn'
p3190
S'NN'
p3191
F0.6088
tp3192
a(g128
g128
F0.993
tp3193
ag53
tp3194
a((lp3195
(S'Obsessed'
p3196
S'VBD'
p3197
F0.9185
tp3198
a(S'with'
p3199
S'IN'
p3200
F0.9976
tp3201
a(S'these'
p3202
S'DT'
p3203
F0.9929
tp3204
a(S'new'
p3205
S'JJ'
p3206
F0.9925
tp3207
a(S'emojis'
p3208
S'NNS'
p3209
F0.9597
tp3210
a(g35
g35
F0.9914
tp3211
a(S'good'
p3212
S'JJ'
p3213
F0.9273
tp3214
a(S'job'
p3215
S'NN'
p3216
F0.9406
tp3217
a(S'Apple'
p3218
S'NNP'
p3219
F0.8797
tp3220
ag304
tp3221
a((lp3222
(S'New'
p3223
S'JJ'
p3224
F0.619
tp3225
a(S'update'
p3226
S'NN'
p3227
F0.9936
tp3228
a(S'seems'
p3229
S'VBZ'
p3230
F0.8803
tp3231
a(S'to'
p3232
S'TO'
p3233
F0.9974
tp3234
a(S'be'
p3235
S'VB'
p3236
F0.9992
tp3237
a(S'the'
p3238
S'DT'
p3239
F0.9957
tp3240
a(S'issue'
p3241
S'NN'
p3242
F0.9968
tp3243
a(S'for'
p3244
S'IN'
p3245
F0.9907
tp3246
a(S'many'
p3247
S'JJ'
p3248
F0.4625
tp3249
a(g128
g128
F0.992
tp3250
a(S'Good'
p3251
S'JJ'
p3252
F0.8114
tp3253
a(S'job'
p3254
S'NN'
p3255
F0.993
tp3256
a(g35
g35
F0.9855
tp3257
a(S'Apple'
p3258
S'NNP'
p3259
F0.9872
tp3260
a(g128
g128
F0.9961
tp3261
ag53
tp3262
a((lp3263
(S'Apple'
p3264
S'NNP'
p3265
F0.9095
tp3266
a(S'sucks'
p3267
S'VBZ'
p3268
F0.9767
tp3269
a(S'now'
p3270
S'RB'
p3271
F0.985
tp3272
a(g128
g128
F0.9924
tp3273
a(S'lets'
p3274
S'VBP'
p3275
F0.7662
tp3276
a(S'all'
p3277
S'DT'
p3278
F0.9724
tp3279
a(S'find'
p3280
S'VBP'
p3281
F0.4826
tp3282
a(g144
S'DT'
p3283
F0.9916
tp3284
a(S'new'
p3285
S'JJ'
p3286
F0.9948
tp3287
a(S'company'
p3288
S'NN'
p3289
F0.9807
tp3290
a(S'to'
p3291
S'TO'
p3292
F0.9891
tp3293
a(S'worship'
p3294
S'VB'
p3295
F0.7297
tp3296
ag53
tp3297
a((lp3298
(S'Apple'
p3299
S'NNP'
p3300
F0.9625
tp3301
a(S'Music'
p3302
S'NNP'
p3303
F0.7897
tp3304
a(S'sucks'
p3305
S'VBZ'
p3306
F0.8541
tp3307
a(g128
g128
F0.9965
tp3308
ag53
tp3309
a((lp3310
(S'Apple'
p3311
S'NNP'
p3312
F0.9036
tp3313
a(S'TV'
p3314
S'NNP'
p3315
F0.8267
tp3316
a(S'2015'
p3317
S'CD'
p3318
F0.6965
tp3319
a(S'review'
p3320
S'NN'
p3321
F0.9791
tp3322
a(g5
g5
F0.9695
tp3323
a(S'fast'
p3324
S'RB'
p3325
F0.6323
tp3326
a(S'and'
p3327
S'CC'
p3328
F0.9898
tp3329
a(S'easy'
p3330
S'JJ'
p3331
F0.9097
tp3332
a(S'to'
p3333
S'TO'
p3334
F0.9954
tp3335
a(S'navigate'
p3336
S'VB'
p3337
F0.9865
tp3338
a(g35
g35
F0.9868
tp3339
a(S'but'
p3340
S'CC'
p3341
F0.9939
tp3342
a(S'keyboard'
p3343
S'NN'
p3344
F0.8972
tp3345
a(S'worse'
p3346
S'JJ'
p3347
F0.3493
tp3348
a(g35
g35
F0.9893
tp3349
a(S'Siri'
p3350
S'NNP'
p3351
F0.9995
tp3352
a(S'limited'
p3353
S'JJ'
p3354
F0.3843
tp3355
a(g35
g35
F0.9499
tp3356
a(S'...'
p3357
g5
F0.9779
tp3358
a(S'-'
p3359
g5
F0.8305
tp3360
ag53
tp3361
a((lp3362
(S'Apple'
p3363
S'NNP'
p3364
F0.8509
tp3365
a(S'clearly'
p3366
S'RB'
p3367
F0.9793
tp3368
a(S'had'
p3369
S'VBD'
p3370
F0.9582
tp3371
a(S'an'
p3372
S'DT'
p3373
F0.9828
tp3374
a(S'idiot'
p3375
S'NN'
p3376
F0.9765
tp3377
a(S'in'
p3378
S'IN'
p3379
F0.9831
tp3380
a(S'charge'
p3381
S'NN'
p3382
F0.9445
tp3383
a(S'of'
p3384
S'IN'
p3385
F0.9959
tp3386
a(S'the'
p3387
S'DT'
p3388
F0.9946
tp3389
a(S'new'
p3390
S'JJ'
p3391
F0.9525
tp3392
a(S'font'
p3393
S'NN'
p3394
F0.9658
tp3395
a(g128
g128
F0.9933
tp3396
a(S'Because'
p3397
S'IN'
p3398
F0.9552
tp3399
a(S'it'
p3400
S'PRP'
p3401
F0.9987
tp3402
a(S'sucks'
p3403
S'VBZ'
p3404
F0.9778
tp3405
a(g128
g128
F0.9965
tp3406
ag53
tp3407
a((lp3408
(S'????'
p3409
g128
F0.8961
tp3410
a(S'to'
p3411
S'TO'
p3412
F0.9959
tp3413
a(S'????'
p3414
g128
F0.8503
tp3415
a(S'real'
p3416
S'JJ'
p3417
F0.8846
tp3418
a(S'quick'
p3419
S'JJ'
p3420
F0.6662
tp3421
a(g35
g35
F0.9911
tp3422
a(S'good'
p3423
S'JJ'
p3424
F0.9363
tp3425
a(S'job'
p3426
S'NN'
p3427
F0.9406
tp3428
a(S'Apple'
p3429
S'NNP'
p3430
F0.8557
tp3431
a(g128
g128
F0.9958
tp3432
ag304
tp3433
a((lp3434
(g104
S'PRP'
p3435
F0.9966
tp3436
a(S'was'
p3437
S'VBD'
p3438
F0.9895
tp3439
a(S'looking'
p3440
S'VBG'
p3441
F0.9356
tp3442
a(S'for'
p3443
S'IN'
p3444
F0.987
tp3445
a(g144
S'DT'
p3446
F0.9927
tp3447
a(S'screenshot'
p3448
S'NN'
p3449
F0.966
tp3450
a(S'&'
p3451
S'CC'
p3452
F0.9615
tp3453
a(S'then'
p3454
S'IN'
p3455
F0.5303
tp3456
a(g104
S'PRP'
p3457
F0.997
tp3458
a(S'realized'
p3459
S'VBD'
p3460
F0.7669
tp3461
a(S'Apple'
p3462
S'NNP'
p3463
F0.9657
tp3464
a(S'had'
p3465
S'VBD'
p3466
F0.9479
tp3467
a(S'done'
p3468
S'VBN'
p3469
F0.9714
tp3470
a(S'this'
p3471
S'DT'
p3472
F0.9906
tp3473
a(S'fuckery'
p3474
S'NN'
p3475
F0.8192
tp3476
a(S'and'
p3477
S'CC'
p3478
F0.9944
tp3479
a(S'honestly'
p3480
S'RB'
p3481
F0.991
tp3482
a(S'some'
p3483
S'DT'
p3484
F0.9781
tp3485
a(S'iOS'
p3486
S'NNP'
p3487
F0.8655
tp3488
a(S'updates'
p3489
S'NNS'
p3490
F0.9535
tp3491
a(S'are'
p3492
S'VBP'
p3493
F0.9729
tp3494
a(S'worse'
p3495
S'JJ'
p3496
F0.4705
tp3497
a(S'than'
p3498
S'IN'
p3499
F0.992
tp3500
a(S'tumblr'
p3501
S'NNP'
p3502
F0.5745
tp3503
a(S'updates'
p3504
S'NNS'
p3505
F0.9114
tp3506
ag53
tp3507
a((lp3508
(S'Yeah'
p3509
S'UH'
p3510
F0.9933
tp3511
a(S"I'm"
p3512
S'PRP'
p3513
F0.5309
tp3514
a(S'on'
p3515
S'IN'
p3516
F0.9931
tp3517
a(S'Android'
p3518
S'NNP'
p3519
F0.9903
tp3520
a(S'so'
p3521
S'RB'
p3522
F0.7086
tp3523
a(S"it's"
p3524
S'PRP'
p3525
F0.8024
tp3526
a(S'easy'
p3527
S'JJ'
p3528
F0.9304
tp3529
a(g128
g128
F0.991
tp3530
a(S'Sucks'
p3531
S'VBZ'
p3532
F0.7754
tp3533
a(S'apple'
p3534
S'NN'
p3535
F0.7146
tp3536
a(S"doesn't"
p3537
S'NN'
p3538
F0.3831
tp3539
a(S'allow'
p3540
S'VB'
p3541
F0.8989
tp3542
a(S'apps'
p3543
S'NNS'
p3544
F0.3086
tp3545
a(S'like'
p3546
S'IN'
p3547
F0.9653
tp3548
a(S'that'
p3549
S'DT'
p3550
F0.7258
tp3551
a(S'on'
p3552
S'IN'
p3553
F0.9938
tp3554
a(S'the'
p3555
S'DT'
p3556
F0.9925
tp3557
a(S'app'
p3558
S'NN'
p3559
F0.7445
tp3560
a(S'store'
p3561
S'NN'
p3562
F0.981
tp3563
ag53
tp3564
a((lp3565
(S'(????????)'
p3566
S'UH'
p3567
F0.2066
tp3568
a(S'pinaka'
p3569
S'UH'
p3570
F0.6274
tp3571
a(S'the'
p3572
S'DT'
p3573
F0.9935
tp3574
a(S'best'
p3575
S'JJS'
p3576
F0.9689
tp3577
a(S'na'
p3578
S'NN'
p3579
F0.3428
tp3580
a(S'emoji'
p3581
S'NN'
p3582
F0.9009
tp3583
a(S'hahaha'
p3584
S'UH'
p3585
F0.7359
tp3586
a(S'good'
p3587
S'JJ'
p3588
F0.8891
tp3589
a(S'job'
p3590
S'NN'
p3591
F0.9591
tp3592
a(S'apple'
p3593
S'NN'
p3594
F0.6015
tp3595
a(S'haha'
p3596
S'UH'
p3597
F0.9188
tp3598
ag304
tp3599
a((lp3600
(S'This'
p3601
S'DT'
p3602
F0.9919
tp3603
a(S"apple's"
p3604
S'NNP'
p3605
F0.7348
tp3606
a(S'news'
p3607
S'NN'
p3608
F0.7379
tp3609
a(S'ish'
p3610
S'NN'
p3611
F0.9154
tp3612
a(S'wants'
p3613
S'VBZ'
p3614
F0.9306
tp3615
a(S'to'
p3616
S'TO'
p3617
F0.9984
tp3618
a(S'be'
p3619
S'VB'
p3620
F0.9989
tp3621
a(S'Flipboard'
p3622
S'NNP'
p3623
F0.8491
tp3624
a(S'so'
p3625
S'RB'
p3626
F0.8915
tp3627
a(S'bad'
p3628
S'JJ'
p3629
F0.9901
tp3630
a(S'..'
p3631
g5
F0.9407
tp3632
a(S'But'
p3633
S'CC'
p3634
F0.9399
tp3635
a(S'it'
p3636
S'PRP'
p3637
F0.9981
tp3638
a(S'sucks'
p3639
S'VBZ'
p3640
F0.9908
tp3641
a(S'..'
p3642
g5
F0.9507
tp3643
a(S'The'
p3644
S'DT'
p3645
F0.8382
tp3646
a(S'worst'
p3647
S'JJS'
p3648
F0.6886
tp3649
a(S'part'
p3650
S'NN'
p3651
F0.9963
tp3652
a(S'is'
p3653
S'VBZ'
p3654
F0.9947
tp3655
a(S'you'
p3656
S'PRP'
p3657
F0.9981
tp3658
a(S"can't"
p3659
S'MD'
p3660
F0.8916
tp3661
a(S'delete'
p3662
S'VB'
p3663
F0.9966
tp3664
a(S'it'
p3665
S'PRP'
p3666
F0.9957
tp3667
a(S'????????'
p3668
g128
F0.9639
tp3669
ag53
tp3670
a((lp3671
(S'These'
p3672
S'DT'
p3673
F0.9726
tp3674
a(S'new'
p3675
S'JJ'
p3676
F0.9899
tp3677
a(S'emojis'
p3678
S'NNS'
p3679
F0.9844
tp3680
a(S'are'
p3681
S'VBP'
p3682
F0.9761
tp3683
a(S'cool'
p3684
S'JJ'
p3685
F0.9778
tp3686
a(g35
g35
F0.9897
tp3687
a(S'good'
p3688
S'JJ'
p3689
F0.9363
tp3690
a(S'job'
p3691
S'NN'
p3692
F0.9406
tp3693
a(S'Apple'
p3694
S'NNP'
p3695
F0.8557
tp3696
a(g128
g128
F0.9958
tp3697
ag304
tp3698
a((lp3699
(S"Apple's"
p3700
S'NNP'
p3701
F0.9388
tp3702
a(S'just'
p3703
S'RB'
p3704
F0.9943
tp3705
a(S'not'
p3706
S'RB'
p3707
F0.9982
tp3708
a(S'as'
p3709
S'RB'
p3710
F0.8339
tp3711
a(S'good'
p3712
S'JJ'
p3713
F0.9144
tp3714
a(S'at'
p3715
S'IN'
p3716
F0.9924
tp3717
a(S'supporting'
p3718
S'VBG'
p3719
F0.9606
tp3720
a(S'legacy'
p3721
S'NN'
p3722
F0.9642
tp3723
a(S'hardware'
p3724
S'NN'
p3725
F0.9721
tp3726
a(S'as'
p3727
S'IN'
p3728
F0.9831
tp3729
a(S'they'
p3730
S'PRP'
p3731
F0.964
tp3732
a(S'used'
p3733
S'VBD'
p3734
F0.9821
tp3735
a(S'to'
p3736
S'TO'
p3737
F0.9973
tp3738
a(S'be'
p3739
S'VB'
p3740
F0.998
tp3741
a(g128
g128
F0.9938
tp3742
a(S'Which'
p3743
S'WDT'
p3744
F0.5628
tp3745
a(S'sucks'
p3746
S'VBZ'
p3747
F0.9644
tp3748
a(S'because'
p3749
S'IN'
p3750
F0.9792
tp3751
a(S"we're"
p3752
S'PRP'
p3753
F0.4641
tp3754
a(S'not'
p3755
S'RB'
p3756
F0.9902
tp3757
a(S'all'
p3758
S'DT'
p3759
F0.968
tp3760
a(S'rich'
p3761
S'JJ'
p3762
F0.648
tp3763
a(g128
g128
F0.996
tp3764
ag53
tp3765
a((lp3766
(S'Really'
p3767
S'RB'
p3768
F0.9735
tp3769
a(S'sucks'
p3770
S'VBZ'
p3771
F0.9015
tp3772
a(S'dealing'
p3773
S'VBG'
p3774
F0.978
tp3775
a(S'with'
p3776
S'IN'
p3777
F0.9983
tp3778
a(S'Apple'
p3779
S'NNP'
p3780
F0.9922
tp3781
a(S'customers'
p3782
S'NNS'
p3783
F0.9456
tp3784
a(g128
g128
F0.9944
tp3785
a(S'#AndroidAllDay'
p3786
S'HT'
p3787
F0.9815
tp3788
ag53
tp3789
a((lp3790
(S'RT'
p3791
S'RT'
p3792
F0.9539
tp3793
a(S'Apple'
p3794
S'NNP'
p3795
F0.9877
tp3796
a(S'Music'
p3797
S'NNP'
p3798
F0.5926
tp3799
a(S'sucks'
p3800
S'VBZ'
p3801
F0.9313
tp3802
a(S'and'
p3803
S'CC'
p3804
F0.9916
tp3805
a(S'no'
p3806
S'DT'
p3807
F0.8482
tp3808
a(S'one'
p3809
S'NN'
p3810
F0.7582
tp3811
a(S'can'
p3812
S'MD'
p3813
F0.9866
tp3814
a(S'tell'
p3815
S'VB'
p3816
F0.9991
tp3817
a(S'me'
p3818
S'PRP'
p3819
F0.9971
tp3820
a(S'otherwise'
p3821
S'RB'
p3822
F0.9134
tp3823
ag53
tp3824
a((lp3825
(g104
S'PRP'
p3826
F0.9979
tp3827
a(S'know'
p3828
S'VBP'
p3829
F0.9474
tp3830
a(S'that'
p3831
S'DT'
p3832
F0.6323
tp3833
a(S"I'm"
p3834
S'PRP'
p3835
F0.6959
tp3836
a(g144
S'DT'
p3837
F0.9914
tp3838
a(S'true'
p3839
S'JJ'
p3840
F0.9892
tp3841
a(S'Apple'
p3842
S'NNP'
p3843
F0.9767
tp3844
a(S'Lover'
p3845
S'NNP'
p3846
F0.748
tp3847
a(S'but'
p3848
S'CC'
p3849
F0.9783
tp3850
a(S'those'
p3851
S'DT'
p3852
F0.9765
tp3853
a(S'new'
p3854
S'JJ'
p3855
F0.9927
tp3856
a(S'commercials'
p3857
S'NNS'
p3858
F0.9714
tp3859
a(S'just'
p3860
S'RB'
p3861
F0.9987
tp3862
a(S'sucks'
p3863
S'VBZ'
p3864
F0.8206
tp3865
a(g128
g128
F0.9965
tp3866
ag53
tp3867
a((lp3868
(S'For'
p3869
S'IN'
p3870
F0.9503
tp3871
a(S'once'
p3872
S'RB'
p3873
F0.8096
tp3874
a(g104
S'PRP'
p3875
F0.9938
tp3876
a(S'actually'
p3877
S'RB'
p3878
F0.9981
tp3879
a(S'like'
p3880
S'IN'
p3881
F0.7718
tp3882
a(S'an'
p3883
S'DT'
p3884
F0.9727
tp3885
a(S'update'
p3886
S'NN'
p3887
F0.9923
tp3888
a(S'good'
p3889
S'JJ'
p3890
F0.9592
tp3891
a(S'job'
p3892
S'NN'
p3893
F0.9367
tp3894
a(S'Apple'
p3895
S'NNP'
p3896
F0.8825
tp3897
ag304
tp3898
a((lp3899
(g104
S'PRP'
p3900
F0.9982
tp3901
a(S'guess'
p3902
S'VBP'
p3903
F0.9921
tp3904
a(S'if'
p3905
S'IN'
p3906
F0.9873
tp3907
a(S'you'
p3908
S'PRP'
p3909
F0.9991
tp3910
a(S'hadnt'
p3911
S'VBP'
p3912
F0.5683
tp3913
a(S'used'
p3914
S'VBD'
p3915
F0.7636
tp3916
a(S'Zite'
p3917
S'NNP'
p3918
F0.7439
tp3919
a(g35
g35
F0.9909
tp3920
a(S'you'
p3921
S'PRP'
p3922
F0.9955
tp3923
a(S'wouldnt'
p3924
S'VBP'
p3925
F0.5829
tp3926
a(S'know'
p3927
S'VB'
p3928
F0.8679
tp3929
a(S'how'
p3930
S'WRB'
p3931
F0.9296
tp3932
a(S'much'
p3933
S'RB'
p3934
F0.5273
tp3935
a(S'the'
p3936
S'DT'
p3937
F0.9759
tp3938
a(S'Apple'
p3939
S'NNP'
p3940
F0.9962
tp3941
a(S'News'
p3942
S'NNP'
p3943
F0.8531
tp3944
a(S'app'
p3945
S'NNP'
p3946
F0.5136
tp3947
a(S'sucks'
p3948
S'VBZ'
p3949
F0.8984
tp3950
a(g2391
g128
F0.9956
tp3951
ag53
tp3952
a((lp3953
(S'And'
p3954
S'CC'
p3955
F0.9957
tp3956
a(g104
S'PRP'
p3957
F0.9958
tp3958
a(S'mean'
p3959
S'VBP'
p3960
F0.7877
tp3961
a(S'the'
p3962
S'DT'
p3963
F0.9935
tp3964
a(S'MBP'
p3965
S'NNP'
p3966
F0.6272
tp3967
a(g104
S'PRP'
p3968
F0.9875
tp3969
a(S'bought'
p3970
S'VBD'
p3971
F0.9468
tp3972
a(S'is'
p3973
S'VBZ'
p3974
F0.9801
tp3975
a(S'only'
p3976
S'RB'
p3977
F0.9118
tp3978
a(S'the'
p3979
S'DT'
p3980
F0.9916
tp3981
a(S'13'
p3982
S'CD'
p3983
F0.9608
tp3984
a(S'inch'
p3985
S'NN'
p3986
F0.9743
tp3987
a(S'I5'
p3988
S'CD'
p3989
F0.2161
tp3990
a(S'Retina'
p3991
S'NNP'
p3992
F0.6698
tp3993
a(S'display'
p3994
S'NN'
p3995
F0.898
tp3996
a(S'with'
p3997
S'IN'
p3998
F0.9988
tp3999
a(g144
S'DT'
p4000
F0.9905
tp4001
a(S'128GB'
p4002
S'NNP'
p4003
F0.583
tp4004
a(S'SSD'
p4005
S'NNP'
p4006
F0.9518
tp4007
a(g128
g128
F0.9947
tp4008
a(S'Not'
p4009
S'RB'
p4010
F0.9899
tp4011
a(S'really'
p4012
S'RB'
p4013
F0.9946
tp4014
a(S'impressive'
p4015
S'JJ'
p4016
F0.9814
tp4017
a(S'in'
p4018
S'IN'
p4019
F0.9859
tp4020
a(S'specs'
p4021
S'NNS'
p4022
F0.9551
tp4023
a(g128
g128
F0.9948
tp4024
a(S'Good'
p4025
S'JJ'
p4026
F0.8091
tp4027
a(S'machine'
p4028
S'NN'
p4029
F0.9961
tp4030
a(S'though'
p4031
S'RB'
p4032
F0.6037
tp4033
ag304
tp4034
a((lp4035
(S'New'
p4036
S'JJ'
p4037
F0.8923
tp4038
a(S'emojis'
p4039
S'NNS'
p4040
F0.969
tp4041
a(S'!!'
p4042
g128
F0.9764
tp4043
a(S'Here'
p4044
S'RB'
p4045
F0.9375
tp4046
a(S'are'
p4047
S'VBP'
p4048
F0.9454
tp4049
a(S'my'
p4050
S'PRP$'
p4051
F0.9907
tp4052
a(S'favs'
p4053
S'NNS'
p4054
F0.9253
tp4055
a(g5
g5
F0.9717
tp4056
a(S'????????????????????????????...'
p4057
g5
F0.174
tp4058
a(S'And'
p4059
S'CC'
p4060
F0.9814
tp4061
a(S"there's"
p4062
S'RB'
p4063
F0.1817
tp4064
a(S'FINALLY'
p4065
S'RB'
p4066
F0.9753
tp4067
a(g144
S'DT'
p4068
F0.991
tp4069
a(S'taco'
p4070
S'NN'
p4071
F0.899
tp4072
a(S'emoji'
p4073
S'NN'
p4074
F0.8955
tp4075
a(g293
g128
F0.9892
tp4076
a(S'????'
p4077
g128
F0.9235
tp4078
a(S'Good'
p4079
S'JJ'
p4080
F0.8719
tp4081
a(S'job'
p4082
S'NN'
p4083
F0.993
tp4084
a(g35
g35
F0.9871
tp4085
a(S'Apple'
p4086
S'NNP'
p4087
F0.9881
tp4088
a(g128
g128
F0.9925
tp4089
a(S'Nice'
p4090
S'JJ'
p4091
F0.6405
tp4092
a(S'update'
p4093
S'NN'
p4094
F0.9926
tp4095
a(g128
g128
F0.9941
tp4096
ag304
tp4097
a((lp4098
(g104
S'PRP'
p4099
F0.9965
tp4100
a(S'love'
p4101
S'VBP'
p4102
F0.9933
tp4103
a(S'not'
p4104
S'RB'
p4105
F0.9929
tp4106
a(S'having'
p4107
S'VBG'
p4108
F0.9855
tp4109
a(g144
S'DT'
p4110
F0.9966
tp4111
a(S'phone'
p4112
S'NN'
p4113
F0.9966
tp4114
a(S'because'
p4115
S'IN'
p4116
F0.9901
tp4117
a(S'apple'
p4118
S'NN'
p4119
F0.5194
tp4120
a(S'sucks'
p4121
S'VBZ'
p4122
F0.9744
tp4123
ag53
tp4124
a((lp4125
(S'Most'
p4126
S'JJS'
p4127
F0.6942
tp4128
a(S'awaited'
p4129
S'NN'
p4130
F0.833
tp4131
a(S'feature'
p4132
S'NN'
p4133
F0.9684
tp4134
a(S'from'
p4135
S'IN'
p4136
F0.999
tp4137
a(S'Apple'
p4138
S'NNP'
p4139
F0.9892
tp4140
a(S':P'
p4141
S'UH'
p4142
F0.9522
tp4143
a(S'..'
p4144
g5
F0.9643
tp4145
a(S'nonetheless'
p4146
S'RB'
p4147
F0.9875
tp4148
a(S'good'
p4149
S'JJ'
p4150
F0.9896
tp4151
a(S'job'
p4152
S'NN'
p4153
F0.9821
tp4154
ag304
tp4155
a((lp4156
(S'Suing'
p4157
S'VBG'
p4158
F0.9882
tp4159
a(S'Apple'
p4160
S'NNP'
p4161
F0.9177
tp4162
a(S'because'
p4163
S'IN'
p4164
F0.9828
tp4165
a(S'my'
p4166
S'PRP$'
p4167
F0.9912
tp4168
a(S'phone'
p4169
S'NN'
p4170
F0.9958
tp4171
a(S'sucks'
p4172
S'VBZ'
p4173
F0.9684
tp4174
a(S'after'
p4175
S'IN'
p4176
F0.9918
tp4177
a(S'the'
p4178
S'DT'
p4179
F0.9891
tp4180
a(S'update'
p4181
S'NN'
p4182
F0.995
tp4183
a(S'and'
p4184
S'CC'
p4185
F0.9946
tp4186
a(S'my'
p4187
S'PRP$'
p4188
F0.9927
tp4189
a(S'phone'
p4190
S'NN'
p4191
F0.9962
tp4192
a(S"isn't"
p4193
S'VBD'
p4194
F0.3844
tp4195
a(S'even'
p4196
S'RB'
p4197
F0.9876
tp4198
a(S'old'
p4199
S'JJ'
p4200
F0.9717
tp4201
a(S'??????'
p4202
g128
F0.9704
tp4203
ag53
tp4204
a((lp4205
(S'got'
p4206
S'VBD'
p4207
F0.792
tp4208
a(g144
S'DT'
p4209
F0.996
tp4210
a(S'retina'
p4211
S'NN'
p4212
F0.9805
tp4213
a(S'iMac'
p4214
S'NN'
p4215
F0.4561
tp4216
a(S'which'
p4217
S'WDT'
p4218
F0.8929
tp4219
a(S'is'
p4220
S'VBZ'
p4221
F0.9932
tp4222
a(S'apparently'
p4223
S'RB'
p4224
F0.9937
tp4225
a(S'above'
p4226
S'IN'
p4227
F0.9441
tp4228
a(S'normal'
p4229
S'JJ'
p4230
F0.938
tp4231
a(S'contents'
p4232
S'NN'
p4233
F0.5582
tp4234
a(S'value'
p4235
S'NN'
p4236
F0.9746
tp4237
a(g128
g128
F0.9947
tp4238
a(g104
S'PRP'
p4239
F0.9951
tp4240
a(S'weep'
p4241
S'VBP'
p4242
F0.6911
tp4243
a(g128
g128
F0.9914
tp4244
a(S'Good'
p4245
S'JJ'
p4246
F0.7626
tp4247
a(S'point'
p4248
S'NN'
p4249
F0.9796
tp4250
a(S'about'
p4251
S'IN'
p4252
F0.9917
tp4253
a(S'the'
p4254
S'DT'
p4255
F0.9961
tp4256
a(S'MBP/DSLR'
p4257
S'NN'
p4258
F0.5543
tp4259
a(S'as'
p4260
S'IN'
p4261
F0.9207
tp4262
a(S'well'
p4263
S'RB'
p4264
F0.7826
tp4265
a(g128
g128
F0.9956
tp4266
ag304
tp4267
a((lp4268
(g104
S'PRP'
p4269
F0.9951
tp4270
a(S'rlly'
p4271
S'RB'
p4272
F0.4777
tp4273
a(S'love'
p4274
S'VBP'
p4275
F0.5714
tp4276
a(S'apple'
p4277
S'NNP'
p4278
F0.3484
tp4279
a(S'but'
p4280
S'CC'
p4281
F0.983
tp4282
a(S'this'
p4283
S'DT'
p4284
F0.972
tp4285
a(S'sucks'
p4286
S'VBZ'
p4287
F0.9347
tp4288
ag53
tp4289
a((lp4290
(g104
S'PRP'
p4291
F0.992
tp4292
a(S'use'
p4293
S'VBP'
p4294
F0.9692
tp4295
a(S'my'
p4296
S'PRP$'
p4297
F0.9902
tp4298
a(S'iPad'
p4299
S'NNP'
p4300
F0.6749
tp4301
a(S'24/7'
p4302
S'NN'
p4303
F0.2898
tp4304
a(S'but'
p4305
S'CC'
p4306
F0.9922
tp4307
a(g104
S'PRP'
p4308
F0.9981
tp4309
a(S'hate'
p4310
S'VBP'
p4311
F0.9975
tp4312
a(S'how'
p4313
S'WRB'
p4314
F0.9649
tp4315
a(S'you'
p4316
S'PRP'
p4317
F0.9985
tp4318
a(S"can't"
p4319
S'MD'
p4320
F0.8823
tp4321
a(S'expand'
p4322
S'VB'
p4323
F0.9879
tp4324
a(S'memory'
p4325
S'NN'
p4326
F0.973
tp4327
a(S'on'
p4328
S'IN'
p4329
F0.9983
tp4330
a(S'Apple'
p4331
S'NNP'
p4332
F0.9909
tp4333
a(S'devices'
p4334
S'NNS'
p4335
F0.8188
tp4336
a(S'it'
p4337
S'PRP'
p4338
F0.9958
tp4339
a(S'sucks'
p4340
S'VBZ'
p4341
F0.9849
tp4342
a(g293
g128
F0.9911
tp4343
a(S':('
p4344
S'UH'
p4345
F0.9959
tp4346
ag53
tp4347
a((lp4348
(S'Biggest'
p4349
S'JJS'
p4350
F0.6649
tp4351
a(S'pet'
p4352
S'NN'
p4353
F0.9669
tp4354
a(S'peeve'
p4355
S'NN'
p4356
F0.9362
tp4357
a(S'with'
p4358
S'IN'
p4359
F0.9987
tp4360
a(S'Apple'
p4361
S'NNP'
p4362
F0.994
tp4363
a(S'is'
p4364
S'VBZ'
p4365
F0.9938
tp4366
a(S'its'
p4367
S'PRP'
p4368
F0.4909
tp4369
a(S'widgets'
p4370
S'NNS'
p4371
F0.9937
tp4372
a(S'suck'
p4373
S'VBP'
p4374
F0.489
tp4375
a(S'...'
p4376
g5
F0.9964
tp4377
a(S'Maps'
p4378
S'NNS'
p4379
F0.7111
tp4380
a(S'sucks'
p4381
S'VBZ'
p4382
F0.9069
tp4383
a(g128
g128
F0.9913
tp4384
a(S'Weather'
p4385
S'NNP'
p4386
F0.4956
tp4387
a(S'sucks'
p4388
S'VBZ'
p4389
F0.8505
tp4390
a(g128
g128
F0.9937
tp4391
a(S'News'
p4392
S'NN'
p4393
F0.3379
tp4394
a(S'sucks'
p4395
S'VBZ'
p4396
F0.9264
tp4397
a(S'...'
p4398
g5
F0.9942
tp4399
a(S'Devs'
p4400
S'NNS'
p4401
F0.9723
tp4402
a(S'need'
p4403
S'VBP'
p4404
F0.9909
tp4405
a(S'to'
p4406
S'TO'
p4407
F0.9978
tp4408
a(S'step'
p4409
S'VB'
p4410
F0.989
tp4411
a(S'it'
p4412
S'PRP'
p4413
F0.9943
tp4414
a(S'up'
p4415
S'RP'
p4416
F0.9559
tp4417
ag53
tp4418
a((lp4419
(S'RT'
p4420
S'RT'
p4421
F0.9657
tp4422
a(S'wow'
p4423
S'UH'
p4424
F0.8904
tp4425
a(S'all'
p4426
S'DT'
p4427
F0.9762
tp4428
a(S'these'
p4429
S'DT'
p4430
F0.9846
tp4431
a(S'new'
p4432
S'JJ'
p4433
F0.9918
tp4434
a(S'emojis'
p4435
S'NNS'
p4436
F0.9836
tp4437
a(S'are'
p4438
S'VBP'
p4439
F0.9763
tp4440
a(S'great'
p4441
S'JJ'
p4442
F0.9852
tp4443
a(g128
g128
F0.9914
tp4444
a(S'good'
p4445
S'JJ'
p4446
F0.8735
tp4447
a(S'job'
p4448
S'NN'
p4449
F0.9393
tp4450
a(S'Apple'
p4451
S'NNP'
p4452
F0.8916
tp4453
ag304
tp4454
a((lp4455
(S'So'
p4456
S'RB'
p4457
F0.4741
tp4458
a(S'basically'
p4459
S'RB'
p4460
F0.9978
tp4461
a(S'with'
p4462
S'IN'
p4463
F0.9987
tp4464
a(S'the'
p4465
S'DT'
p4466
F0.997
tp4467
a(S'6S'
p4468
S'NNS'
p4469
F0.7901
tp4470
a(S'hardly'
p4471
S'RB'
p4472
F0.9878
tp4473
a(S'anything'
p4474
S'NN'
p4475
F0.8965
tp4476
a(S'has'
p4477
S'VBZ'
p4478
F0.979
tp4479
a(S'changed'
p4480
S'VBN'
p4481
F0.8347
tp4482
a(g128
g128
F0.9941
tp4483
a(S'Good'
p4484
S'JJ'
p4485
F0.8114
tp4486
a(S'job'
p4487
S'NN'
p4488
F0.9592
tp4489
a(S'Apple'
p4490
S'NNP'
p4491
F0.8614
tp4492
a(S'????'
p4493
g128
F0.9735
tp4494
ag53
tp4495
a((lp4496
(S'RT'
p4497
S'RT'
p4498
F0.9646
tp4499
a(S'One'
p4500
S'CD'
p4501
F0.9107
tp4502
a(S'thing'
p4503
S'NN'
p4504
F0.942
tp4505
a(S'apple'
p4506
S'NN'
p4507
F0.6245
tp4508
a(S'just'
p4509
S'RB'
p4510
F0.998
tp4511
a(S"can't"
p4512
S'MD'
p4513
F0.9253
tp4514
a(S'get'
p4515
S'VB'
p4516
F0.9952
tp4517
a(S'right'
p4518
S'RB'
p4519
F0.857
tp4520
a(S'is'
p4521
S'VBZ'
p4522
F0.9928
tp4523
a(S'the'
p4524
S'DT'
p4525
F0.9967
tp4526
a(S'search'
p4527
S'NN'
p4528
F0.9889
tp4529
a(S'on'
p4530
S'IN'
p4531
F0.9963
tp4532
a(S'ya'
p4533
S'PRP$'
p4534
F0.8081
tp4535
a(S'iPhone'
p4536
S'NNP'
p4537
F0.546
tp4538
a(g128
g128
F0.9954
tp4539
a(S'This'
p4540
S'DT'
p4541
F0.9899
tp4542
a(S'new'
p4543
S'JJ'
p4544
F0.9879
tp4545
a(S'search'
p4546
S'NN'
p4547
F0.9942
tp4548
a(S'in'
p4549
S'IN'
p4550
F0.9942
tp4551
a(S'ya'
p4552
S'PRP$'
p4553
F0.628
tp4554
a(S'email'
p4555
S'NN'
p4556
F0.9157
tp4557
a(S'just'
p4558
S'RB'
p4559
F0.9983
tp4560
a(S'makes'
p4561
S'VBZ'
p4562
F0.9008
tp4563
a(S'things'
p4564
S'NNS'
p4565
F0.9756
tp4566
a(S'worse'
p4567
S'JJ'
p4568
F0.4633
tp4569
ag53
tp4570
a((lp4571
(S'my'
p4572
S'PRP$'
p4573
F0.978
tp4574
a(S'brand'
p4575
S'NN'
p4576
F0.9429
tp4577
a(S'new'
p4578
S'JJ'
p4579
F0.9573
tp4580
a(S'macbook'
p4581
S'NN'
p4582
F0.9478
tp4583
a(S'pro'
p4584
S'NN'
p4585
F0.9221
tp4586
a(S'is'
p4587
S'VBZ'
p4588
F0.9861
tp4589
a(S'making'
p4590
S'VBG'
p4591
F0.9941
tp4592
a(S'such'
p4593
S'JJ'
p4594
F0.8657
tp4595
a(S'loud'
p4596
S'JJ'
p4597
F0.9493
tp4598
a(S'noises'
p4599
S'NNS'
p4600
F0.9891
tp4601
a(g35
g35
F0.9903
tp4602
a(S'overheating'
p4603
S'VBG'
p4604
F0.8961
tp4605
a(g35
g35
F0.9892
tp4606
a(S'and'
p4607
S'CC'
p4608
F0.9983
tp4609
a(S"won't"
p4610
S'MD'
p4611
F0.497
tp4612
a(S'turn'
p4613
S'VB'
p4614
F0.9593
tp4615
a(S'on'
p4616
S'IN'
p4617
F0.9429
tp4618
a(S'..'
p4619
g5
F0.6164
tp4620
a(S'im'
p4621
S'PRP'
p4622
F0.9776
tp4623
a(S'definitely'
p4624
S'RB'
p4625
F0.9992
tp4626
a(S'cursed'
p4627
S'VBD'
p4628
F0.7155
tp4629
a(S'when'
p4630
S'WRB'
p4631
F0.9868
tp4632
a(S'it'
p4633
S'PRP'
p4634
F0.9993
tp4635
a(S'comes'
p4636
S'VBZ'
p4637
F0.9805
tp4638
a(S'to'
p4639
S'TO'
p4640
F0.9813
tp4641
a(S'technology'
p4642
S'NN'
p4643
F0.7512
tp4644
a(S'????????'
p4645
g128
F0.9808
tp4646
ag53
tp4647
a((lp4648
(S'these'
p4649
S'DT'
p4650
F0.9738
tp4651
a(S'new'
p4652
S'JJ'
p4653
F0.9808
tp4654
a(S'macbook'
p4655
S'NN'
p4656
F0.9513
tp4657
a(S'airs'
p4658
S'VBZ'
p4659
F0.8839
tp4660
a(S'loud'
p4661
S'JJ'
p4662
F0.6362
tp4663
a(S'as'
p4664
S'IN'
p4665
F0.8935
tp4666
a(S'fuck'
p4667
S'VB'
p4668
F0.451
tp4669
a(S'...'
p4670
g5
F0.9974
tp4671
a(S'jesus'
p4672
S'NNP'
p4673
F0.541
tp4674
ag53
tp4675
a((lp4676
(S"I'm"
p4677
S'PRP'
p4678
F0.8454
tp4679
a(S'thinking'
p4680
S'VBG'
p4681
F0.9808
tp4682
a(S'of'
p4683
S'IN'
p4684
F0.9902
tp4685
a(S'changing'
p4686
S'VBG'
p4687
F0.9965
tp4688
a(S'my'
p4689
S'PRP$'
p4690
F0.9892
tp4691
a(S'#Apple'
p4692
S'HT'
p4693
F0.8616
tp4694
a(S'#iPhone'
p4695
S'HT'
p4696
F0.8572
tp4697
a(S'for'
p4698
S'IN'
p4699
F0.9982
tp4700
a(S'#Samsung'
p4701
S'NNP'
p4702
F0.5075
tp4703
a(S'#Galaxy'
p4704
S'HT'
p4705
F0.4667
tp4706
a(g128
g128
F0.9947
tp4707
a(S'????????'
p4708
g128
F0.9151
tp4709
a(S'Apple'
p4710
S'NNP'
p4711
F0.8594
tp4712
a(S'it'
p4713
S'PRP'
p4714
F0.9969
tp4715
a(S'sucks'
p4716
S'VBZ'
p4717
F0.9937
tp4718
a(S'.????'
p4719
g128
F0.9571
tp4720
ag53
tp4721
a((lp4722
(S"That's"
p4723
S'DT'
p4724
F0.566
tp4725
a(S'whay'
p4726
S'WP'
p4727
F0.3931
tp4728
a(S'Apple'
p4729
S'NNP'
p4730
F0.9711
tp4731
a(S'sucks'
p4732
S'VBZ'
p4733
F0.9566
tp4734
a(S'...'
p4735
g5
F0.9921
tp4736
ag53
tp4737
a((lp4738
(S'Updated'
p4739
S'VBN'
p4740
F0.4894
tp4741
a(S'to'
p4742
S'TO'
p4743
F0.9932
tp4744
a(S'OSX'
p4745
S'NNP'
p4746
F0.9822
tp4747
a(S'El'
p4748
S'NNP'
p4749
F0.9973
tp4750
a(S'Capitan'
p4751
S'NNP'
p4752
F0.998
tp4753
a(S'my'
p4754
S'PRP$'
p4755
F0.9834
tp4756
a(S'good'
p4757
S'JJ'
p4758
F0.9622
tp4759
a(S'old'
p4760
S'JJ'
p4761
F0.9185
tp4762
a(S'MBP'
p4763
S'NN'
p4764
F0.4882
tp4765
a(g128
g128
F0.9941
tp4766
a(S'Super'
p4767
S'RB'
p4768
F0.588
tp4769
a(S'speedy'
p4770
S'JJ'
p4771
F0.5489
tp4772
a(S'compared'
p4773
S'VBN'
p4774
F0.5757
tp4775
a(S'to'
p4776
S'TO'
p4777
F0.9879
tp4778
a(S'Yosemite'
p4779
S'NNP'
p4780
F0.9985
tp4781
a(g35
g35
F0.9857
tp4782
a(S'thanks'
p4783
S'UH'
p4784
F0.5496
tp4785
a(S'Apple'
p4786
S'NNP'
p4787
F0.9647
tp4788
a(S'for'
p4789
S'IN'
p4790
F0.9825
tp4791
a(S'taking'
p4792
S'VBG'
p4793
F0.9886
tp4794
a(S'care'
p4795
S'NN'
p4796
F0.4039
tp4797
a(S'of'
p4798
S'IN'
p4799
F0.9674
tp4800
a(S'good'
p4801
S'JJ'
p4802
F0.9626
tp4803
a(S'old'
p4804
S'JJ'
p4805
F0.9463
tp4806
a(S'hardware'
p4807
S'NN'
p4808
F0.9737
tp4809
a(S'too'
p4810
S'RB'
p4811
F0.9508
tp4812
a(g293
g128
F0.993
tp4813
ag304
tp4814
a((lp4815
(S'These'
p4816
S'DT'
p4817
F0.9726
tp4818
a(S'new'
p4819
S'JJ'
p4820
F0.9899
tp4821
a(S'emojis'
p4822
S'NNS'
p4823
F0.962
tp4824
a(g35
g35
F0.9915
tp4825
a(S'good'
p4826
S'JJ'
p4827
F0.9387
tp4828
a(S'job'
p4829
S'NN'
p4830
F0.9421
tp4831
a(S'Apple'
p4832
S'NNP'
p4833
F0.9086
tp4834
ag304
tp4835
a((lp4836
(S'Apple'
p4837
S'NNP'
p4838
F0.8807
tp4839
a(S'support'
p4840
S'NN'
p4841
F0.6291
tp4842
a(S'sucks'
p4843
S'VBZ'
p4844
F0.9568
tp4845
ag53
tp4846
a((lp4847
(S'????????????????????????????????????????????'
p4848
S'NNP'
p4849
F0.2092
tp4850
a(S'<-----'
p4851
S'SYM'
p4852
F0.2873
tp4853
a(S'good'
p4854
S'JJ'
p4855
F0.9663
tp4856
a(S'job'
p4857
S'NN'
p4858
F0.9502
tp4859
a(S'apple'
p4860
S'NN'
p4861
F0.794
tp4862
a(g35
g35
F0.9914
tp4863
a(S'new'
p4864
S'JJ'
p4865
F0.9681
tp4866
a(S'emoji'
p4867
S'NN'
p4868
F0.7475
tp4869
a(S'lol'
p4870
S'UH'
p4871
F0.9414
tp4872
a(S'????????????'
p4873
g128
F0.9115
tp4874
ag304
tp4875
a((lp4876
(g104
S'PRP'
p4877
F0.9939
tp4878
a(S"haven't"
p4879
S'VBP'
p4880
F0.8039
tp4881
a(S'charged'
p4882
S'VBN'
p4883
F0.491
tp4884
a(S'my'
p4885
S'PRP$'
p4886
F0.9967
tp4887
a(S'phone'
p4888
S'NN'
p4889
F0.9961
tp4890
a(S'since'
p4891
S'IN'
p4892
F0.9792
tp4893
a(S'9'
p4894
S'CD'
p4895
F0.9857
tp4896
a(S'this'
p4897
S'DT'
p4898
F0.998
tp4899
a(S'morning'
p4900
S'NN'
p4901
F0.9888
tp4902
a(S'..'
p4903
g5
F0.9452
tp4904
a(S"It's"
p4905
S'PRP'
p4906
F0.8497
tp4907
a(S'now'
p4908
S'RB'
p4909
F0.9983
tp4910
a(S'on'
p4911
S'IN'
p4912
F0.9898
tp4913
a(S'50%'
p4914
S'CD'
p4915
F0.8322
tp4916
a(S'and'
p4917
S'CC'
p4918
F0.9939
tp4919
a(S'it'
p4920
S'PRP'
p4921
F0.9941
tp4922
a(S"wasn't"
p4923
S'VBD'
p4924
F0.5193
tp4925
a(S'even'
p4926
S'RB'
p4927
F0.9933
tp4928
a(S'fully'
p4929
S'RB'
p4930
F0.9533
tp4931
a(S'charged'
p4932
S'VBN'
p4933
F0.5321
tp4934
a(S'when'
p4935
S'WRB'
p4936
F0.9883
tp4937
a(g104
S'PRP'
p4938
F0.9985
tp4939
a(S'left'
p4940
S'VBD'
p4941
F0.8572
tp4942
a(S'..'
p4943
g5
F0.9321
tp4944
a(S'Good'
p4945
S'JJ'
p4946
F0.7027
tp4947
a(S'job'
p4948
S'NN'
p4949
F0.9802
tp4950
a(S'apple'
p4951
S'NN'
p4952
F0.7837
tp4953
ag304
tp4954
a((lp4955
(S'Why'
p4956
S'WRB'
p4957
F0.9346
tp4958
a(S'Apple'
p4959
S'NNP'
p4960
F0.9818
tp4961
a(S'FUSION'
p4962
S'NNP'
p4963
F0.7198
tp4964
a(S'DRIVE'
p4965
S'NN'
p4966
F0.6427
tp4967
a(S'is'
p4968
S'VBZ'
p4969
F0.9901
tp4970
a(S'becoming'
p4971
S'VBG'
p4972
F0.9961
tp4973
a(S'worse'
p4974
S'JJ'
p4975
F0.4179
tp4976
a(S'than'
p4977
S'IN'
p4978
F0.9764
tp4979
a(S'ever'
p4980
S'RB'
p4981
F0.9596
tp4982
a(g2391
g128
F0.9928
tp4983
ag53
tp4984
a((lp4985
(S"There's"
p4986
S'EX'
p4987
F0.1884
tp4988
a(S'finally'
p4989
S'RB'
p4990
F0.9752
tp4991
a(g144
S'DT'
p4992
F0.9969
tp4993
a(S'bed'
p4994
S'NN'
p4995
F0.9867
tp4996
a(S'emoji'
p4997
S'NN'
p4998
F0.7843
tp4999
a(g293
g128
F0.9892
tp5000
a(S'????????'
p5001
g128
F0.9236
tp5002
a(S'Good'
p5003
S'JJ'
p5004
F0.8727
tp5005
a(S'job'
p5006
S'NN'
p5007
F0.9722
tp5008
a(S'apple'
p5009
S'NN'
p5010
F0.7087
tp5011
ag304
tp5012
a((lp5013
(S'oh'
p5014
S'UH'
p5015
F0.9966
tp5016
a(S'gosh'
p5017
S'UH'
p5018
F0.9998
tp5019
a(g293
g128
F0.9848
tp5020
a(S'But'
p5021
S'CC'
p5022
F0.9659
tp5023
a(S'good'
p5024
S'JJ'
p5025
F0.969
tp5026
a(S'job'
p5027
S'NN'
p5028
F0.9875
tp5029
a(S'to'
p5030
S'TO'
p5031
F0.9758
tp5032
a(S'Apple'
p5033
S'NNP'
p5034
F0.9528
tp5035
a(g293
g128
F0.9949
tp5036
ag304
tp5037
a((lp5038
(g104
S'PRP'
p5039
F0.9981
tp5040
a(S'liked'
p5041
S'VBD'
p5042
F0.966
tp5043
a(g144
S'DT'
p5044
F0.9957
tp5045
a(S'video'
p5046
S'NN'
p5047
F0.9852
tp5048
a(S'APPLE'
p5049
S'NNP'
p5050
F0.7297
tp5051
a(S'WATCH'
p5052
S'VBP'
p5053
F0.315
tp5054
a(S'SUCKS'
p5055
S'VBZ'
p5056
F0.8058
tp5057
ag53
tp5058
a((lp5059
(S'7'
p5060
S'CD'
p5061
F0.9764
tp5062
a(S'yrs'
p5063
S'NNS'
p5064
F0.9632
tp5065
a(S'though'
p5066
S'IN'
p5067
F0.6515
tp5068
a(S'man'
p5069
S'NN'
p5070
F0.7715
tp5071
a(g293
g128
F0.9933
tp5072
a(S'Gotta'
p5073
S'VBP'
p5074
F0.4919
tp5075
a(S'love'
p5076
S'VB'
p5077
F0.8127
tp5078
a(S'Apple'
p5079
S'NNP'
p5080
F0.9683
tp5081
a(g128
g128
F0.99
tp5082
a(S'Products'
p5083
S'NNS'
p5084
F0.8674
tp5085
a(S'usually'
p5086
S'RB'
p5087
F0.9892
tp5088
a(S'last'
p5089
S'JJ'
p5090
F0.9003
tp5091
a(S'so'
p5092
S'RB'
p5093
F0.9162
tp5094
a(S'long'
p5095
S'JJ'
p5096
F0.5887
tp5097
a(g128
g128
F0.9908
tp5098
a(S'My'
p5099
S'PRP$'
p5100
F0.9737
tp5101
a(S'MBP'
p5102
S'NN'
p5103
F0.6404
tp5104
a(S"isn't"
p5105
S'VBD'
p5106
F0.4171
tp5107
a(S'mad'
p5108
S'JJ'
p5109
F0.9257
tp5110
a(S'high'
p5111
S'JJ'
p5112
F0.8149
tp5113
a(S'specs'
p5114
S'NNS'
p5115
F0.9574
tp5116
a(S'but'
p5117
S'CC'
p5118
F0.9754
tp5119
a(S'is'
p5120
S'VBZ'
p5121
F0.976
tp5122
a(S'in'
p5123
S'IN'
p5124
F0.9424
tp5125
a(S'good'
p5126
S'JJ'
p5127
F0.9613
tp5128
a(S'nick'
p5129
S'NNP'
p5130
F0.637
tp5131
a(S'after'
p5132
S'IN'
p5133
F0.9923
tp5134
a(S'the'
p5135
S'DT'
p5136
F0.9965
tp5137
a(S'years'
p5138
S'NNS'
p5139
F0.989
tp5140
ag304
tp5141
a((lp5142
(S'Apple'
p5143
S'NNP'
p5144
F0.9095
tp5145
a(S'sucks'
p5146
S'VBZ'
p5147
F0.92
tp5148
a(g128
g128
F0.9928
tp5149
a(S'Apple'
p5150
S'NNP'
p5151
F0.9162
tp5152
a(S'customer'
p5153
S'NN'
p5154
F0.9231
tp5155
a(S'service'
p5156
S'NN'
p5157
F0.9857
tp5158
a(S'sucks'
p5159
S'VBZ'
p5160
F0.924
tp5161
a(g128
g128
F0.9927
tp5162
a(S'The'
p5163
S'DT'
p5164
F0.9524
tp5165
a(S'genius'
p5166
S'NN'
p5167
F0.8207
tp5168
a(S'bar'
p5169
S'NN'
p5170
F0.9961
tp5171
a(S'is'
p5172
S'VBZ'
p5173
F0.9912
tp5174
a(S'filled'
p5175
S'VBN'
p5176
F0.8666
tp5177
a(S'with'
p5178
S'IN'
p5179
F0.9947
tp5180
a(S'idiots'
p5181
S'NNS'
p5182
F0.9568
tp5183
ag53
tp5184
a((lp5185
(S'Apple'
p5186
S'NNP'
p5187
F0.9012
tp5188
a(S'weather'
p5189
S'NN'
p5190
F0.8871
tp5191
a(S'app'
p5192
S'NN'
p5193
F0.8711
tp5194
a(S'sucks'
p5195
S'VBZ'
p5196
F0.9471
tp5197
ag53
tp5198
a((lp5199
(S'This'
p5200
S'DT'
p5201
F0.978
tp5202
a(S'is'
p5203
S'VBZ'
p5204
F0.9915
tp5205
a(S'one'
p5206
S'CD'
p5207
F0.9712
tp5208
a(S'time'
p5209
S'NN'
p5210
F0.96
tp5211
a(g104
S'PRP'
p5212
F0.9901
tp5213
a(S'actually'
p5214
S'RB'
p5215
F0.9932
tp5216
a(S'approve'
p5217
S'VB'
p5218
F0.6309
tp5219
a(S'of'
p5220
S'IN'
p5221
F0.9839
tp5222
a(S'an'
p5223
S'DT'
p5224
F0.9564
tp5225
a(S'update'
p5226
S'NN'
p5227
F0.9971
tp5228
a(S'from'
p5229
S'IN'
p5230
F0.9987
tp5231
a(S'Apple'
p5232
S'NNP'
p5233
F0.9979
tp5234
a(S'Inc'
p5235
S'NNP'
p5236
F0.995
tp5237
a(g35
g35
F0.9897
tp5238
a(S'good'
p5239
S'JJ'
p5240
F0.9363
tp5241
a(S'job'
p5242
S'NN'
p5243
F0.9876
tp5244
a(S'with'
p5245
S'IN'
p5246
F0.9986
tp5247
a(S'IOS'
p5248
S'NNP'
p5249
F0.9867
tp5250
a(S'9.1'
p5251
S'CD'
p5252
F0.7247
tp5253
ag304
tp5254
a((lp5255
(S'Honestly'
p5256
S'RB'
p5257
F0.9628
tp5258
a(S'just'
p5259
S'RB'
p5260
F0.9985
tp5261
a(S'really'
p5262
S'RB'
p5263
F0.9983
tp5264
a(S'excited'
p5265
S'JJ'
p5266
F0.8468
tp5267
a(S'about'
p5268
S'IN'
p5269
F0.9948
tp5270
a(S'the'
p5271
S'DT'
p5272
F0.997
tp5273
a(S'field'
p5274
S'NN'
p5275
F0.9934
tp5276
a(S'hockey'
p5277
S'NN'
p5278
F0.988
tp5279
a(S'emoji'
p5280
S'NN'
p5281
F0.8065
tp5282
a(S'????'
p5283
g128
F0.9504
tp5284
a(S'Good'
p5285
S'JJ'
p5286
F0.8717
tp5287
a(S'job'
p5288
S'NN'
p5289
F0.9592
tp5290
a(S'Apple'
p5291
S'NNP'
p5292
F0.9
tp5293
ag304
tp5294
a((lp5295
(S'The'
p5296
S'DT'
p5297
F0.9231
tp5298
a(S'real'
p5299
S'JJ'
p5300
F0.9372
tp5301
a(S'reason'
p5302
S'NN'
p5303
F0.9241
tp5304
a(S'Apple'
p5305
S'NNP'
p5306
F0.9101
tp5307
a(S'sucks'
p5308
S'VBZ'
p5309
F0.9642
tp5310
a(S'is'
p5311
S'VBZ'
p5312
F0.9833
tp5313
a(S'because'
p5314
S'IN'
p5315
F0.9707
tp5316
a(S'iTunes'
p5317
S'NNP'
p5318
F0.9483
tp5319
a(g1018
S"''"
p5320
F0.9807
tp5321
a(S'programmers'
p5322
S'NNS'
p5323
F0.8331
tp5324
a(g1018
S"''"
p5325
F0.9854
tp5326
a(S'never'
p5327
S'RB'
p5328
F0.9561
tp5329
a(S'seem'
p5330
S'VBN'
p5331
F0.3937
tp5332
a(S'to'
p5333
S'TO'
p5334
F0.9965
tp5335
a(S'do'
p5336
S'VB'
p5337
F0.9839
tp5338
a(S'any'
p5339
S'DT'
p5340
F0.9929
tp5341
a(S'unit'
p5342
S'NN'
p5343
F0.9935
tp5344
a(S'or'
p5345
S'CC'
p5346
F0.9693
tp5347
a(S'integrated'
p5348
S'NN'
p5349
F0.3513
tp5350
a(S'testing'
p5351
S'VBG'
p5352
F0.5486
tp5353
a(S'before'
p5354
S'IN'
p5355
F0.9587
tp5356
a(g144
S'DT'
p5357
F0.994
tp5358
a(S'major'
p5359
S'JJ'
p5360
F0.9212
tp5361
a(S'release'
p5362
S'NN'
p5363
F0.9715
tp5364
a(g128
g128
F0.9935
tp5365
a(S'IDIOTS'
p5366
S'NNS'
p5367
F0.9605
tp5368
a(g293
g128
F0.9958
tp5369
ag53
tp5370
a((lp5371
(S'actually'
p5372
S'RB'
p5373
F0.9946
tp5374
a(S'worse'
p5375
S'JJ'
p5376
F0.4863
tp5377
a(g35
g35
F0.991
tp5378
a(S'set'
p5379
S'VB'
p5380
F0.8278
tp5381
a(S'up'
p5382
S'RP'
p5383
F0.8795
tp5384
a(S'the'
p5385
S'DT'
p5386
F0.9919
tp5387
a(S'whole'
p5388
S'JJ'
p5389
F0.7481
tp5390
a(S'Apple'
p5391
S'NNP'
p5392
F0.9192
tp5393
a(S'TV'
p5394
S'NN'
p5395
F0.5237
tp5396
a(S'during'
p5397
S'IN'
p5398
F0.9636
tp5399
a(S'date'
p5400
S'NN'
p5401
F0.9503
tp5402
a(g128
g128
F0.9969
tp5403
ag53
tp5404
a((lp5405
(S'Apple'
p5406
S'NNP'
p5407
F0.8755
tp5408
a(S'has'
p5409
S'VBZ'
p5410
F0.981
tp5411
a(S'done'
p5412
S'VBN'
p5413
F0.976
tp5414
a(S'good'
p5415
S'JJ'
p5416
F0.99
tp5417
a(S'job'
p5418
S'NN'
p5419
F0.9908
tp5420
a(S'leveraging'
p5421
S'VBG'
p5422
F0.9886
tp5423
a(S'that'
p5424
S'DT'
p5425
F0.6292
tp5426
a(S'connectionMSFT'
p5427
S'NNP'
p5428
F0.194
tp5429
a(S'has'
p5430
S'VBZ'
p5431
F0.9711
tp5432
a(S'the'
p5433
S'DT'
p5434
F0.9938
tp5435
a(S'same'
p5436
S'JJ'
p5437
F0.9696
tp5438
a(S'ability'
p5439
S'NN'
p5440
F0.9616
tp5441
a(g128
g128
F0.9967
tp5442
ag304
tp5443
a((lp5444
(S'Apple'
p5445
S'NNP'
p5446
F0.9036
tp5447
a(S'TV'
p5448
S'NNP'
p5449
F0.8267
tp5450
a(S'2015'
p5451
S'CD'
p5452
F0.6965
tp5453
a(S'review'
p5454
S'NN'
p5455
F0.9791
tp5456
a(g5
g5
F0.9695
tp5457
a(S'Fast'
p5458
S'RB'
p5459
F0.5114
tp5460
a(S'and'
p5461
S'CC'
p5462
F0.9893
tp5463
a(S'easy'
p5464
S'JJ'
p5465
F0.9097
tp5466
a(S'to'
p5467
S'TO'
p5468
F0.9954
tp5469
a(S'navigate'
p5470
S'VB'
p5471
F0.9865
tp5472
a(g35
g35
F0.9868
tp5473
a(S'but'
p5474
S'CC'
p5475
F0.9939
tp5476
a(S'keyboard'
p5477
S'NN'
p5478
F0.8972
tp5479
a(S'worse'
p5480
S'JJ'
p5481
F0.3493
tp5482
a(g35
g35
F0.9893
tp5483
a(S'Siri'
p5484
S'NNP'
p5485
F0.9995
tp5486
a(S'limited'
p5487
S'JJ'
p5488
F0.4498
tp5489
ag53
tp5490
a((lp5491
(S'Apple'
p5492
S'NNP'
p5493
F0.9646
tp5494
a(S'Inc'
p5495
S'NNP'
p5496
F0.9955
tp5497
a(g128
g128
F0.99
tp5498
a(S'Shares'
p5499
S'NNS'
p5500
F0.8782
tp5501
a(S'of'
p5502
S'IN'
p5503
F0.9928
tp5504
a(S'companies'
p5505
S'NNS'
p5506
F0.9897
tp5507
a(S'that'
p5508
S'IN'
p5509
F0.4505
tp5510
a(S'make'
p5511
S'VB'
p5512
F0.7114
tp5513
a(S'chips'
p5514
S'NNS'
p5515
F0.8134
tp5516
a(S'for'
p5517
S'IN'
p5518
F0.999
tp5519
a(S'the'
p5520
S'DT'
p5521
F0.9944
tp5522
a(S'iPhone'
p5523
S'NNP'
p5524
F0.7329
tp5525
a(S'took'
p5526
S'VBD'
p5527
F0.9404
tp5528
a(S'it'
p5529
S'PRP'
p5530
F0.997
tp5531
a(S'on'
p5532
S'IN'
p5533
F0.9906
tp5534
a(S'the'
p5535
S'DT'
p5536
F0.9907
tp5537
a(S'chin'
p5538
S'NN'
p5539
F0.967
tp5540
a(S'Monday'
p5541
S'NNP'
p5542
F0.9864
tp5543
a(S'after'
p5544
S'IN'
p5545
F0.9606
tp5546
a(S'worse'
p5547
S'JJR'
p5548
F0.3786
tp5549
a(S'than'
p5550
S'IN'
p5551
F0.988
tp5552
a(S'exp'
p5553
S'NN'
p5554
F0.3934
tp5555
a(S'results'
p5556
S'NNS'
p5557
F0.9863
tp5558
a(S'from'
p5559
S'IN'
p5560
F0.9988
tp5561
a(g144
S'DT'
p5562
F0.9947
tp5563
a(S'key'
p5564
S'NN'
p5565
F0.7203
tp5566
a(S'Apple'
p5567
S'NNP'
p5568
F0.796
tp5569
ag53
tp5570
a((lp5571
(S'Love'
p5572
S'VBP'
p5573
F0.7565
tp5574
a(S'the'
p5575
S'DT'
p5576
F0.9916
tp5577
a(S'new'
p5578
S'JJ'
p5579
F0.9721
tp5580
a(S'emojis'
p5581
S'NNS'
p5582
F0.9783
tp5583
a(g293
g128
F0.9828
tp5584
a(S'apple'
p5585
S'NN'
p5586
F0.6914
tp5587
a(S'did'
p5588
S'VBD'
p5589
F0.901
tp5590
a(g144
S'DT'
p5591
F0.9932
tp5592
a(S'very'
p5593
S'RB'
p5594
F0.926
tp5595
a(S'good'
p5596
S'JJ'
p5597
F0.9906
tp5598
a(S'job'
p5599
S'NN'
p5600
F0.9847
tp5601
a(g293
g128
F0.9943
tp5602
a(S'Hahaha'
p5603
S'UH'
p5604
F0.9798
tp5605
ag304
tp5606
a((lp5607
(S'Apple'
p5608
S'NNP'
p5609
F0.9392
tp5610
a(S'Watch'
p5611
S'NNP'
p5612
F0.42
tp5613
a(S'generally'
p5614
S'RB'
p5615
F0.8847
tp5616
a(S'sucks'
p5617
S'VBZ'
p5618
F0.8484
tp5619
a(g293
g128
F0.9963
tp5620
ag53
tp5621
a((lp5622
(S'upgrade'
p5623
S'VB'
p5624
F0.4213
tp5625
a(S'aja'
p5626
S'UH'
p5627
F0.4843
tp5628
a(S'om'
p5629
S'UH'
p5630
F0.9861
tp5631
a(g35
g35
F0.9826
tp5632
a(S'udah'
p5633
S'NNP'
p5634
F0.6988
tp5635
a(S'tested'
p5636
S'VBD'
p5637
F0.7283
tp5638
a(S'di'
p5639
S'NNP'
p5640
F0.8194
tp5641
a(S'mbp'
p5642
S'NNP'
p5643
F0.5295
tp5644
a(S'mid2010'
p5645
S'CD'
p5646
F0.4506
tp5647
a(g128
g128
F0.992
tp5648
a(S'So'
p5649
S'RB'
p5650
F0.9407
tp5651
a(S'far'
p5652
S'RB'
p5653
F0.9316
tp5654
a(S'so'
p5655
S'RB'
p5656
F0.9363
tp5657
a(S'good'
p5658
S'JJ'
p5659
F0.9748
tp5660
a(g128
g128
F0.9923
tp5661
ag304
tp5662
a((lp5663
(S'yeah'
p5664
S'UH'
p5665
F0.9976
tp5666
a(g35
g35
F0.9735
tp5667
a(g104
S'PRP'
p5668
F0.9886
tp5669
a(S'know'
p5670
S'VBP'
p5671
F0.9817
tp5672
a(S'what'
p5673
S'WP'
p5674
F0.9677
tp5675
a(S'u'
p5676
S'PRP'
p5677
F0.9948
tp5678
a(S'mean'
p5679
S'VBP'
p5680
F0.5846
tp5681
a(g128
g128
F0.9949
tp5682
a(S"That's"
p5683
S'DT'
p5684
F0.5202
tp5685
a(S'the'
p5686
S'DT'
p5687
F0.9931
tp5688
a(S'mindset'
p5689
S'NN'
p5690
F0.994
tp5691
a(g104
S'PRP'
p5692
F0.996
tp5693
a(S'need'
p5694
S'VBP'
p5695
F0.9937
tp5696
a(S'to'
p5697
S'TO'
p5698
F0.9986
tp5699
a(S'get'
p5700
S'VB'
p5701
F0.9948
tp5702
a(S'into'
p5703
S'IN'
p5704
F0.9939
tp5705
a(S'to'
p5706
S'TO'
p5707
F0.9977
tp5708
a(S'avoid'
p5709
S'VB'
p5710
F0.9931
tp5711
a(S'all'
p5712
S'DT'
p5713
F0.9506
tp5714
a(S'the'
p5715
S'DT'
p5716
F0.9864
tp5717
a(S'bugs'
p5718
S'NNS'
p5719
F0.8018
tp5720
a(g128
g128
F0.9945
tp5721
a(S'Apple'
p5722
S'NNP'
p5723
F0.8314
tp5724
a(S'majorly'
p5725
S'NN'
p5726
F0.2378
tp5727
a(S'sucks'
p5728
S'VBZ'
p5729
F0.8888
tp5730
a(S'for'
p5731
S'IN'
p5732
F0.9854
tp5733
a(S'terrible'
p5734
S'JJ'
p5735
F0.9801
tp5736
a(S'updates'
p5737
S'NNS'
p5738
F0.9812
tp5739
a(g128
g128
F0.9967
tp5740
ag53
tp5741
a((lp5742
(S'RT'
p5743
S'RT'
p5744
F0.9752
tp5745
a(S'THE'
p5746
S'DT'
p5747
F0.9403
tp5748
a(S'NEW'
p5749
S'JJ'
p5750
F0.914
tp5751
a(S'EMOJIS'
p5752
S'NNS'
p5753
F0.9665
tp5754
a(S'ARE'
p5755
S'VBP'
p5756
F0.9582
tp5757
a(S'ON'
p5758
S'IN'
p5759
F0.9286
tp5760
a(S'POINT'
p5761
S'NN'
p5762
F0.4669
tp5763
a(S'GOOD'
p5764
S'JJ'
p5765
F0.9052
tp5766
a(S'JOB'
p5767
S'NN'
p5768
F0.5829
tp5769
a(S'APPLE-Zoe'
p5770
S'NNP'
p5771
F0.7437
tp5772
ag304
tp5773
a((lp5774
(S"I've"
p5775
S'PRP'
p5776
F0.9597
tp5777
a(S'been'
p5778
S'VBN'
p5779
F0.7726
tp5780
a(S'using'
p5781
S'VBG'
p5782
F0.9938
tp5783
a(S'Apple'
p5784
S'NNP'
p5785
F0.9768
tp5786
a(S'Music'
p5787
S'NNP'
p5788
F0.5241
tp5789
a(S'even'
p5790
S'RB'
p5791
F0.9808
tp5792
a(S'after'
p5793
S'IN'
p5794
F0.9899
tp5795
a(S'my'
p5796
S'PRP$'
p5797
F0.9919
tp5798
a(S'trial'
p5799
S'NN'
p5800
F0.9855
tp5801
a(S'ended'
p5802
S'VBD'
p5803
F0.5636
tp5804
a(S'in'
p5805
S'IN'
p5806
F0.9922
tp5807
a(S'September'
p5808
S'NNP'
p5809
F0.9949
tp5810
a(g128
g128
F0.994
tp5811
a(g104
S'PRP'
p5812
F0.9944
tp5813
a(S'really'
p5814
S'RB'
p5815
F0.9713
tp5816
a(S'love'
p5817
S'VBP'
p5818
F0.6483
tp5819
a(S'it'
p5820
S'PRP'
p5821
F0.997
tp5822
a(g128
g128
F0.991
tp5823
a(g104
S'PRP'
p5824
F0.9975
tp5825
a(S'have'
p5826
S'VBP'
p5827
F0.9764
tp5828
a(g53
S'CD'
p5829
F0.9727
tp5830
a(S'problems'
p5831
S'NNS'
p5832
F0.9924
tp5833
a(S'with'
p5834
S'IN'
p5835
F0.9992
tp5836
a(S'it'
p5837
S'PRP'
p5838
F0.9823
tp5839
a(S'Good'
p5840
S'JJ'
p5841
F0.7457
tp5842
a(S'Job'
p5843
S'NNP'
p5844
F0.8199
tp5845
a(S'Apple'
p5846
S'NNP'
p5847
F0.9973
tp5848
a(g35
g35
F0.9864
tp5849
a(S'????????????????????????????'
p5850
g128
F0.9434
tp5851
ag304
tp5852
a((lp5853
(S'Apple'
p5854
S'NNP'
p5855
F0.8761
tp5856
a(S'tells'
p5857
S'VBZ'
p5858
F0.9555
tp5859
a(S'judge'
p5860
S'NN'
p5861
F0.8281
tp5862
a(S"it's"
p5863
S'PRP'
p5864
F0.6428
tp5865
a(g1018
S"''"
p5866
F0.9841
tp5867
a(S'impossible'
p5868
S'JJ'
p5869
F0.8949
tp5870
a(g1018
S"''"
p5871
F0.9836
tp5872
a(S'to'
p5873
S'TO'
p5874
F0.9956
tp5875
a(S'unlock'
p5876
S'VB'
p5877
F0.998
tp5878
a(g144
S'DT'
p5879
F0.9955
tp5880
a(S'device'
p5881
S'NN'
p5882
F0.9954
tp5883
a(S'running'
p5884
S'NN'
p5885
F0.5819
tp5886
a(S'iOS'
p5887
S'NNP'
p5888
F0.5691
tp5889
a(g1429
S'CD'
p5890
F0.9694
tp5891
a(S'or'
p5892
S'CC'
p5893
F0.9713
tp5894
a(S'higher'
p5895
S'JJR'
p5896
F0.8883
tp5897
a(g1018
S"''"
p5898
F0.9864
tp5899
a(S'good'
p5900
S'JJ'
p5901
F0.8563
tp5902
a(S'job'
p5903
S'NN'
p5904
F0.9622
tp5905
a(S'apple'
p5906
S'NN'
p5907
F0.7004
tp5908
a(g1018
S"''"
p5909
F0.9838
tp5910
a(S'#infosec'
p5911
S'HT'
p5912
F0.9811
tp5913
a(S'#hacking'
p5914
S'HT'
p5915
F0.9543
tp5916
ag304
tp5917
a((lp5918
(S'RT'
p5919
S'RT'
p5920
F0.9594
tp5921
a(S'ALL'
p5922
S'DT'
p5923
F0.8195
tp5924
a(S'THE'
p5925
S'DT'
p5926
F0.9574
tp5927
a(S'NEW'
p5928
S'JJ'
p5929
F0.9387
tp5930
a(S'EMOJIS'
p5931
S'NNS'
p5932
F0.8112
tp5933
a(S'THO'
p5934
S'RB'
p5935
F0.288
tp5936
a(S'>>>>>>>>'
p5937
S'UH'
p5938
F0.1744
tp5939
a(S'GOOD'
p5940
S'JJ'
p5941
F0.7239
tp5942
a(S'JOB'
p5943
S'NN'
p5944
F0.5611
tp5945
a(S'APPLE'
p5946
S'NNP'
p5947
F0.8057
tp5948
a(S'!!!'
p5949
g128
F0.9876
tp5950
a(S'Except'
p5951
S'IN'
p5952
F0.7491
tp5953
a(S"there's"
p5954
S'RB'
p5955
F0.1749
tp5956
a(S'still'
p5957
S'RB'
p5958
F0.9932
tp5959
a(S'no'
p5960
S'DT'
p5961
F0.8902
tp5962
a(S'giraffe'
p5963
S'NN'
p5964
F0.9786
tp5965
a(g128
g128
F0.9934
tp5966
a(S'So'
p5967
S'RB'
p5968
F0.621
tp5969
a(g128
g128
F0.9904
tp5970
a(S'????????'
p5971
g128
F0.9341
tp5972
ag304
tp5973
a((lp5974
(S'Good'
p5975
S'JJ'
p5976
F0.777
tp5977
a(S'job'
p5978
S'NN'
p5979
F0.902
tp5980
a(S'Apple'
p5981
S'NNP'
p5982
F0.8786
tp5983
a(S'????'
p5984
g128
F0.9742
tp5985
ag304
tp5986
a((lp5987
(S"It's"
p5988
S'PRP'
p5989
F0.8836
tp5990
a(g144
S'DT'
p5991
F0.9956
tp5992
a(S'testament'
p5993
S'NN'
p5994
F0.9926
tp5995
a(S'to'
p5996
S'TO'
p5997
F0.9874
tp5998
a(S'the'
p5999
S'DT'
p6000
F0.9937
tp6001
a(S'good'
p6002
S'JJ'
p6003
F0.9406
tp6004
a(S'job'
p6005
S'NN'
p6006
F0.9365
tp6007
a(S'Apple'
p6008
S'NNP'
p6009
F0.8864
tp6010
a(S'has'
p6011
S'VBZ'
p6012
F0.9757
tp6013
a(S'been'
p6014
S'VBN'
p6015
F0.9727
tp6016
a(S'doing'
p6017
S'VBG'
p6018
F0.9955
tp6019
a(S'that'
p6020
S'IN'
p6021
F0.7097
tp6022
a(g104
S'PRP'
p6023
F0.9894
tp6024
a(S'no'
p6025
S'DT'
p6026
F0.7957
tp6027
a(S'longer'
p6028
S'RB'
p6029
F0.5381
tp6030
a(S'get'
p6031
S'VB'
p6032
F0.6687
tp6033
a(S'the'
p6034
S'DT'
p6035
F0.9689
tp6036
a(S'itch'
p6037
S'NN'
p6038
F0.9246
tp6039
a(S'to'
p6040
S'TO'
p6041
F0.9958
tp6042
a(S'jailbreak'
p6043
S'VB'
p6044
F0.9948
tp6045
a(S'my'
p6046
S'PRP$'
p6047
F0.9954
tp6048
a(S'phone'
p6049
S'NN'
p6050
F0.9942
tp6051
a(g128
g128
F0.9973
tp6052
ag304
tp6053
a((lp6054
(S'80'
p6055
S'CD'
p6056
F0.9446
tp6057
a(S'worse'
p6058
S'JJR'
p6059
F0.403
tp6060
a(S'off'
p6061
S'RP'
p6062
F0.4488
tp6063
a(S'now'
p6064
S'RB'
p6065
F0.9801
tp6066
a(S'cause'
p6067
S'IN'
p6068
F0.9128
tp6069
a(g104
S'PRP'
p6070
F0.9957
tp6071
a(S'broke'
p6072
S'VBD'
p6073
F0.9566
tp6074
a(S'my'
p6075
S'PRP$'
p6076
F0.9962
tp6077
a(S'phone'
p6078
S'NN'
p6079
F0.9813
tp6080
a(S'this'
p6081
S'DT'
p6082
F0.9972
tp6083
a(S'morning'
p6084
S'NN'
p6085
F0.9836
tp6086
a(g128
g128
F0.9941
tp6087
a(S'Nice'
p6088
S'JJ'
p6089
F0.7289
tp6090
a(S'one'
p6091
S'CD'
p6092
F0.8877
tp6093
a(S'apple'
p6094
S'NN'
p6095
F0.6562
tp6096
a(S'for'
p6097
S'IN'
p6098
F0.9911
tp6099
a(S'making'
p6100
S'VBG'
p6101
F0.9814
tp6102
a(S'possibly'
p6103
S'RB'
p6104
F0.9919
tp6105
a(S'the'
p6106
S'DT'
p6107
F0.9928
tp6108
a(S'EASIEST'
p6109
S'JJS'
p6110
F0.6371
tp6111
a(S'phone'
p6112
S'NN'
p6113
F0.9847
tp6114
a(S'to'
p6115
S'TO'
p6116
F0.9957
tp6117
a(S'break'
p6118
S'VB'
p6119
F0.97
tp6120
a(S'and'
p6121
S'CC'
p6122
F0.9928
tp6123
a(S'charging'
p6124
S'VBG'
p6125
F0.9908
tp6126
a(S'so'
p6127
S'RB'
p6128
F0.9659
tp6129
a(S'much'
p6130
S'RB'
p6131
F0.9331
tp6132
a(g293
g128
F0.9948
tp6133
ag53
tp6134
a((lp6135
(S'Good'
p6136
S'JJ'
p6137
F0.777
tp6138
a(S'job'
p6139
S'NN'
p6140
F0.9364
tp6141
a(S'Apple'
p6142
S'NNP'
p6143
F0.878
tp6144
a(S"I'm"
p6145
S'PRP'
p6146
F0.4774
tp6147
a(S'impressed'
p6148
S'VBD'
p6149
F0.6009
tp6150
a(S'with'
p6151
S'IN'
p6152
F0.9995
tp6153
a(S'the'
p6154
S'DT'
p6155
F0.9941
tp6156
a(S'new'
p6157
S'JJ'
p6158
F0.9805
tp6159
a(S'emojis'
p6160
S'NNS'
p6161
F0.97
tp6162
a(S'but'
p6163
S'CC'
p6164
F0.9739
tp6165
a(S'now'
p6166
S'RB'
p6167
F0.9908
tp6168
a(S'can'
p6169
S'MD'
p6170
F0.9334
tp6171
a(S'you'
p6172
S'PRP'
p6173
F0.9949
tp6174
a(S'make'
p6175
S'VBP'
p6176
F0.9607
tp6177
a(g144
S'DT'
p6178
F0.992
tp6179
a(S'brain'
p6180
S'NN'
p6181
F0.9925
tp6182
a(g35
g35
F0.9914
tp6183
a(S'an'
p6184
S'DT'
p6185
F0.9694
tp6186
a(S'athlete'
p6187
S'NN'
p6188
F0.9953
tp6189
a(g35
g35
F0.9911
tp6190
a(g144
S'DT'
p6191
F0.9909
tp6192
a(S'basket'
p6193
S'NN'
p6194
F0.9971
tp6195
a(S'case'
p6196
S'NN'
p6197
F0.9941
tp6198
a(g35
g35
F0.991
tp6199
a(g144
S'DT'
p6200
F0.9883
tp6201
a(S'princess'
p6202
S'NN'
p6203
F0.9691
tp6204
a(g35
g35
F0.9916
tp6205
a(S'and'
p6206
S'CC'
p6207
F0.9989
tp6208
a(g144
S'DT'
p6209
F0.9844
tp6210
a(S'criminal'
p6211
S'JJ'
p6212
F0.8464
tp6213
a(S'???????'
p6214
g128
F0.9712
tp6215
ag304
tp6216
a((lp6217
(S'Looks'
p6218
S'VBZ'
p6219
F0.5711
tp6220
a(S'good'
p6221
S'JJ'
p6222
F0.9491
tp6223
a(S'apple'
p6224
S'NN'
p6225
F0.7598
tp6226
a(g35
g35
F0.9913
tp6227
a(S'nice'
p6228
S'JJ'
p6229
F0.9913
tp6230
a(S'job'
p6231
S'NN'
p6232
F0.9858
tp6233
ag304
tp6234
a((lp6235
(S'RT'
p6236
S'RT'
p6237
F0.9539
tp6238
a(S'Apple'
p6239
S'NNP'
p6240
F0.9877
tp6241
a(S'Music'
p6242
S'NNP'
p6243
F0.5155
tp6244
a(S'fuckin'
p6245
S'NNP'
p6246
F0.2821
tp6247
a(S'sucks'
p6248
S'VBZ'
p6249
F0.971
tp6250
a(S'it'
p6251
S'PRP'
p6252
F0.9973
tp6253
a(S'takes'
p6254
S'VBZ'
p6255
F0.9962
tp6256
a(g144
S'DT'
p6257
F0.9977
tp6258
a(S'year'
p6259
S'NN'
p6260
F0.9946
tp6261
a(S'to'
p6262
S'TO'
p6263
F0.9964
tp6264
a(S'play'
p6265
S'VB'
p6266
F0.9979
tp6267
a(S'one'
p6268
S'NN'
p6269
F0.5445
tp6270
a(S'song'
p6271
S'NN'
p6272
F0.992
tp6273
ag53
tp6274
a((lp6275
(g2634
S'DT'
p6276
F0.9296
tp6277
a(S'16GB'
p6278
S'NNP'
p6279
F0.5273
tp6280
a(S'MBP'
p6281
S'NNP'
p6282
F0.9053
tp6283
a(S'is'
p6284
S'VBZ'
p6285
F0.9938
tp6286
a(g144
S'DT'
p6287
F0.9931
tp6288
a(S'good'
p6289
S'JJ'
p6290
F0.9263
tp6291
a(g35
g35
F0.9905
tp6292
a(S'portable'
p6293
S'JJ'
p6294
F0.8745
tp6295
a(S'#VIRL'
p6296
S'HT'
p6297
F0.8611
tp6298
a(S'system'
p6299
S'NN'
p6300
F0.9798
tp6301
a(g35
g35
F0.9916
tp6302
a(S'depending'
p6303
S'VBG'
p6304
F0.924
tp6305
a(S'on'
p6306
S'IN'
p6307
F0.9831
tp6308
a(S'your'
p6309
S'PRP$'
p6310
F0.9832
tp6311
a(S'topology'
p6312
S'NN'
p6313
F0.9784
tp6314
a(g128
g128
F0.9938
tp6315
a(S'See'
p6316
S'VB'
p6317
F0.9507
tp6318
ag304
tp6319
a((lp6320
(S'Right'
p6321
S'RB'
p6322
F0.7324
tp6323
a(g2391
g128
F0.9809
tp6324
a(S'Apple'
p6325
S'NNP'
p6326
F0.8234
tp6327
a(S'has'
p6328
S'VBZ'
p6329
F0.9798
tp6330
a(S'done'
p6331
S'VBN'
p6332
F0.9787
tp6333
a(S'such'
p6334
S'JJ'
p6335
F0.9429
tp6336
a(g144
S'DT'
p6337
F0.9893
tp6338
a(S'good'
p6339
S'JJ'
p6340
F0.9825
tp6341
a(S'job'
p6342
S'NN'
p6343
F0.9876
tp6344
a(S'with'
p6345
S'IN'
p6346
F0.9981
tp6347
a(S'preorders'
p6348
S'NNS'
p6349
F0.9465
tp6350
a(S'receiving'
p6351
S'VBG'
p6352
F0.986
tp6353
a(S'the'
p6354
S'DT'
p6355
F0.9958
tp6356
a(S'item'
p6357
S'NN'
p6358
F0.9924
tp6359
a(S'before'
p6360
S'IN'
p6361
F0.8109
tp6362
a(S'or'
p6363
S'CC'
p6364
F0.9641
tp6365
a(S'at'
p6366
S'IN'
p6367
F0.9955
tp6368
a(S'the'
p6369
S'DT'
p6370
F0.9923
tp6371
a(S'same'
p6372
S'JJ'
p6373
F0.9733
tp6374
a(S'time'
p6375
S'NN'
p6376
F0.9815
tp6377
a(S'it'
p6378
S'PRP'
p6379
F0.9946
tp6380
a(S'becomes'
p6381
S'VBZ'
p6382
F0.9863
tp6383
a(S'available'
p6384
S'JJ'
p6385
F0.7394
tp6386
a(S'in-store'
p6387
S'JJ'
p6388
F0.8821
tp6389
a(g128
g128
F0.9947
tp6390
ag304
tp6391
a((lp6392
(S'Good'
p6393
S'JJ'
p6394
F0.777
tp6395
a(S'job'
p6396
S'NN'
p6397
F0.9842
tp6398
a(S'on'
p6399
S'IN'
p6400
F0.9983
tp6401
a(S'the'
p6402
S'DT'
p6403
F0.9926
tp6404
a(S'iphone'
p6405
S'NN'
p6406
F0.7257
tp6407
a(S'update'
p6408
S'NN'
p6409
F0.9789
tp6410
a(S'apple'
p6411
S'NN'
p6412
F0.8998
tp6413
a(g128
g128
F0.9905
tp6414
a(S'Though'
p6415
S'RB'
p6416
F0.7594
tp6417
a(S'would'
p6418
S'MD'
p6419
F0.9765
tp6420
a(S'prefer'
p6421
S'VB'
p6422
F0.9239
tp6423
a(S'if'
p6424
S'IN'
p6425
F0.9837
tp6426
a(S'it'
p6427
S'PRP'
p6428
F0.9993
tp6429
a(S"didn't"
p6430
S'VBD'
p6431
F0.4418
tp6432
a(S'delete'
p6433
S'VB'
p6434
F0.9879
tp6435
a(S'all'
p6436
S'DT'
p6437
F0.9584
tp6438
a(S'my'
p6439
S'PRP$'
p6440
F0.9663
tp6441
a(S'fucking'
p6442
S'JJ'
p6443
F0.7082
tp6444
a(S'contacts'
p6445
S'NNS'
p6446
F0.9835
tp6447
a(S':/'
p6448
S'UH'
p6449
F0.9669
tp6450
ag304
tp6451
a((lp6452
(S'ha'
p6453
S'UH'
p6454
F0.9879
tp6455
a(S'that'
p6456
S'DT'
p6457
F0.919
tp6458
a(S'worries'
p6459
S'NNS'
p6460
F0.6008
tp6461
a(S'me'
p6462
S'PRP'
p6463
F0.9842
tp6464
a(g35
g35
F0.9706
tp6465
a(S'cause'
p6466
S'IN'
p6467
F0.5393
tp6468
a(S'Im'
p6469
S'PRP'
p6470
F0.9527
tp6471
a(S'on'
p6472
S'IN'
p6473
F0.9945
tp6474
a(g144
S'DT'
p6475
F0.9903
tp6476
a(S'mbp'
p6477
S'NN'
p6478
F0.9128
tp6479
a(S'also'
p6480
S'RB'
p6481
F0.9851
tp6482
a(g128
g128
F0.9896
tp6483
a(S'Might'
p6484
S'MD'
p6485
F0.967
tp6486
a(S'be'
p6487
S'VB'
p6488
F0.9982
tp6489
a(S'something'
p6490
S'NN'
p6491
F0.9175
tp6492
a(S'they'
p6493
S'PRP'
p6494
F0.8556
tp6495
a(S'arent'
p6496
S'VBP'
p6497
F0.7711
tp6498
a(S'handling'
p6499
S'VBG'
p6500
F0.9056
tp6501
a(S'right'
p6502
S'RB'
p6503
F0.8561
tp6504
a(g128
g128
F0.9942
tp6505
a(S'Time'
p6506
S'NN'
p6507
F0.7961
tp6508
a(S'will'
p6509
S'MD'
p6510
F0.9929
tp6511
a(S'tell'
p6512
S'VB'
p6513
F0.9977
tp6514
a(g128
g128
F0.993
tp6515
a(S'Good'
p6516
S'JJ'
p6517
F0.3496
tp6518
a(S'looking'
p6519
S'VBG'
p6520
F0.8563
tp6521
a(S'out'
p6522
S'RP'
p6523
F0.9266
tp6524
ag53
tp6525
a((lp6526
(S'RT'
p6527
S'RT'
p6528
F0.9692
tp6529
a(S'good'
p6530
S'JJ'
p6531
F0.9588
tp6532
a(S'job'
p6533
S'NN'
p6534
F0.9321
tp6535
a(S'Apple'
p6536
S'NNP'
p6537
F0.8333
tp6538
a(g293
g128
F0.9949
tp6539
ag304
tp6540
a((lp6541
(S'nah'
p6542
S'UH'
p6543
F0.9793
tp6544
a(g128
g128
F0.9392
tp6545
a(S'Apple'
p6546
S'NNP'
p6547
F0.9392
tp6548
a(S'just'
p6549
S'RB'
p6550
F0.9978
tp6551
a(S'censors'
p6552
S'VBZ'
p6553
F0.8844
tp6554
a(S'anyone'
p6555
S'NN'
p6556
F0.9861
tp6557
a(S'who'
p6558
S'WP'
p6559
F0.9518
tp6560
a(S'says'
p6561
S'VBZ'
p6562
F0.9524
tp6563
a(S'their'
p6564
S'PRP$'
p6565
F0.8847
tp6566
a(S'shit'
p6567
S'NN'
p6568
F0.9914
tp6569
a(S'sucks'
p6570
S'VBZ'
p6571
F0.8948
tp6572
a(g128
g128
F0.9968
tp6573
ag53
tp6574
a((lp6575
(S'Normally'
p6576
S'RB'
p6577
F0.9869
tp6578
a(g35
g35
F0.9921
tp6579
a(S'fuck'
p6580
S'VB'
p6581
F0.8389
tp6582
a(S'Apple'
p6583
S'NNP'
p6584
F0.9477
tp6585
a(g128
g128
F0.9908
tp6586
a(S'Today'
p6587
S'NN'
p6588
F0.9817
tp6589
a(g35
g35
F0.9902
tp6590
a(S'just'
p6591
S'RB'
p6592
F0.9969
tp6593
a(S'for'
p6594
S'IN'
p6595
F0.9572
tp6596
a(S'now'
p6597
S'RB'
p6598
F0.9887
tp6599
a(g35
g35
F0.9884
tp6600
a(S'Good'
p6601
S'NNP'
p6602
F0.7562
tp6603
a(S'Job'
p6604
S'NNP'
p6605
F0.9716
tp6606
a(g35
g35
F0.9788
tp6607
a(S'Apple'
p6608
S'NNP'
p6609
F0.9856
tp6610
a(g128
g128
F0.9961
tp6611
ag304
tp6612
a((lp6613
(S'The'
p6614
S'DT'
p6615
F0.9673
tp6616
a(S'verdict'
p6617
S'NN'
p6618
F0.9948
tp6619
a(S'is'
p6620
S'VBZ'
p6621
F0.9915
tp6622
a(S'in'
p6623
S'IN'
p6624
F0.9306
tp6625
a(g5
g5
F0.9568
tp6626
a(S'MBP'
p6627
S'NNP'
p6628
F0.3866
tp6629
a(S'drive'
p6630
S'NN'
p6631
F0.8966
tp6632
a(S'is'
p6633
S'VBZ'
p6634
F0.9941
tp6635
a(S'dead'
p6636
S'JJ'
p6637
F0.7059
tp6638
a(g128
g128
F0.9903
tp6639
a(S'Anyone'
p6640
S'NN'
p6641
F0.8764
tp6642
a(S'in'
p6643
S'IN'
p6644
F0.9865
tp6645
a(S'#SF'
p6646
S'HT'
p6647
F0.9778
tp6648
a(S'recommend'
p6649
S'VB'
p6650
F0.5044
tp6651
a(g144
S'DT'
p6652
F0.9921
tp6653
a(S'good'
p6654
S'JJ'
p6655
F0.983
tp6656
a(S'data'
p6657
S'NN'
p6658
F0.9611
tp6659
a(S'recovery'
p6660
S'NN'
p6661
F0.9723
tp6662
a(S'shop'
p6663
S'NN'
p6664
F0.9816
tp6665
a(g2391
g128
F0.99
tp6666
a(S'#backupyourdata'
p6667
S'HT'
p6668
F0.9732
tp6669
ag53
tp6670
a((lp6671
(S'Apparently'
p6672
S'RB'
p6673
F0.8997
tp6674
a(S'Siri'
p6675
S'NNP'
p6676
F0.9981
tp6677
a(S'is'
p6678
S'VBZ'
p6679
F0.9955
tp6680
a(S'incapable'
p6681
S'JJ'
p6682
F0.8889
tp6683
a(S'of'
p6684
S'IN'
p6685
F0.991
tp6686
a(S'giving'
p6687
S'VBG'
p6688
F0.9916
tp6689
a(S'Celsius'
p6690
S'NNS'
p6691
F0.4809
tp6692
a(S'temperatures'
p6693
S'NNS'
p6694
F0.8836
tp6695
a(S'today'
p6696
S'NN'
p6697
F0.9736
tp6698
a(g128
g128
F0.9955
tp6699
a(S'Good'
p6700
S'JJ'
p6701
F0.8114
tp6702
a(S'job'
p6703
S'NN'
p6704
F0.9592
tp6705
a(S'Apple'
p6706
S'NNP'
p6707
F0.8823
tp6708
a(g128
g128
F0.996
tp6709
ag53
tp6710
a((lp6711
(S'One'
p6712
S'CD'
p6713
F0.8922
tp6714
a(S'thing'
p6715
S'NN'
p6716
F0.9321
tp6717
a(S'apple'
p6718
S'NN'
p6719
F0.6849
tp6720
a(S'just'
p6721
S'RB'
p6722
F0.9985
tp6723
a(S"can't"
p6724
S'MD'
p6725
F0.9253
tp6726
a(S'get'
p6727
S'VB'
p6728
F0.9952
tp6729
a(S'right'
p6730
S'RB'
p6731
F0.857
tp6732
a(S'is'
p6733
S'VBZ'
p6734
F0.9928
tp6735
a(S'the'
p6736
S'DT'
p6737
F0.9967
tp6738
a(S'search'
p6739
S'NN'
p6740
F0.9889
tp6741
a(S'on'
p6742
S'IN'
p6743
F0.9963
tp6744
a(S'ya'
p6745
S'PRP$'
p6746
F0.8081
tp6747
a(S'iPhone'
p6748
S'NNP'
p6749
F0.546
tp6750
a(g128
g128
F0.9954
tp6751
a(S'This'
p6752
S'DT'
p6753
F0.9899
tp6754
a(S'new'
p6755
S'JJ'
p6756
F0.9879
tp6757
a(S'search'
p6758
S'NN'
p6759
F0.9942
tp6760
a(S'in'
p6761
S'IN'
p6762
F0.9942
tp6763
a(S'ya'
p6764
S'PRP$'
p6765
F0.628
tp6766
a(S'email'
p6767
S'NN'
p6768
F0.9157
tp6769
a(S'just'
p6770
S'RB'
p6771
F0.9983
tp6772
a(S'makes'
p6773
S'VBZ'
p6774
F0.9018
tp6775
a(S'things'
p6776
S'NNS'
p6777
F0.9757
tp6778
a(S'worse'
p6779
S'JJ'
p6780
F0.5212
tp6781
ag53
tp6782
a((lp6783
(S'apple'
p6784
S'NNP'
p6785
F0.7956
tp6786
a(S'sucks'
p6787
S'VBZ'
p6788
F0.981
tp6789
a(S'tbh'
p6790
S'NN'
p6791
F0.7762
tp6792
ag53
tp6793
a((lp6794
(S'RT'
p6795
S'RT'
p6796
F0.9734
tp6797
a(S'This'
p6798
S'DT'
p6799
F0.9886
tp6800
a(S'middle'
p6801
S'NN'
p6802
F0.9749
tp6803
a(S'finger'
p6804
S'NN'
p6805
F0.9846
tp6806
a(S'emoji'
p6807
S'NN'
p6808
F0.6745
tp6809
a(S'might'
p6810
S'MD'
p6811
F0.9614
tp6812
a(S'be'
p6813
S'VB'
p6814
F0.9984
tp6815
a(S'the'
p6816
S'DT'
p6817
F0.9917
tp6818
a(S'best'
p6819
S'JJS'
p6820
F0.9641
tp6821
a(S'update'
p6822
S'NN'
p6823
F0.9876
tp6824
a(S'yet'
p6825
S'RB'
p6826
F0.7093
tp6827
a(S'...'
p6828
g5
F0.9951
tp6829
a(S'Good'
p6830
S'JJ'
p6831
F0.8792
tp6832
a(S'job'
p6833
S'NN'
p6834
F0.9532
tp6835
a(S'Apple'
p6836
S'NNP'
p6837
F0.8437
tp6838
a(S'????????????'
p6839
g128
F0.9738
tp6840
ag304
tp6841
a((lp6842
(S'Apple'
p6843
S'NNP'
p6844
F0.9095
tp6845
a(S'sucks'
p6846
S'VBZ'
p6847
F0.9671
tp6848
a(S"I'll"
p6849
S'PRP'
p6850
F0.6103
tp6851
a(S'peng'
p6852
S'VBG'
p6853
F0.274
tp6854
a(S'to'
p6855
S'TO'
p6856
F0.9912
tp6857
a(S'android'
p6858
S'NNP'
p6859
F0.6264
tp6860
ag53
tp6861
a((lp6862
(S'Oil'
p6863
S'NN'
p6864
F0.9517
tp6865
a(S'is'
p6866
S'VBZ'
p6867
F0.9907
tp6868
a(S'changed'
p6869
S'VBN'
p6870
F0.9089
tp6871
a(g35
g35
F0.9864
tp6872
a(S'kids'
p6873
S'NNS'
p6874
F0.8949
tp6875
a(S'in'
p6876
S'IN'
p6877
F0.9935
tp6878
a(S'bed'
p6879
S'NN'
p6880
F0.9869
tp6881
a(g35
g35
F0.9922
tp6882
a(S'up'
p6883
S'RP'
p6884
F0.8595
tp6885
a(S'and'
p6886
S'CC'
p6887
F0.9888
tp6888
a(S'running'
p6889
S'VBG'
p6890
F0.8097
tp6891
a(S'on'
p6892
S'IN'
p6893
F0.9941
tp6894
a(S'the'
p6895
S'DT'
p6896
F0.9932
tp6897
a(S'new'
p6898
S'JJ'
p6899
F0.9577
tp6900
a(S'MBP'
p6901
S'NN'
p6902
F0.7507
tp6903
a(g293
g128
F0.9891
tp6904
a(S'All'
p6905
S'DT'
p6906
F0.8696
tp6907
a(S'is'
p6908
S'VBZ'
p6909
F0.9962
tp6910
a(S'good'
p6911
S'JJ'
p6912
F0.9521
tp6913
a(S'in'
p6914
S'IN'
p6915
F0.997
tp6916
a(S'the'
p6917
S'DT'
p6918
F0.9977
tp6919
a(S'world'
p6920
S'NN'
p6921
F0.985
tp6922
a(S'tonight'
p6923
S'NN'
p6924
F0.9887
tp6925
a(g128
g128
F0.9954
tp6926
ag304
tp6927
a((lp6928
(S'apple'
p6929
S'NNP'
p6930
F0.7966
tp6931
a(S'sucks'
p6932
S'VBZ'
p6933
F0.9752
tp6934
a(S'but'
p6935
S'CC'
p6936
F0.9882
tp6937
a(g104
S'PRP'
p6938
F0.9957
tp6939
a(S'still'
p6940
S'RB'
p6941
F0.9557
tp6942
a(S'buy'
p6943
S'VB'
p6944
F0.8661
tp6945
a(S'their'
p6946
S'PRP$'
p6947
F0.96
tp6948
a(S'products'
p6949
S'NNS'
p6950
F0.9341
tp6951
a(S'why'
p6952
S'WRB'
p6953
F0.9261
tp6954
ag53
tp6955
a((lp6956
(S'apple'
p6957
S'NNP'
p6958
F0.8195
tp6959
a(S'cable'
p6960
S'NN'
p6961
F0.8348
tp6962
a(S'sucks'
p6963
S'VBZ'
p6964
F0.9711
tp6965
a(S'alot'
p6966
S'NN'
p6967
F0.2653
tp6968
ag53
tp6969
a((lp6970
(S'the'
p6971
S'DT'
p6972
F0.9802
tp6973
a(S'new'
p6974
S'JJ'
p6975
F0.9354
tp6976
a(S'apple'
p6977
S'NN'
p6978
F0.9085
tp6979
a(S'music'
p6980
S'NN'
p6981
F0.9916
tp6982
a(S'sucks'
p6983
S'VBZ'
p6984
F0.9691
tp6985
a(S'big'
p6986
S'JJ'
p6987
F0.9884
tp6988
a(S'time'
p6989
S'NN'
p6990
F0.965
tp6991
a(g128
g128
F0.9796
tp6992
a(S'Not'
p6993
S'RB'
p6994
F0.9568
tp6995
a(S'music'
p6996
S'NN'
p6997
F0.849
tp6998
a(S'lover'
p6999
S'NN'
p7000
F0.9929
tp7001
a(S'friendly'
p7002
S'JJ'
p7003
F0.7042
tp7004
a(S'at'
p7005
S'IN'
p7006
F0.9932
tp7007
a(S'all'
p7008
S'DT'
p7009
F0.9938
tp7010
a(S':-('
p7011
S'UH'
p7012
F0.9215
tp7013
ag53
tp7014
a.