(lp0
((lp1
(S'Techmeme'
p2
S'NNP'
p3
F0.4051
tp4
a(S':'
p5
g5
F0.9765
tp6
a(S'Apple'
p7
S'NNP'
p8
F0.938
tp9
a(S'TV'
p10
S'NNP'
p11
F0.8076
tp12
a(S'2015'
p13
S'CD'
p14
F0.7189
tp15
a(S'review'
p16
S'NN'
p17
F0.9844
tp18
a(g5
g5
F0.9695
tp19
a(S'Fast'
p20
S'RB'
p21
F0.5114
tp22
a(S'and'
p23
S'CC'
p24
F0.9893
tp25
a(S'easy'
p26
S'JJ'
p27
F0.9097
tp28
a(S'to'
p29
S'TO'
p30
F0.9954
tp31
a(S'navigate'
p32
S'VB'
p33
F0.9865
tp34
a(S','
p35
g35
F0.9868
tp36
a(S'but'
p37
S'CC'
p38
F0.9939
tp39
a(S'keyboard'
p40
S'NN'
p41
F0.8972
tp42
a(S'worse'
p43
S'JJ'
p44
F0.3493
tp45
a(g35
g35
F0.9893
tp46
a(S'Siri'
p47
S'NNP'
p48
F0.9995
tp49
a(S'limited'
p50
S'JJ'
p51
F0.3783
tp52
a(S'\xc3\xa2\xe2\x82\xac\xc2\xa6'
p53
S'NN'
p54
F0.3009
tp55
aS'0'
p56
tp57
a((lp58
(S'\xc3\xa2\xe2\x82\xac\xc5\x93Future'
p59
S'NNP'
p60
F0.4638
tp61
a(S'teardown'
p62
S'NNP'
p63
F0.4773
tp64
a(S'of'
p65
S'IN'
p66
F0.977
tp67
a(S'an'
p68
S'DT'
p69
F0.9588
tp70
a(S'Apple'
p71
S'NNP'
p72
F0.9922
tp73
a(S'Car'
p74
S'NNP'
p75
F0.5723
tp76
a(S'shows'
p77
S'VBZ'
p78
F0.9182
tp79
a(S'us'
p80
S'PRP'
p81
F0.9398
tp82
a(S'who'
p83
S'WP'
p84
F0.9564
tp85
a(S'could'
p86
S'MD'
p87
F0.9825
tp88
a(S'be'
p89
S'VB'
p90
F0.9981
tp91
a(S'making'
p92
S'VBG'
p93
F0.9952
tp94
a(S'the'
p95
S'DT'
p96
F0.9895
tp97
a(S'various\xc3\x82'
p98
S'NNP'
p99
F0.5483
tp100
a(S'elements\xc3\xa2\xe2\x82\xac\xc2\x9d'
p101
S'NNP'
p102
F0.5009
tp103
a(S'Just'
p104
S'RB'
p105
F0.9903
tp106
a(S'when'
p107
S'WRB'
p108
F0.9906
tp109
a(S'I'
p110
S'PRP'
p111
F0.9994
tp112
a(S'thought'
p113
S'VBD'
p114
F0.8943
tp115
a(S'the'
p116
S'DT'
p117
F0.9924
tp118
a(S'tech'
p119
S'NN'
p120
F0.9367
tp121
a(S'blogs'
p122
S'NNS'
p123
F0.9551
tp124
a(S'couldn\xc3\xa2\xe2\x82\xac\xe2\x84\xa2t'
p125
S'NN'
p126
F0.1596
tp127
a(S'get'
p128
S'VB'
p129
F0.7416
tp130
a(S'worse'
p131
S'JJ'
p132
F0.5974
tp133
a(S'.'
p134
g134
F0.9961
tp135
ag56
tp136
a((lp137
(S'RT'
p138
S'RT'
p139
F0.9709
tp140
a(S'Even'
p141
S'RB'
p142
F0.9696
tp143
a(S'though'
p144
S'RB'
p145
F0.6427
tp146
a(S"I'm"
p147
S'PRP'
p148
F0.5555
tp149
a(S'a'
p150
S'DT'
p151
F0.9914
tp152
a(S'100%'
p153
S'CD'
p154
F0.5896
tp155
a(S'certified'
p156
S'JJ'
p157
F0.5576
tp158
a(S'Apple'
p159
S'NNP'
p160
F0.8988
tp161
a(S'Fanboy/apologist'
p162
S'NNP'
p163
F0.6568
tp164
a(g35
g35
F0.9901
tp165
a(S'after'
p166
S'IN'
p167
F0.9567
tp168
a(S'3'
p169
S'CD'
p170
F0.9888
tp171
a(S'months'
p172
S'NNS'
p173
F0.9756
tp174
a(S'without'
p175
S'IN'
p176
F0.997
tp177
a(S'Spotify'
p178
S'NNP'
p179
F0.9909
tp180
a(S"I'm"
p181
S'NNP'
p182
F0.5962
tp183
a(S'ready'
p184
S'JJ'
p185
F0.5545
tp186
a(S'to'
p187
S'TO'
p188
F0.9936
tp189
a(S'admit'
p190
S'VB'
p191
F0.9547
tp192
a(S'Apple'
p193
S'NNP'
p194
F0.9848
tp195
a(S'Music'
p196
S'NNP'
p197
F0.557
tp198
a(S'sucks'
p199
S'VBZ'
p200
F0.9408
tp201
a(S'a\xc3\xa2\xe2\x82\xac\xc2\xa6'
p202
S'DT'
p203
F0.1413
tp204
ag56
tp205
a((lp206
(S'Why'
p207
S'WRB'
p208
F0.9509
tp209
a(S"can't"
p210
S'MD'
p211
F0.7341
tp212
a(S'everyone'
p213
S'NN'
p214
F0.9702
tp215
a(S'have'
p216
S'VB'
p217
F0.5876
tp218
a(S'the'
p219
S'DT'
p220
F0.9925
tp221
a(S'same'
p222
S'JJ'
p223
F0.9568
tp224
a(S'content'
p225
S'NN'
p226
F0.9097
tp227
a(S'on'
p228
S'IN'
p229
F0.9963
tp230
a(S'there'
p231
S'EX'
p232
F0.3338
tp233
a(S'Apple'
p234
S'NNP'
p235
F0.9726
tp236
a(S'TV'
p237
S'NNP'
p238
F0.5375
tp239
a(S'the'
p240
S'DT'
p241
F0.9198
tp242
a(S'uk'
p243
S'NN'
p244
F0.7574
tp245
a(S'sucks'
p246
S'VBZ'
p247
F0.9071
tp248
a(S'with'
p249
S'IN'
p250
F0.9992
tp251
a(S'Apple'
p252
S'NNP'
p253
F0.9956
tp254
a(S'TV'
p255
S'NN'
p256
F0.6644
tp257
a(S'content'
p258
S'NN'
p259
F0.9209
tp260
a(S'????????'
p261
g134
F0.9824
tp262
ag56
tp263
a((lp264
(S'Apple'
p265
S'NNP'
p266
F0.962
tp267
a(S'Music'
p268
S'NNP'
p269
F0.7897
tp270
a(S'sucks'
p271
S'VBZ'
p272
F0.927
tp273
ag56
tp274
a((lp275
(S'Aw'
p276
S'UH'
p277
F0.9841
tp278
a(S'look'
p279
S'VB'
p280
F0.4056
tp281
a(S'they'
p282
S'PRP'
p283
F0.9857
tp284
a(S'made'
p285
S'VBD'
p286
F0.9706
tp287
a(S'Travis'
p288
S'NNP'
p289
F0.9991
tp290
a(S'into'
p291
S'IN'
p292
F0.9949
tp293
a(S'an'
p294
S'DT'
p295
F0.984
tp296
a(S'emoji'
p297
S'NN'
p298
F0.9104
tp299
a(S'!'
p300
g134
F0.9887
tp301
a(S'Good'
p302
S'JJ'
p303
F0.824
tp304
a(S'job'
p305
S'NN'
p306
F0.9554
tp307
a(S'Apple'
p308
S'NNP'
p309
F0.8916
tp310
aS'1'
p311
tp312
a((lp313
(S'????????????????????????????????'
p314
S'NNP'
p315
F0.1844
tp316
a(S'\xc3\xa2\xcb\x9c\xc2\xb9\xc3\xaf\xc2\xb8\xc2\x8f'
p317
S'NNP'
p318
F0.4262
tp319
a(S'????????????????????????????????????????????????????'
p320
S'NNP'
p321
F0.5328
tp322
a(S'\xc3\xa2\xc5\x93\xc2\x8d'
p323
S'NNP'
p324
F0.3548
tp325
a(S'????????'
p326
g134
F0.9422
tp327
a(S'\xc3\xa2\xe2\x80\xba'
p328
S'NN'
p329
F0.0913
tp330
a(S'\xe2\x80\x98'
p331
S"''"
p332
F0.8831
tp333
a(S'????????????????????????????????'
p334
S'NNP'
p335
F0.1196
tp336
a(S'\xc3\xa2\xcb\x9c\xe2\x80\x9e'
p337
S'NNP'
p338
F0.3301
tp339
a(S'????'
p340
g134
F0.9421
tp341
a(S'\xc3\xa2\xcb\x9c\xc2\x81\xc3\xaf\xc2\xb8\xc2\x8f'
p342
S'NN'
p343
F0.1095
tp344
a(S'????'
p345
g134
F0.9434
tp346
a(S'\xc3\xa2\xe2\x80\xba\xcb\x86'
p347
S'NN'
p348
F0.1095
tp349
a(S'????????????'
p350
g134
F0.9436
tp351
a(S'\xc3\xa2\xcb\x9c\xc6\x92'
p352
S'NN'
p353
F0.1095
tp354
a(S'????????????????????????????'
p355
g134
F0.9436
tp356
a(S'\xc3\xa2\xc2\x9d\xc2\xa3++'
p357
S'VB'
p358
F0.1179
tp359
a(S'all'
p360
S'DT'
p361
F0.9607
tp362
a(S'the'
p363
S'DT'
p364
F0.9938
tp365
a(S'flags'
p366
S'NNS'
p367
F0.9644
tp368
a(S'//'
p369
g5
F0.2061
tp370
a(S'there'
p371
S'EX'
p372
F0.5865
tp373
a(S'are'
p374
S'VBP'
p375
F0.9132
tp376
a(S'the'
p377
S'DT'
p378
F0.9918
tp379
a(S'new'
p380
S'JJ'
p381
F0.9805
tp382
a(S'emojis'
p383
S'NNS'
p384
F0.9319
tp385
a(S'good'
p386
S'JJ'
p387
F0.9639
tp388
a(S'job'
p389
S'NN'
p390
F0.9622
tp391
a(S'apple'
p392
S'NN'
p393
F0.7657
tp394
a(g300
g134
F0.9871
tp395
a(S'You'
p396
S'PRP'
p397
F0.9979
tp398
a(S'added'
p399
S'VBD'
p400
F0.778
tp401
a(S'the'
p402
S'DT'
p403
F0.9941
tp404
a(S'unicorn'
p405
S'NN'
p406
F0.8965
tp407
ag311
tp408
a((lp409
(S'Lovely'
p410
S'NNP'
p411
F0.4545
tp412
a(S'how'
p413
S'WRB'
p414
F0.9505
tp415
a(S'Apple'
p416
S'NNP'
p417
F0.9815
tp418
a(S'added'
p419
S'VBN'
p420
F0.4947
tp421
a(g150
S'DT'
p422
F0.993
tp423
a(S'middle'
p424
S'NN'
p425
F0.9722
tp426
a(S'finger'
p427
S'NN'
p428
F0.9879
tp429
a(S'emoji'
p430
S'NN'
p431
F0.5235
tp432
a(S'good'
p433
S'JJ'
p434
F0.9459
tp435
a(S'job'
p436
S'NN'
p437
F0.9862
tp438
a(S'????????????????????????'
p439
g134
F0.983
tp440
ag311
tp441
a((lp442
(S'RT'
p443
S'RT'
p444
F0.9539
tp445
a(S'Apple'
p446
S'NNP'
p447
F0.9731
tp448
a(S'sucks'
p449
S'VBZ'
p450
F0.9762
tp451
a(S'now'
p452
S'RB'
p453
F0.9863
tp454
a(g134
g134
F0.9926
tp455
a(S'let\xc3\xa2\xe2\x82\xac\xe2\x84\xa2s'
p456
S'NNS'
p457
F0.3644
tp458
a(S'all'
p459
S'DT'
p460
F0.9754
tp461
a(S'find'
p462
S'VBP'
p463
F0.4826
tp464
a(g150
S'DT'
p465
F0.9916
tp466
a(S'new'
p467
S'JJ'
p468
F0.9948
tp469
a(S'company'
p470
S'NN'
p471
F0.9797
tp472
a(S'to'
p473
S'TO'
p474
F0.9874
tp475
a(S'worship'
p476
S'VB'
p477
F0.7699
tp478
ag56
tp479
a((lp480
(S'i'
p481
S'PRP'
p482
F0.9814
tp483
a(S'cannot'
p484
S'MD'
p485
F0.7924
tp486
a(S'for'
p487
S'IN'
p488
F0.9937
tp489
a(S'the'
p490
S'DT'
p491
F0.9955
tp492
a(S'life'
p493
S'NN'
p494
F0.9949
tp495
a(S'of'
p496
S'IN'
p497
F0.9955
tp498
a(S'me'
p499
S'PRP'
p500
F0.9979
tp501
a(S'be'
p502
S'VB'
p503
F0.6414
tp504
a(S'professional'
p505
S'JJ'
p506
F0.933
tp507
a(g35
g35
F0.9887
tp508
a(g481
S'PRP'
p509
F0.9517
tp510
a(S'just'
p511
S'RB'
p512
F0.9975
tp513
a(S"can't"
p514
S'MD'
p515
F0.7752
tp516
a(g134
g134
F0.9888
tp517
a(g481
S'PRP'
p518
F0.9728
tp519
a(S'just'
p520
S'RB'
p521
F0.9974
tp522
a(S'emailed'
p523
S'VBD'
p524
F0.8064
tp525
a(S'apple'
p526
S'NNP'
p527
F0.5026
tp528
a(S'saying'
p529
S'VBG'
p530
F0.9556
tp531
a(S'the'
p532
S'DT'
p533
F0.9907
tp534
a(S'new'
p535
S'JJ'
p536
F0.9576
tp537
a(S'iphone'
p538
S'NN'
p539
F0.9603
tp540
a(S'6s'
p541
S'NNS'
p542
F0.7088
tp543
a(S'snapchat'
p544
S'NN'
p545
F0.2668
tp546
a(S'camera'
p547
S'NN'
p548
F0.9784
tp549
a(S'sucks'
p550
S'VBZ'
p551
F0.9638
tp552
a(S'ass'
p553
S'NN'
p554
F0.8984
tp555
a(S'..'
p556
g5
F0.8728
tp557
ag56
tp558
a((lp559
(S'iPhone'
p560
S'NNP'
p561
F0.575
tp562
a(S'has'
p563
S'VBZ'
p564
F0.9722
tp565
a(g150
S'DT'
p566
F0.9968
tp567
a(S'middle'
p568
S'NN'
p569
F0.9641
tp570
a(S'finger'
p571
S'NN'
p572
F0.9879
tp573
a(S'emoji'
p574
S'NN'
p575
F0.6546
tp576
a(S'now'
p577
S'RB'
p578
F0.966
tp579
a(g134
g134
F0.9928
tp580
a(S'Interesting'
p581
S'JJ'
p582
F0.9416
tp583
a(g134
g134
F0.9913
tp584
a(S'????????????????????????????????????????????'
p585
S'RB'
p586
F0.1576
tp587
a(S'good'
p588
S'JJ'
p589
F0.9801
tp590
a(S'job'
p591
S'NN'
p592
F0.9622
tp593
a(S'apple'
p594
S'NN'
p595
F0.7832
tp596
a(g134
g134
F0.9925
tp597
a(S'????????????????'
p598
g134
F0.9185
tp599
a(S'????????'
p600
g134
F0.9657
tp601
ag311
tp602
a((lp603
(S'????????????????????????'
p604
g134
F0.9242
tp605
a(S'????????'
p606
g134
F0.9015
tp607
a(S'good'
p608
S'JJ'
p609
F0.9525
tp610
a(S'job'
p611
S'NN'
p612
F0.923
tp613
a(S'Apple'
p614
S'NNP'
p615
F0.9024
tp616
ag311
tp617
a((lp618
(S'well'
p619
S'UH'
p620
F0.7308
tp621
a(S'then'
p622
S'IN'
p623
F0.7139
tp624
a(g110
S'PRP'
p625
F0.9967
tp626
a(S'guess'
p627
S'VBP'
p628
F0.9844
tp629
a(S'it'
p630
S'PRP'
p631
F0.999
tp632
a(S'sucks'
p633
S'VBZ'
p634
F0.9894
tp635
a(S'that'
p636
S'IN'
p637
F0.83
tp638
a(g110
S'PRP'
p639
F0.9957
tp640
a(S'already'
p641
S'RB'
p642
F0.9865
tp643
a(S'bought'
p644
S'VBD'
p645
F0.7818
tp646
a(S'it'
p647
S'PRP'
p648
F0.9967
tp649
a(S'at'
p650
S'IN'
p651
F0.9925
tp652
a(S'full'
p653
S'JJ'
p654
F0.961
tp655
a(S'price'
p656
S'NN'
p657
F0.9547
tp658
a(S'and'
p659
S'CC'
p660
F0.9929
tp661
a(S'now'
p662
S'RB'
p663
F0.9815
tp664
a(g110
S'PRP'
p665
F0.9972
tp666
a(S"can't"
p667
S'MD'
p668
F0.8557
tp669
a(S'even'
p670
S'RB'
p671
F0.9821
tp672
a(S'listen'
p673
S'VB'
p674
F0.773
tp675
a(S'to'
p676
S'TO'
p677
F0.9901
tp678
a(S'it'
p679
S'PRP'
p680
F0.9919
tp681
a(S'because'
p682
S'IN'
p683
F0.9903
tp684
a(S'of'
p685
S'IN'
p686
F0.9868
tp687
a(S'this'
p688
S'DT'
p689
F0.9935
tp690
a(S'Apple'
p691
S'NNP'
p692
F0.9793
tp693
a(S'Music'
p694
S'NN'
p695
F0.5532
tp696
a(S'shit'
p697
S'NN'
p698
F0.9821
tp699
ag56
tp700
a((lp701
(S'RT'
p702
S'RT'
p703
F0.9663
tp704
a(g110
S'PRP'
p705
F0.9965
tp706
a(S'must'
p707
S'MD'
p708
F0.8362
tp709
a(S'say'
p710
S'VB'
p711
F0.9873
tp712
a(S'Apple'
p713
S'NNP'
p714
F0.8795
tp715
a(S'did'
p716
S'VBD'
p717
F0.9205
tp718
a(g150
S'DT'
p719
F0.9965
tp720
a(S'good'
p721
S'JJ'
p722
F0.9825
tp723
a(S'job'
p724
S'NN'
p725
F0.9876
tp726
a(S'with'
p727
S'IN'
p728
F0.9994
tp729
a(S'the'
p730
S'DT'
p731
F0.9941
tp732
a(S'new'
p733
S'JJ'
p734
F0.9789
tp735
a(S'emojis'
p736
S'NNS'
p737
F0.9679
tp738
ag311
tp739
a((lp740
(S'One'
p741
S'CD'
p742
F0.8922
tp743
a(S'thing'
p744
S'NN'
p745
F0.9461
tp746
a(g110
S'PRP'
p747
F0.986
tp748
a(S'won\xc3\xa2\xe2\x82\xac\xe2\x84\xa2t'
p749
S'VBD'
p750
F0.4894
tp751
a(S'miss'
p752
S'VBP'
p753
F0.7936
tp754
a(S'when'
p755
S'WRB'
p756
F0.9918
tp757
a(g110
S'PRP'
p758
F0.9985
tp759
a(S'upgrade'
p760
S'VBP'
p761
F0.9152
tp762
a(S'my'
p763
S'PRP$'
p764
F0.9792
tp765
a(S'2009'
p766
S'CD'
p767
F0.8364
tp768
a(S'MacBook'
p769
S'NN'
p770
F0.4647
tp771
a(S'Pro'
p772
S'NN'
p773
F0.6249
tp774
a(S'to'
p775
S'TO'
p776
F0.9908
tp777
a(g150
S'DT'
p778
F0.9924
tp779
a(S'new'
p780
S'JJ'
p781
F0.9882
tp782
a(S'MacBook\xc3\xa2\xe2\x82\xac\xc2\xa6'
p783
S'NN'
p784
F0.1499
tp785
a(S'INSANE'
p786
S'JJ'
p787
F0.9619
tp788
a(S'FAN'
p789
S'NN'
p790
F0.6153
tp791
a(S'NOISE'
p792
S'NN'
p793
F0.7434
tp794
a(S'OMG'
p795
S'UH'
p796
F0.9277
tp797
a(S'ITS'
p798
S'PRP'
p799
F0.9307
tp800
a(S'SO'
p801
S'RB'
p802
F0.7754
tp803
a(S'LOUD'
p804
S'JJ'
p805
F0.7673
tp806
a(S'MAKE'
p807
S'VB'
p808
F0.8106
tp809
a(S'IT'
p810
S'PRP'
p811
F0.9976
tp812
a(S'STOP'
p813
S'VBP'
p814
F0.462
tp815
a(g134
g134
F0.9945
tp816
ag56
tp817
a((lp818
(S'switching'
p819
S'VBG'
p820
F0.9691
tp821
a(S'to'
p822
S'TO'
p823
F0.9943
tp824
a(g150
S'DT'
p825
F0.9965
tp826
a(S'Nexus'
p827
S'NN'
p828
F0.6213
tp829
a(S'phone'
p830
S'NN'
p831
F0.9511
tp832
a(S'it'
p833
S'PRP'
p834
F0.9812
tp835
a(S'causes'
p836
S'VBZ'
p837
F0.912
tp838
a(S'iPhones'
p839
S'NNS'
p840
F0.852
tp841
a(S'to'
p842
S'TO'
p843
F0.9947
tp844
a(S'think'
p845
S'VB'
p846
F0.9455
tp847
a(S'you'
p848
S'PRP'
p849
F0.9993
tp850
a(S'still'
p851
S'RB'
p852
F0.9942
tp853
a(S'have'
p854
S'VB'
p855
F0.6402
tp856
a(S'an'
p857
S'DT'
p858
F0.9606
tp859
a(S'iPhone'
p860
S'NNP'
p861
F0.6485
tp862
a(g134
g134
F0.9921
tp863
a(S'Apple'
p864
S'NNP'
p865
F0.9163
tp866
a(S'sucks'
p867
S'VBZ'
p868
F0.9241
tp869
a(S'for'
p870
S'IN'
p871
F0.9961
tp872
a(S'that'
p873
S'DT'
p874
F0.971
tp875
a(S'stuff'
p876
S'NN'
p877
F0.9757
tp878
a(g134
g134
F0.9941
tp879
ag56
tp880
a((lp881
(S'RT'
p882
S'RT'
p883
F0.9674
tp884
a(S'with'
p885
S'IN'
p886
F0.9978
tp887
a(S'every'
p888
S'DT'
p889
F0.9535
tp890
a(S'update'
p891
S'NN'
p892
F0.8681
tp893
a(S'my'
p894
S'PRP$'
p895
F0.9906
tp896
a(S'phone'
p897
S'NN'
p898
F0.996
tp899
a(S'gets'
p900
S'VBZ'
p901
F0.9514
tp902
a(S'worse'
p903
S'JJ'
p904
F0.4509
tp905
a(g35
g35
F0.9902
tp906
a(S"I'm"
p907
S'PRP'
p908
F0.475
tp909
a(S'so'
p910
S'RB'
p911
F0.9208
tp912
a(S'over'
p913
S'IN'
p914
F0.9901
tp915
a(S'Apple'
p916
S'NNP'
p917
F0.9728
tp918
a(S'????'
p919
g134
F0.9735
tp920
ag56
tp921
a((lp922
(S'These'
p923
S'DT'
p924
F0.9726
tp925
a(S'new'
p926
S'JJ'
p927
F0.9899
tp928
a(S'emojis'
p929
S'NNS'
p930
F0.9844
tp931
a(S'are'
p932
S'VBP'
p933
F0.986
tp934
a(S'so'
p935
S'RB'
p936
F0.9549
tp937
a(S'cute'
p938
S'JJ'
p939
F0.9958
tp940
a(S'????????????????????????????????????'
p941
g134
F0.1748
tp942
a(S'\xc3\xa2\xcb\x9c\xc6\x92'
p943
S'NN'
p944
F0.1406
tp945
a(S'????????????????????????????'
p946
g134
F0.9436
tp947
a(S'\xc3\xa2\xc2\x9d\xc2\xa3'
p948
S'NN'
p949
F0.1095
tp950
a(S'????????'
p951
g134
F0.9467
tp952
a(S'Good'
p953
S'JJ'
p954
F0.8719
tp955
a(S'job'
p956
S'NN'
p957
F0.9716
tp958
a(S'apple'
p959
S'NN'
p960
F0.7605
tp961
a(S'????????'
p962
g134
F0.9761
tp963
ag311
tp964
a((lp965
(S'RT'
p966
S'RT'
p967
F0.9727
tp968
a(S'There\xc3\xa2\xe2\x82\xac\xe2\x84\xa2s'
p969
S'NNP'
p970
F0.3669
tp971
a(g150
S'DT'
p972
F0.9793
tp973
a(S'lot'
p974
S'NN'
p975
F0.9138
tp976
a(S'to'
p977
S'TO'
p978
F0.9905
tp979
a(S'love'
p980
S'VB'
p981
F0.9349
tp982
a(S'about'
p983
S'IN'
p984
F0.9841
tp985
a(S'Apple'
p986
S'NNP'
p987
F0.9892
tp988
a(S'Watch'
p989
S'NNP'
p990
F0.4335
tp991
a(g35
g35
F0.9817
tp992
a(S'but'
p993
S'CC'
p994
F0.996
tp995
a(S'the'
p996
S'DT'
p997
F0.9937
tp998
a(S'truth'
p999
S'NN'
p1000
F0.9883
tp1001
a(S'is'
p1002
S'VBZ'
p1003
F0.9899
tp1004
a(g35
g35
F0.9891
tp1005
a(S'as'
p1006
S'IN'
p1007
F0.899
tp1008
a(g150
S'DT'
p1009
F0.9779
tp1010
a(S'running'
p1011
S'NN'
p1012
F0.9008
tp1013
a(S'watch'
p1014
S'NN'
p1015
F0.8665
tp1016
a(g35
g35
F0.9901
tp1017
a(S'it'
p1018
S'PRP'
p1019
F0.9973
tp1020
a(S'sucks'
p1021
S'VBZ'
p1022
F0.9905
tp1023
ag56
tp1024
a((lp1025
(S'ugh'
p1026
S'UH'
p1027
F0.8924
tp1028
a(S'Jobs'
p1029
S'NNP'
p1030
F0.4913
tp1031
a(S'*'
p1032
S'UH'
p1033
F0.2425
tp1034
a(S'dammit'
p1035
S'UH'
p1036
F0.996
tp1037
a(S'apple'
p1038
S'UH'
p1039
F0.2955
tp1040
a(S'your'
p1041
S'PRP$'
p1042
F0.8936
tp1043
a(S'autocorrect'
p1044
S'NN'
p1045
F0.8556
tp1046
a(S'sucks'
p1047
S'VBZ'
p1048
F0.958
tp1049
a(S'just'
p1050
S'RB'
p1051
F0.9996
tp1052
a(S'like'
p1053
S'IN'
p1054
F0.5668
tp1055
a(S'your'
p1056
S'PRP$'
p1057
F0.9653
tp1058
a(S'founder'
p1059
S'NN'
p1060
F0.9901
tp1061
ag56
tp1062
a((lp1063
(g110
S'PRP'
p1064
F0.9981
tp1065
a(S'had'
p1066
S'VBD'
p1067
F0.9908
tp1068
a(g150
S'DT'
p1069
F0.994
tp1070
a(S'15'
p1071
S'CD'
p1072
F0.9746
tp1073
a(S'"'
p1074
S"''"
p1075
F0.9849
tp1076
a(S'mbp'
p1077
S'NN'
p1078
F0.8025
tp1079
a(S'as'
p1080
S'IN'
p1081
F0.9626
tp1082
a(g150
S'DT'
p1083
F0.9966
tp1084
a(S'desktop'
p1085
S'NN'
p1086
F0.9671
tp1087
a(S'replacement'
p1088
S'NN'
p1089
F0.9823
tp1090
a(S'and'
p1091
S'CC'
p1092
F0.9929
tp1093
a(S'it'
p1094
S'PRP'
p1095
F0.9977
tp1096
a(S'was'
p1097
S'VBD'
p1098
F0.9801
tp1099
a(S'good'
p1100
S'JJ'
p1101
F0.8831
tp1102
a(g35
g35
F0.9874
tp1103
a(g110
S'PRP'
p1104
F0.9903
tp1105
a(S'have'
p1106
S'VBP'
p1107
F0.9852
tp1108
a(g150
S'DT'
p1109
F0.9958
tp1110
a(S'desktop'
p1111
S'NN'
p1112
F0.9588
tp1113
a(S'pc'
p1114
S'NN'
p1115
F0.7049
tp1116
a(S'now'
p1117
S'RB'
p1118
F0.9724
tp1119
a(S'so'
p1120
S'RB'
p1121
F0.7383
tp1122
a(S"I'd"
p1123
S'PRP'
p1124
F0.9588
tp1125
a(S'probably'
p1126
S'RB'
p1127
F0.9968
tp1128
a(S'get'
p1129
S'VB'
p1130
F0.7289
tp1131
a(g150
S'DT'
p1132
F0.9894
tp1133
a(S'13'
p1134
S'CD'
p1135
F0.9572
tp1136
a(g1074
S"''"
p1137
F0.985
tp1138
a(S'because'
p1139
S'IN'
p1140
F0.9921
tp1141
a(g110
S'PRP'
p1142
F0.999
tp1143
a(S'want'
p1144
S'VBP'
p1145
F0.9588
tp1146
ag311
tp1147
a((lp1148
(S'RT'
p1149
S'RT'
p1150
F0.9702
tp1151
a(S'hmm'
p1152
S'UH'
p1153
F0.8844
tp1154
a(S'apple'
p1155
S'NNP'
p1156
F0.5123
tp1157
a(S'music'
p1158
S'NN'
p1159
F0.9406
tp1160
a(S'sucks'
p1161
S'VBZ'
p1162
F0.9311
tp1163
a(g300
g134
F0.9891
tp1164
a(S'buggy'
p1165
S'RB'
p1166
F0.5035
tp1167
a(g35
g35
F0.9911
tp1168
a(S'slow'
p1169
S'JJ'
p1170
F0.8192
tp1171
a(g35
g35
F0.9911
tp1172
a(S'terrible'
p1173
S'JJ'
p1174
F0.9453
tp1175
a(S'UX'
p1176
S'NN'
p1177
F0.5082
tp1178
a(S'across'
p1179
S'IN'
p1180
F0.9904
tp1181
a(S'all'
p1182
S'DT'
p1183
F0.9969
tp1184
a(S'platforms'
p1185
S'NNS'
p1186
F0.824
tp1187
a(g134
g134
F0.9961
tp1188
a(S'ftw'
p1189
S'UH'
p1190
F0.9148
tp1191
ag56
tp1192
a((lp1193
(S'????'
p1194
g134
F0.9174
tp1195
a(S'good'
p1196
S'JJ'
p1197
F0.9296
tp1198
a(S'job'
p1199
S'NN'
p1200
F0.9332
tp1201
a(S'Apple'
p1202
S'NNP'
p1203
F0.8269
tp1204
a(S'you'
p1205
S'PRP'
p1206
F0.9972
tp1207
a(S'finally'
p1208
S'RB'
p1209
F0.9948
tp1210
a(S'made'
p1211
S'VBD'
p1212
F0.8281
tp1213
a(g150
S'DT'
p1214
F0.9917
tp1215
a(S'volleyball'
p1216
S'NN'
p1217
F0.9849
tp1218
a(S'emoji'
p1219
S'NN'
p1220
F0.7795
tp1221
ag311
tp1222
a((lp1223
(S'RT'
p1224
S'RT'
p1225
F0.9539
tp1226
a(S'Apple'
p1227
S'NNP'
p1228
F0.969
tp1229
a(S'music'
p1230
S'NN'
p1231
F0.9593
tp1232
a(S'='
p1233
g5
F0.3354
tp1234
a(S'sucks'
p1235
S'VBZ'
p1236
F0.8537
tp1237
a(g134
g134
F0.9966
tp1238
ag56
tp1239
a((lp1240
(g110
S'PRP'
p1241
F0.9982
tp1242
a(S'hate'
p1243
S'VBP'
p1244
F0.996
tp1245
a(g35
g35
F0.9879
tp1246
a(S'with'
p1247
S'IN'
p1248
F0.9906
tp1249
a(g150
S'DT'
p1250
F0.9941
tp1251
a(S'passion'
p1252
S'NN'
p1253
F0.9979
tp1254
a(g35
g35
F0.9912
tp1255
a(S'working'
p1256
S'VBG'
p1257
F0.9481
tp1258
a(S'with'
p1259
S'IN'
p1260
F0.9989
tp1261
a(S'Apple'
p1262
S'NNP'
p1263
F0.9914
tp1264
a(S'products'
p1265
S'NNS'
p1266
F0.898
tp1267
a(g134
g134
F0.9944
tp1268
a(S'Between'
p1269
S'IN'
p1270
F0.9828
tp1271
a(S'my'
p1272
S'PRP$'
p1273
F0.9946
tp1274
a(S'phone'
p1275
S'NN'
p1276
F0.9966
tp1277
a(g35
g35
F0.9909
tp1278
a(S'my'
p1279
S'PRP$'
p1280
F0.99
tp1281
a(S'laptop'
p1282
S'NN'
p1283
F0.9683
tp1284
a(g35
g35
F0.9909
tp1285
a(S'my'
p1286
S'PRP$'
p1287
F0.9886
tp1288
a(S'desktop'
p1289
S'NN'
p1290
F0.9591
tp1291
a(S'at'
p1292
S'IN'
p1293
F0.9931
tp1294
a(S'home'
p1295
S'NN'
p1296
F0.9147
tp1297
a(g110
S'PRP'
p1298
F0.9901
tp1299
a(S'DONT'
p1300
S'VBP'
p1301
F0.9585
tp1302
a(S'KNOW'
p1303
S'VB'
p1304
F0.9565
tp1305
a(S"WHAT'S"
p1306
S'PRP'
p1307
F0.4603
tp1308
a(S'WORSE'
p1309
S'JJ'
p1310
F0.5599
tp1311
a(g134
g134
F0.995
tp1312
ag56
tp1313
a((lp1314
(S'Good'
p1315
S'JJ'
p1316
F0.777
tp1317
a(S'job'
p1318
S'NN'
p1319
F0.9364
tp1320
a(S'Apple'
p1321
S'NNP'
p1322
F0.8664
tp1323
a(g300
g134
F0.9871
tp1324
a(S'You'
p1325
S'PRP'
p1326
F0.9974
tp1327
a(S'get'
p1328
S'VBP'
p1329
F0.904
tp1330
a(S'me'
p1331
S'PRP'
p1332
F0.9955
tp1333
a(S'to'
p1334
S'TO'
p1335
F0.995
tp1336
a(S'do'
p1337
S'VB'
p1338
F0.984
tp1339
a(S'your'
p1340
S'PRP$'
p1341
F0.8949
tp1342
a(S'stupid'
p1343
S'JJ'
p1344
F0.935
tp1345
a(S'update'
p1346
S'NN'
p1347
F0.9877
tp1348
a(S'and'
p1349
S'CC'
p1350
F0.9952
tp1351
a(S'all'
p1352
S'DT'
p1353
F0.9249
tp1354
a(g110
S'PRP'
p1355
F0.9952
tp1356
a(S'get'
p1357
S'VBP'
p1358
F0.9546
tp1359
a(S'for'
p1360
S'IN'
p1361
F0.995
tp1362
a(S'5'
p1363
S'CD'
p1364
F0.9966
tp1365
a(S'hours'
p1366
S'NNS'
p1367
F0.9629
tp1368
a(S'is'
p1369
S'VBZ'
p1370
F0.9927
tp1371
a(g150
S'DT'
p1372
F0.9929
tp1373
a(S'black'
p1374
S'NN'
p1375
F0.5906
tp1376
a(S'screen'
p1377
S'NN'
p1378
F0.9881
tp1379
a(S'to'
p1380
S'TO'
p1381
F0.9956
tp1382
a(S'connect'
p1383
S'VB'
p1384
F0.9782
tp1385
a(S'to'
p1386
S'TO'
p1387
F0.9918
tp1388
a(S'...'
p1389
g5
F0.9913
tp1390
ag56
tp1391
a((lp1392
(S'It\xc3\xa2\xe2\x82\xac\xe2\x84\xa2s'
p1393
S'PRP'
p1394
F0.5568
tp1395
a(S'confusing'
p1396
S'JJ'
p1397
F0.9248
tp1398
a(g35
g35
F0.9912
tp1399
a(S'and'
p1400
S'CC'
p1401
F0.9989
tp1402
a(S'Apple'
p1403
S'NNP'
p1404
F0.9766
tp1405
a(S'hasn\xc3\xa2\xe2\x82\xac\xe2\x84\xa2t'
p1406
S'NNP'
p1407
F0.2145
tp1408
a(S'done'
p1409
S'VBN'
p1410
F0.9045
tp1411
a(g150
S'DT'
p1412
F0.9874
tp1413
a(S'good'
p1414
S'JJ'
p1415
F0.9825
tp1416
a(S'job'
p1417
S'NN'
p1418
F0.9886
tp1419
a(S'of'
p1420
S'IN'
p1421
F0.9827
tp1422
a(S'explaining'
p1423
S'VBG'
p1424
F0.6461
tp1425
a(g134
g134
F0.9973
tp1426
ag56
tp1427
a((lp1428
(S'????'
p1429
g134
F0.9161
tp1430
a(g150
S'DT'
p1431
F0.993
tp1432
a(S'unicorn'
p1433
S'NN'
p1434
F0.9753
tp1435
a(S'...'
p1436
g5
F0.9969
tp1437
a(S'damn'
p1438
S'UH'
p1439
F0.7057
tp1440
a(g134
g134
F0.9735
tp1441
a(S'Good'
p1442
S'JJ'
p1443
F0.7859
tp1444
a(S'job'
p1445
S'NN'
p1446
F0.957
tp1447
a(S'Apple'
p1448
S'NNP'
p1449
F0.8797
tp1450
ag311
tp1451
a((lp1452
(S'Quite'
p1453
S'RB'
p1454
F0.8887
tp1455
a(S'surprised'
p1456
S'JJ'
p1457
F0.3743
tp1458
a(S'with'
p1459
S'IN'
p1460
F0.9997
tp1461
a(S'the'
p1462
S'DT'
p1463
F0.9967
tp1464
a(S'batt'
p1465
S'NN'
p1466
F0.9866
tp1467
a(g134
g134
F0.9902
tp1468
a(S'performance'
p1469
S'NN'
p1470
F0.919
tp1471
a(S'of'
p1472
S'IN'
p1473
F0.9895
tp1474
a(S'6s'
p1475
S'CD'
p1476
F0.5786
tp1477
a(g134
g134
F0.9899
tp1478
a(S'Discharged'
p1479
S'VBD'
p1480
F0.54
tp1481
a(S'at'
p1482
S'IN'
p1483
F0.9958
tp1484
a(S'8'
p1485
S'CD'
p1486
F0.984
tp1487
a(S'a.m.'
p1488
S'NN'
p1489
F0.908
tp1490
a(g35
g35
F0.9917
tp1491
a(S'used'
p1492
S'VBD'
p1493
F0.9752
tp1494
a(S'it'
p1495
S'PRP'
p1496
F0.9857
tp1497
a(S'heavily'
p1498
S'RB'
p1499
F0.9848
tp1500
a(g35
g35
F0.9922
tp1501
a(S'still'
p1502
S'RB'
p1503
F0.9693
tp1504
a(S'last'
p1505
S'JJ'
p1506
F0.9761
tp1507
a(S'41%'
p1508
S'CD'
p1509
F0.4523
tp1510
a(S'now'
p1511
S'RB'
p1512
F0.9714
tp1513
a(g134
g134
F0.993
tp1514
a(S'Good'
p1515
S'JJ'
p1516
F0.8114
tp1517
a(S'job'
p1518
S'NN'
p1519
F0.9534
tp1520
a(S'Apple'
p1521
S'NNP'
p1522
F0.9089
tp1523
a(S'for'
p1524
S'IN'
p1525
F0.9873
tp1526
a(S'ur'
p1527
S'PRP$'
p1528
F0.5748
tp1529
a(S'new'
p1530
S'JJ'
p1531
F0.9899
tp1532
a(S'chip'
p1533
S'NN'
p1534
F0.9841
tp1535
a(g300
g134
F0.9979
tp1536
ag311
tp1537
a((lp1538
(g481
S'PRP'
p1539
F0.9883
tp1540
a(S'love'
p1541
S'VBP'
p1542
F0.9936
tp1543
a(S'my'
p1544
S'PRP$'
p1545
F0.9831
tp1546
a(S'iphone'
p1547
S'NN'
p1548
F0.9163
tp1549
a(S'but'
p1550
S'CC'
p1551
F0.9855
tp1552
a(S'apple'
p1553
S'NN'
p1554
F0.4546
tp1555
a(S'sucks'
p1556
S'VBZ'
p1557
F0.9762
tp1558
ag56
tp1559
a((lp1560
(S'????????????????????????'
p1561
g134
F0.9089
tp1562
a(S'Good'
p1563
S'JJ'
p1564
F0.7956
tp1565
a(S'job'
p1566
S'NN'
p1567
F0.9494
tp1568
a(S'Apple'
p1569
S'NNP'
p1570
F0.8597
tp1571
a(S'????????????????'
p1572
g134
F0.9737
tp1573
ag311
tp1574
a((lp1575
(S'????'
p1576
g134
F0.9122
tp1577
a(S'and'
p1578
S'CC'
p1579
F0.9939
tp1580
a(S'????????'
p1581
g134
F0.9162
tp1582
a(S'and'
p1583
S'CC'
p1584
F0.9934
tp1585
a(S'????'
p1586
g134
F0.9377
tp1587
a(S'are'
p1588
S'VBP'
p1589
F0.9335
tp1590
a(S'my'
p1591
S'PRP$'
p1592
F0.9922
tp1593
a(S'new'
p1594
S'JJ'
p1595
F0.9879
tp1596
a(S'fave'
p1597
S'NN'
p1598
F0.7126
tp1599
a(S'emojis'
p1600
S'NNS'
p1601
F0.9624
tp1602
a(g300
g134
F0.9891
tp1603
a(S'Good'
p1604
S'JJ'
p1605
F0.8509
tp1606
a(S'job'
p1607
S'NN'
p1608
F0.9507
tp1609
a(S'Apple'
p1610
S'NNP'
p1611
F0.8787
tp1612
a(g134
g134
F0.9961
tp1613
ag311
tp1614
a((lp1615
(S'RT'
p1616
S'RT'
p1617
F0.9705
tp1618
a(S'Also'
p1619
S'RB'
p1620
F0.9738
tp1621
a(g35
g35
F0.9881
tp1622
a(S'Apple'
p1623
S'NNP'
p1624
F0.9924
tp1625
a(g35
g35
F0.9858
tp1626
a(S'please'
p1627
S'UH'
p1628
F0.8919
tp1629
a(S'stop'
p1630
S'VB'
p1631
F0.8874
tp1632
a(S'changing'
p1633
S'VBG'
p1634
F0.9915
tp1635
a(S"'"
p1636
S"''"
p1637
F0.9493
tp1638
a(S'fucking'
p1639
S'VBG'
p1640
F0.4638
tp1641
a(g1636
S"''"
p1642
F0.9416
tp1643
a(S'to'
p1644
S'TO'
p1645
F0.9937
tp1646
a(g1636
S"''"
p1647
F0.8834
tp1648
a(S'ducking'
p1649
S'VBG'
p1650
F0.9272
tp1651
a(g1636
S"''"
p1652
F0.9414
tp1653
a(g35
g35
F0.9897
tp1654
a(S"you're"
p1655
S'PRP'
p1656
F0.4638
tp1657
a(S'worse'
p1658
S'JJ'
p1659
F0.4999
tp1660
a(S'than'
p1661
S'IN'
p1662
F0.9933
tp1663
a(S'my'
p1664
S'PRP$'
p1665
F0.9946
tp1666
a(S'mum'
p1667
S'NN'
p1668
F0.9354
tp1669
a(g134
g134
F0.9941
tp1670
a(S"I'm"
p1671
S'PRP'
p1672
F0.4489
tp1673
a(S'31'
p1674
S'CD'
p1675
F0.9687
tp1676
a(g35
g35
F0.9902
tp1677
a(g110
S'PRP'
p1678
F0.983
tp1679
a(S'can'
p1680
S'MD'
p1681
F0.9935
tp1682
a(S'make'
p1683
S'VB'
p1684
F0.9982
tp1685
a(S'my'
p1686
S'PRP$'
p1687
F0.995
tp1688
a(S'own'
p1689
S'JJ'
p1690
F0.9687
tp1691
a(S'decisions'
p1692
S'NNS'
p1693
F0.9939
tp1694
a(g134
g134
F0.9956
tp1695
a(S'T\xc3\xa2\xe2\x82\xac\xc2\xa6'
p1696
S'NNP'
p1697
F0.2194
tp1698
ag56
tp1699
a((lp1700
(S'Everyone'
p1701
S'NN'
p1702
F0.9833
tp1703
a(S'knows'
p1704
S'VBZ'
p1705
F0.9584
tp1706
a(g110
S'PRP'
p1707
F0.9978
tp1708
a(S'love'
p1709
S'VBP'
p1710
F0.9957
tp1711
a(S'everything'
p1712
S'NN'
p1713
F0.9445
tp1714
a(S'Apple'
p1715
S'NNP'
p1716
F0.8958
tp1717
a(g35
g35
F0.9891
tp1718
a(S'but'
p1719
S'CC'
p1720
F0.996
tp1721
a(S'the'
p1722
S'DT'
p1723
F0.9928
tp1724
a(S'UI'
p1725
S'NNP'
p1726
F0.6984
tp1727
a(S'of'
p1728
S'IN'
p1729
F0.9293
tp1730
a(S'sucks'
p1731
S'VBZ'
p1732
F0.768
tp1733
a(g134
g134
F0.9952
tp1734
a(S'Why'
p1735
S'WRB'
p1736
F0.9321
tp1737
a(S"can't"
p1738
S'MD'
p1739
F0.795
tp1740
a(g110
S'PRP'
p1741
F0.9886
tp1742
a(S'swipe'
p1743
S'VBP'
p1744
F0.9524
tp1745
a(S'to'
p1746
S'TO'
p1747
F0.9969
tp1748
a(S'delete'
p1749
S'VB'
p1750
F0.9983
tp1751
a(S'any'
p1752
S'DT'
p1753
F0.9829
tp1754
a(S'songs'
p1755
S'NNS'
p1756
F0.9895
tp1757
a(S'that'
p1758
S'IN'
p1759
F0.5694
tp1760
a(S'iOS9'
p1761
S'PRP'
p1762
F0.2499
tp1763
a(S'has'
p1764
S'VBZ'
p1765
F0.9492
tp1766
a(S'duplicated'
p1767
S'VBN'
p1768
F0.9432
tp1769
a(S'?!?'
p1770
g134
F0.9829
tp1771
ag56
tp1772
a((lp1773
(S'Apple'
p1774
S'NNP'
p1775
F0.9012
tp1776
a(S'and'
p1777
S'CC'
p1778
F0.9963
tp1779
a(S'sprint'
p1780
S'NNP'
p1781
F0.6518
tp1782
a(S'are'
p1783
S'VBP'
p1784
F0.9074
tp1785
a(S'worse'
p1786
S'JJ'
p1787
F0.4788
tp1788
a(S'than'
p1789
S'IN'
p1790
F0.9896
tp1791
a(S'crocs'
p1792
S'NNS'
p1793
F0.9227
tp1794
ag56
tp1795
a((lp1796
(S'Spotify'
p1797
S'NNP'
p1798
F0.947
tp1799
a(S'literally'
p1800
S'RB'
p1801
F0.9938
tp1802
a(S'sucks'
p1803
S'VBZ'
p1804
F0.9315
tp1805
a(S'so'
p1806
S'RB'
p1807
F0.9593
tp1808
a(S'much'
p1809
S'RB'
p1810
F0.8929
tp1811
a(g35
g35
F0.9909
tp1812
a(S'the'
p1813
S'DT'
p1814
F0.9556
tp1815
a(S'Apple'
p1816
S'NNP'
p1817
F0.9736
tp1818
a(S'interface'
p1819
S'NN'
p1820
F0.9905
tp1821
a(S'is'
p1822
S'VBZ'
p1823
F0.9953
tp1824
a(S'trash'
p1825
S'NN'
p1826
F0.5456
tp1827
a(S'and'
p1828
S'CC'
p1829
F0.9929
tp1830
a(S'the'
p1831
S'DT'
p1832
F0.9673
tp1833
a(S'curated'
p1834
S'NN'
p1835
F0.4332
tp1836
a(S'playlists'
p1837
S'NNS'
p1838
F0.9829
tp1839
a(S'are'
p1840
S'VBP'
p1841
F0.9782
tp1842
a(S'trash'
p1843
S'NN'
p1844
F0.5132
tp1845
a(S'like'
p1846
S'IN'
p1847
F0.8922
tp1848
a(S'why'
p1849
S'WRB'
p1850
F0.9347
tp1851
ag56
tp1852
a((lp1853
(S'Damn'
p1854
S'UH'
p1855
F0.902
tp1856
a(g35
g35
F0.9846
tp1857
a(S'the'
p1858
S'DT'
p1859
F0.9912
tp1860
a(S'new'
p1861
S'JJ'
p1862
F0.8831
tp1863
a(S'Apple'
p1864
S'NNP'
p1865
F0.8167
tp1866
a(S'TV'
p1867
S'NN'
p1868
F0.5634
tp1869
a(S'only'
p1870
S'RB'
p1871
F0.9681
tp1872
a(S'has'
p1873
S'VBZ'
p1874
F0.9552
tp1875
a(S'an'
p1876
S'DT'
p1877
F0.9751
tp1878
a(S'hdmi'
p1879
S'NN'
p1880
F0.9309
tp1881
a(S'output'
p1882
S'NN'
p1883
F0.9765
tp1884
a(g35
g35
F0.9907
tp1885
a(S'no'
p1886
S'DT'
p1887
F0.821
tp1888
a(S'optical'
p1889
S'NN'
p1890
F0.7852
tp1891
a(g134
g134
F0.9922
tp1892
a(S'Sucks'
p1893
S'VBZ'
p1894
F0.6261
tp1895
a(S'for'
p1896
S'IN'
p1897
F0.9894
tp1898
a(S'streaming'
p1899
S'NN'
p1900
F0.5792
tp1901
a(S'music'
p1902
S'NN'
p1903
F0.9967
tp1904
a(S'only'
p1905
S'RB'
p1906
F0.9184
tp1907
a(g134
g134
F0.994
tp1908
ag56
tp1909
a((lp1910
(S'So'
p1911
S'RB'
p1912
F0.5664
tp1913
a(S'not'
p1914
S'RB'
p1915
F0.9958
tp1916
a(S'only'
p1917
S'RB'
p1918
F0.9643
tp1919
a(S'does'
p1920
S'VBZ'
p1921
F0.8716
tp1922
a(S'the'
p1923
S'DT'
p1924
F0.993
tp1925
a(S'iOS'
p1926
S'NNP'
p1927
F0.8503
tp1928
a(S'update'
p1929
S'NN'
p1930
F0.9599
tp1931
a(S'have'
p1932
S'VB'
p1933
F0.7096
tp1934
a(S'the'
p1935
S'DT'
p1936
F0.9951
tp1937
a(S'middle'
p1938
S'NN'
p1939
F0.9732
tp1940
a(S'finger'
p1941
S'NN'
p1942
F0.9879
tp1943
a(S'emoji'
p1944
S'NN'
p1945
F0.7651
tp1946
a(g35
g35
F0.9913
tp1947
a(S'it'
p1948
S'PRP'
p1949
F0.9959
tp1950
a(S'also'
p1951
S'RB'
p1952
F0.9923
tp1953
a(S'has'
p1954
S'VBZ'
p1955
F0.9577
tp1956
a(g150
S'DT'
p1957
F0.9959
tp1958
a(S'jazz'
p1959
S'NN'
p1960
F0.9837
tp1961
a(S'hands'
p1962
S'NNS'
p1963
F0.7854
tp1964
a(S'on'
p1965
S'IN'
p1966
F0.9882
tp1967
a(g134
g134
F0.9964
tp1968
a(S'Good'
p1969
S'JJ'
p1970
F0.8114
tp1971
a(S'job'
p1972
S'NN'
p1973
F0.9541
tp1974
a(S'Apple'
p1975
S'NNP'
p1976
F0.8513
tp1977
a(g300
g134
F0.9948
tp1978
ag311
tp1979
a((lp1980
(S"WC's"
p1981
S'NNP'
p1982
F0.79
tp1983
a(S'album'
p1984
S'NN'
p1985
F0.779
tp1986
a(S'is'
p1987
S'VBZ'
p1988
F0.9942
tp1989
a(S'????????????,'
p1990
S'NNP'
p1991
F0.5497
tp1992
a(S'Apple'
p1993
S'NNP'
p1994
F0.9992
tp1995
a(S'Music'
p1996
S'NN'
p1997
F0.4976
tp1998
a(S'with'
p1999
S'IN'
p2000
F0.9993
tp2001
a(S'the'
p2002
S'DT'
p2003
F0.9878
tp2004
a(S'connect'
p2005
S'NN'
p2006
F0.9619
tp2007
a(g35
g35
F0.9898
tp2008
a(S'good'
p2009
S'JJ'
p2010
F0.9361
tp2011
a(S'job'
p2012
S'NN'
p2013
F0.9834
tp2014
ag311
tp2015
a((lp2016
(S'RT'
p2017
S'RT'
p2018
F0.971
tp2019
a(S'Never'
p2020
S'RB'
p2021
F0.9445
tp2022
a(S'came'
p2023
S'VBD'
p2024
F0.4801
tp2025
a(S'across'
p2026
S'IN'
p2027
F0.9937
tp2028
a(g150
S'DT'
p2029
F0.9982
tp2030
a(S'thing'
p2031
S'NN'
p2032
F0.997
tp2033
a(S'so'
p2034
S'RB'
p2035
F0.8891
tp2036
a(S'poorly'
p2037
S'RB'
p2038
F0.9908
tp2039
a(S'designed'
p2040
S'VBD'
p2041
F0.5854
tp2042
a(S'as'
p2043
S'IN'
p2044
F0.987
tp2045
a(S'Apple'
p2046
S'NNP'
p2047
F0.9962
tp2048
a(S'Music'
p2049
S'NNP'
p2050
F0.5
tp2051
a(g134
g134
F0.9957
tp2052
a(S"It's"
p2053
S'PRP'
p2054
F0.6736
tp2055
a(S'worse'
p2056
S'JJ'
p2057
F0.456
tp2058
a(S'than'
p2059
S'IN'
p2060
F0.9973
tp2061
a(S'Apple'
p2062
S'NNP'
p2063
F0.9883
tp2064
a(S'maps'
p2065
S'NN'
p2066
F0.4584
tp2067
a(S'gen1'
p2068
S'NN'
p2069
F0.3978
tp2070
a(g134
g134
F0.9922
tp2071
a(S'What'
p2072
S'WP'
p2073
F0.9605
tp2074
a(g150
S'DT'
p2075
F0.9956
tp2076
a(S'piece'
p2077
S'NN'
p2078
F0.9951
tp2079
a(S'of'
p2080
S'IN'
p2081
F0.9914
tp2082
a(S'crap'
p2083
S'NN'
p2084
F0.9215
tp2085
a(g300
g134
F0.9954
tp2086
a(S'#applem'
p2087
S'HT'
p2088
F0.9485
tp2089
a(S'\xc3\xa2\xe2\x82\xac\xc2\xa6'
p2090
S'NN'
p2091
F0.1191
tp2092
ag56
tp2093
a((lp2094
(S'RT'
p2095
S'RT'
p2096
F0.9493
tp2097
a(S'Good'
p2098
S'JJ'
p2099
F0.7994
tp2100
a(S'job'
p2101
S'NN'
p2102
F0.9929
tp2103
a(g35
g35
F0.9882
tp2104
a(S'Apple'
p2105
S'NNP'
p2106
F0.992
tp2107
a(g35
g35
F0.9903
tp2108
a(S'for'
p2109
S'IN'
p2110
F0.9681
tp2111
a(S'placing'
p2112
S'VBG'
p2113
F0.9956
tp2114
a(S'the'
p2115
S'DT'
p2116
F0.9927
tp2117
a(S'popcorn'
p2118
S'NN'
p2119
F0.7946
tp2120
a(S'emoji'
p2121
S'NN'
p2122
F0.8558
tp2123
a(S'next'
p2124
S'JJ'
p2125
F0.9204
tp2126
a(S'to'
p2127
S'TO'
p2128
F0.9792
tp2129
a(S'the'
p2130
S'DT'
p2131
F0.9968
tp2132
a(S'wine'
p2133
S'NN'
p2134
F0.964
tp2135
a(S'for'
p2136
S'IN'
p2137
F0.9938
tp2138
a(S'#ScandalABC'
p2139
S'HT'
p2140
F0.944
tp2141
a(S'????????'
p2142
g134
F0.926
tp2143
a(S'#ScandaI'
p2144
S'HT'
p2145
F0.9878
tp2146
ag311
tp2147
a((lp2148
(S'apple'
p2149
S'NNP'
p2150
F0.6904
tp2151
a(S'company'
p2152
S'NN'
p2153
F0.8468
tp2154
a(S'sucks'
p2155
S'VBZ'
p2156
F0.9688
tp2157
ag56
tp2158
a((lp2159
(S'AND'
p2160
S'CC'
p2161
F0.9868
tp2162
a(g150
S'DT'
p2163
F0.9772
tp2164
a(S'taco'
p2165
S'NN'
p2166
F0.9168
tp2167
a(S'emoji'
p2168
S'NN'
p2169
F0.8612
tp2170
a(g134
g134
F0.993
tp2171
a(S'Good'
p2172
S'JJ'
p2173
F0.8114
tp2174
a(S'job'
p2175
S'NN'
p2176
F0.9931
tp2177
a(g35
g35
F0.9891
tp2178
a(S'Apple'
p2179
S'NNP'
p2180
F0.987
tp2181
ag311
tp2182
a((lp2183
(S'????????????'
p2184
g134
F0.9123
tp2185
a(S'and'
p2186
S'CC'
p2187
F0.9957
tp2188
a(g150
S'DT'
p2189
F0.9912
tp2190
a(S'lion'
p2191
S'NN'
p2192
F0.9734
tp2193
a(S'yes'
p2194
S'UH'
p2195
F0.7396
tp2196
a(S'apple'
p2197
S'NNP'
p2198
F0.4246
tp2199
a(S'good'
p2200
S'JJ'
p2201
F0.9423
tp2202
a(S'job'
p2203
S'NN'
p2204
F0.9812
tp2205
ag311
tp2206
a((lp2207
(S'RT'
p2208
S'RT'
p2209
F0.9723
tp2210
a(S'Because'
p2211
S'IN'
p2212
F0.9622
tp2213
a(S'it'
p2214
S'PRP'
p2215
F0.9971
tp2216
a(S'sucks\xc3\xa2\xe2\x82\xac'
p2217
S'VBZ'
p2218
F0.1292
tp2219
a(S'\xe2\x80\x9d'
p2220
S"''"
p2221
F0.8177
tp2222
a(S'>'
p2223
g5
F0.2833
tp2224
a(S'Apple'
p2225
S'NNP'
p2226
F0.9887
tp2227
a(S'Music'
p2228
S'NNP'
p2229
F0.5665
tp2230
a(S'loses'
p2231
S'VBZ'
p2232
F0.9267
tp2233
a(S'4.5'
p2234
S'CD'
p2235
F0.8258
tp2236
a(S'M'
p2237
S'NNP'
p2238
F0.6473
tp2239
a(S'subs'
p2240
S'NNS'
p2241
F0.8132
tp2242
a(S'after'
p2243
S'IN'
p2244
F0.9934
tp2245
a(S'trial'
p2246
S'NN'
p2247
F0.9903
tp2248
a(S'expires'
p2249
S'VBZ'
p2250
F0.9589
tp2251
ag56
tp2252
a((lp2253
(S'Okay'
p2254
S'UH'
p2255
F0.8622
tp2256
a(S"here's"
p2257
S'RB'
p2258
F0.469
tp2259
a(S'the'
p2260
S'DT'
p2261
F0.9962
tp2262
a(S'story'
p2263
S'NN'
p2264
F0.9954
tp2265
a(g5
g5
F0.9767
tp2266
a(S'Basically'
p2267
S'RB'
p2268
F0.9926
tp2269
a(S'...'
p2270
g5
F0.996
tp2271
a(g110
S'PRP'
p2272
F0.9958
tp2273
a(S"didn't"
p2274
S'VBD'
p2275
F0.4849
tp2276
a(S'realized'
p2277
S'VB'
p2278
F0.4718
tp2279
a(S'how'
p2280
S'WRB'
p2281
F0.9415
tp2282
a(S'loud'
p2283
S'JJ'
p2284
F0.9323
tp2285
a(S'my'
p2286
S'PRP$'
p2287
F0.9926
tp2288
a(S'laptop'
p2289
S'NN'
p2290
F0.9836
tp2291
a(S'is'
p2292
S'VBZ'
p2293
F0.9878
tp2294
a(S'('
p2295
S'-LRB-'
p2296
F0.9328
tp2297
a(S'the'
p2298
S'DT'
p2299
F0.9887
tp2300
a(S'new'
p2301
S'JJ'
p2302
F0.9577
tp2303
a(S'MacBook'
p2304
S'NN'
p2305
F0.7631
tp2306
a(S'Pro'
p2307
S'NN'
p2308
F0.7706
tp2309
a(S'is'
p2310
S'VBZ'
p2311
F0.9903
tp2312
a(S'louder'
p2313
S'JJR'
p2314
F0.8982
tp2315
a(S'than'
p2316
S'IN'
p2317
F0.9953
tp2318
a(S'the'
p2319
S'DT'
p2320
F0.9957
tp2321
a(S'old'
p2322
S'JJ'
p2323
F0.7696
tp2324
a(S'edition'
p2325
S'NN'
p2326
F0.9945
tp2327
a(S')'
p2328
S'-RRB-'
p2329
F0.9253
tp2330
ag56
tp2331
a((lp2332
(S'????????'
p2333
g134
F0.9177
tp2334
a(g110
S'PRP'
p2335
F0.9977
tp2336
a(S'have'
p2337
S'VBP'
p2338
F0.984
tp2339
a(S'been'
p2340
S'VBN'
p2341
F0.987
tp2342
a(S'using'
p2343
S'VBG'
p2344
F0.9924
tp2345
a(S'this'
p2346
S'DT'
p2347
F0.9956
tp2348
a(S'emoji'
p2349
S'NN'
p2350
F0.8157
tp2351
a(S'like'
p2352
S'IN'
p2353
F0.9442
tp2354
a(S'no'
p2355
S'DT'
p2356
F0.9323
tp2357
a(S'other'
p2358
S'JJ'
p2359
F0.6065
tp2360
a(g134
g134
F0.9916
tp2361
a(S'Good'
p2362
S'JJ'
p2363
F0.7856
tp2364
a(S'job'
p2365
S'NN'
p2366
F0.9716
tp2367
a(S'apple'
p2368
S'NN'
p2369
F0.6967
tp2370
ag311
tp2371
a((lp2372
(S'RT'
p2373
S'RT'
p2374
F0.9539
tp2375
a(S'Apple'
p2376
S'NNP'
p2377
F0.9657
tp2378
a(S'TV'
p2379
S'NNP'
p2380
F0.7748
tp2381
a(S'2015'
p2382
S'CD'
p2383
F0.6796
tp2384
a(S'review'
p2385
S'NN'
p2386
F0.9844
tp2387
a(g5
g5
F0.9695
tp2388
a(S'Fast'
p2389
S'RB'
p2390
F0.5114
tp2391
a(S'and'
p2392
S'CC'
p2393
F0.9893
tp2394
a(S'easy'
p2395
S'JJ'
p2396
F0.9097
tp2397
a(S'to'
p2398
S'TO'
p2399
F0.9954
tp2400
a(S'navigate'
p2401
S'VB'
p2402
F0.9865
tp2403
a(g35
g35
F0.9868
tp2404
a(S'but'
p2405
S'CC'
p2406
F0.9939
tp2407
a(S'keyboard'
p2408
S'NN'
p2409
F0.8972
tp2410
a(S'worse'
p2411
S'JJ'
p2412
F0.3493
tp2413
a(g35
g35
F0.9893
tp2414
a(S'Siri'
p2415
S'NNP'
p2416
F0.9995
tp2417
a(S'limited'
p2418
S'JJ'
p2419
F0.4551
tp2420
a(S'\xc3\xa2\xe2\x82\xac\xc2\xa6'
p2421
S'NN'
p2422
F0.3547
tp2423
ag56
tp2424
a((lp2425
(S'????'
p2426
g134
F0.9208
tp2427
a(S'Wow'
p2428
S'UH'
p2429
F0.8642
tp2430
a(S'that'
p2431
S'DT'
p2432
F0.4425
tp2433
a(S'sucks'
p2434
S'VBZ'
p2435
F0.9759
tp2436
a(g300
g134
F0.9939
tp2437
a(S'How'
p2438
S'WRB'
p2439
F0.9392
tp2440
a(S'about'
p2441
S'IN'
p2442
F0.8987
tp2443
a(S'fighting'
p2444
S'VBG'
p2445
F0.9107
tp2446
a(S'together'
p2447
S'RB'
p2448
F0.8881
tp2449
a(S'against'
p2450
S'IN'
p2451
F0.9961
tp2452
a(S'apple'
p2453
S'NN'
p2454
F0.4869
tp2455
a(S'?'
p2456
g134
F0.9955
tp2457
ag56
tp2458
a((lp2459
(S'My'
p2460
S'PRP$'
p2461
F0.9017
tp2462
a(S'hoover'
p2463
S'NN'
p2464
F0.8451
tp2465
a(g2295
S'-LRB-'
p2466
F0.9248
tp2467
a(S'MacBook'
p2468
S'NNP'
p2469
F0.7031
tp2470
a(g2328
S'-RRB-'
p2471
F0.9463
tp2472
a(S'is'
p2473
S'VBZ'
p2474
F0.9847
tp2475
a(S'getting'
p2476
S'VBG'
p2477
F0.9971
tp2478
a(S'ridiculously'
p2479
S'RB'
p2480
F0.9989
tp2481
a(S'loud'
p2482
S'JJ'
p2483
F0.8953
tp2484
a(g134
g134
F0.9928
tp2485
a(S"I'm"
p2486
S'PRP'
p2487
F0.6589
tp2488
a(S'so'
p2489
S'RB'
p2490
F0.9758
tp2491
a(S'afraid'
p2492
S'JJ'
p2493
F0.8737
tp2494
a(S'it'
p2495
S'PRP'
p2496
F0.9958
tp2497
a(S'might'
p2498
S'MD'
p2499
F0.9586
tp2500
a(S'just'
p2501
S'RB'
p2502
F0.9969
tp2503
a(S'blow'
p2504
S'VB'
p2505
F0.8422
tp2506
a(S'up'
p2507
S'RP'
p2508
F0.781
tp2509
a(S'on'
p2510
S'IN'
p2511
F0.998
tp2512
a(S'me'
p2513
S'PRP'
p2514
F0.9172
tp2515
a(S'one'
p2516
S'CD'
p2517
F0.9143
tp2518
a(S'day'
p2519
S'NN'
p2520
F0.9941
tp2521
a(g134
g134
F0.9957
tp2522
a(S'Time'
p2523
S'NN'
p2524
F0.7189
tp2525
a(S'for'
p2526
S'IN'
p2527
F0.9979
tp2528
a(g150
S'DT'
p2529
F0.9932
tp2530
a(S'new'
p2531
S'JJ'
p2532
F0.9923
tp2533
a(S'one'
p2534
S'CD'
p2535
F0.7268
tp2536
a(S'me'
p2537
S'PRP'
p2538
F0.9969
tp2539
a(S'thinks'
p2540
S'VBP'
p2541
F0.4309
tp2542
a(g134
g134
F0.9957
tp2543
ag56
tp2544
a((lp2545
(S'So'
p2546
S'RB'
p2547
F0.4963
tp2548
a(S'having'
p2549
S'VBG'
p2550
F0.9844
tp2551
a(g150
S'DT'
p2552
F0.9952
tp2553
a(S'new'
p2554
S'JJ'
p2555
F0.9926
tp2556
a(S'iPhone'
p2557
S'NN'
p2558
F0.8948
tp2559
a(S'is'
p2560
S'VBZ'
p2561
F0.9897
tp2562
a(S'pretty'
p2563
S'RB'
p2564
F0.9879
tp2565
a(S'nice'
p2566
S'JJ'
p2567
F0.9912
tp2568
a(g134
g134
F0.991
tp2569
a(S'Not'
p2570
S'RB'
p2571
F0.9898
tp2572
a(S'even'
p2573
S'RB'
p2574
F0.9912
tp2575
a(S'gonna'
p2576
S'VBG'
p2577
F0.9745
tp2578
a(S'lie'
p2579
S'VB'
p2580
F0.976
tp2581
a(g134
g134
F0.9929
tp2582
a(S'Good'
p2583
S'JJ'
p2584
F0.8372
tp2585
a(S'job'
p2586
S'NN'
p2587
F0.96
tp2588
a(S'Apple'
p2589
S'NNP'
p2590
F0.8991
tp2591
ag311
tp2592
a((lp2593
(S'My'
p2594
S'PRP$'
p2595
F0.9483
tp2596
a(S'macbook'
p2597
S'NN'
p2598
F0.8836
tp2599
a(S'fan'
p2600
S'NN'
p2601
F0.9772
tp2602
a(S'noise'
p2603
S'NN'
p2604
F0.9828
tp2605
a(S'is'
p2606
S'VBZ'
p2607
F0.9932
tp2608
a(S'extremely'
p2609
S'RB'
p2610
F0.9984
tp2611
a(S'loud'
p2612
S'JJ'
p2613
F0.8953
tp2614
a(g134
g134
F0.9909
tp2615
a(S'Should'
p2616
S'MD'
p2617
F0.9259
tp2618
a(g110
S'PRP'
p2619
F0.9952
tp2620
a(S'buy'
p2621
S'VBP'
p2622
F0.9474
tp2623
a(g150
S'DT'
p2624
F0.9918
tp2625
a(S'new'
p2626
S'JJ'
p2627
F0.9969
tp2628
a(S'fan'
p2629
S'NN'
p2630
F0.9807
tp2631
a(g2456
g134
F0.9962
tp2632
ag56
tp2633
a((lp2634
(S'????????????????'
p2635
g134
F0.9193
tp2636
a(S'these'
p2637
S'DT'
p2638
F0.9745
tp2639
a(S'fit'
p2640
S'NN'
p2641
F0.3206
tp2642
a(S'my'
p2643
S'PRP$'
p2644
F0.9929
tp2645
a(S'personality'
p2646
S'NN'
p2647
F0.986
tp2648
a(S'so'
p2649
S'RB'
p2650
F0.7202
tp2651
a(S'well'
p2652
S'RB'
p2653
F0.6507
tp2654
a(g134
g134
F0.9902
tp2655
a(S'good'
p2656
S'JJ'
p2657
F0.9245
tp2658
a(S'job'
p2659
S'NN'
p2660
F0.9648
tp2661
a(S'apple'
p2662
S'NN'
p2663
F0.7071
tp2664
ag311
tp2665
a((lp2666
(S'New'
p2667
S'JJ'
p2668
F0.8469
tp2669
a(S'figure'
p2670
S'NN'
p2671
F0.8534
tp2672
a(S'skate'
p2673
S'NN'
p2674
F0.594
tp2675
a(S'emoji'
p2676
S'NN'
p2677
F0.8657
tp2678
a(g35
g35
F0.9923
tp2679
a(S'good'
p2680
S'JJ'
p2681
F0.9363
tp2682
a(S'job'
p2683
S'NN'
p2684
F0.9365
tp2685
a(S'Apple'
p2686
S'NNP'
p2687
F0.8377
tp2688
a(S'????????'
p2689
g134
F0.974
tp2690
ag311
tp2691
a((lp2692
(S'APPLE'
p2693
S'NNP'
p2694
F0.9334
tp2695
a(S'DID'
p2696
S'VBD'
p2697
F0.7314
tp2698
a(S'A'
p2699
S'DT'
p2700
F0.979
tp2701
a(S'GOOD'
p2702
S'JJ'
p2703
F0.9627
tp2704
a(S'JOB'
p2705
S'NN'
p2706
F0.826
tp2707
a(S'HAHA'
p2708
S'UH'
p2709
F0.9222
tp2710
a(S'????'
p2711
g134
F0.9215
tp2712
ag311
tp2713
a((lp2714
(S'Apple'
p2715
S'NNP'
p2716
F0.9095
tp2717
a(S'sucks'
p2718
S'VBZ'
p2719
F0.9649
tp2720
a(S'Ass'
p2721
S'NNP'
p2722
F0.329
tp2723
a(S'or'
p2724
S'CC'
p2725
F0.972
tp2726
a(S'Apple\xc3\xa2\xe2\x82\xac\xe2\x84\xa2s'
p2727
S'NNP'
p2728
F0.7094
tp2729
a(S'iPhone'
p2730
S'NNP'
p2731
F0.9764
tp2732
a(S'6s'
p2733
S'CD'
p2734
F0.433
tp2735
a(S'sucks'
p2736
S'VBZ'
p2737
F0.9172
tp2738
a(S'ass'
p2739
S'NN'
p2740
F0.7792
tp2741
ag56
tp2742
a((lp2743
(S'tell'
p2744
S'VB'
p2745
F0.9249
tp2746
a(S'her'
p2747
S'PRP'
p2748
F0.8918
tp2749
a(S'to'
p2750
S'TO'
p2751
F0.9946
tp2752
a(S'download'
p2753
S'VB'
p2754
F0.9824
tp2755
a(S'it'
p2756
S'PRP'
p2757
F0.9968
tp2758
a(S'again'
p2759
S'RB'
p2760
F0.9397
tp2761
a(S'idek'
p2762
S'UH'
p2763
F0.4561
tp2764
a(S'probably'
p2765
S'RB'
p2766
F0.9925
tp2767
a(S'just'
p2768
S'RB'
p2769
F0.9991
tp2770
a(S'because'
p2771
S'IN'
p2772
F0.9378
tp2773
a(S'apple'
p2774
S'NN'
p2775
F0.498
tp2776
a(S'sucks'
p2777
S'VBZ'
p2778
F0.9755
tp2779
ag56
tp2780
a((lp2781
(S'How'
p2782
S'WRB'
p2783
F0.97
tp2784
a(S'good'
p2785
S'JJ'
p2786
F0.9337
tp2787
a(S'is'
p2788
S'VBZ'
p2789
F0.9858
tp2790
a(S'3D'
p2791
S'NNP'
p2792
F0.4421
tp2793
a(S'Touch'
p2794
S'NNP'
p2795
F0.7822
tp2796
a(S'on'
p2797
S'IN'
p2798
F0.9927
tp2799
a(S'the'
p2800
S'DT'
p2801
F0.9932
tp2802
a(S'new'
p2803
S'JJ'
p2804
F0.9576
tp2805
a(S'iPhone'
p2806
S'NN'
p2807
F0.7981
tp2808
a(g2456
g134
F0.9915
tp2809
a(g110
S'PRP'
p2810
F0.995
tp2811
a(S'now'
p2812
S'RB'
p2813
F0.9905
tp2814
a(S'try'
p2815
S'VB'
p2816
F0.7668
tp2817
a(S'to'
p2818
S'TO'
p2819
F0.9925
tp2820
a(S'3D'
p2821
S'VB'
p2822
F0.3064
tp2823
a(S'touch'
p2824
S'NN'
p2825
F0.8835
tp2826
a(S'also'
p2827
S'RB'
p2828
F0.9985
tp2829
a(S'on'
p2830
S'IN'
p2831
F0.986
tp2832
a(S'my'
p2833
S'PRP$'
p2834
F0.9963
tp2835
a(S'iPad'
p2836
S'NNP'
p2837
F0.5804
tp2838
a(g134
g134
F0.9952
tp2839
a(S'Yes'
p2840
S'UH'
p2841
F0.9533
tp2842
a(g35
g35
F0.9835
tp2843
a(S"it's"
p2844
S'PRP'
p2845
F0.8237
tp2846
a(S'that'
p2847
S'DT'
p2848
F0.7394
tp2849
a(S'good'
p2850
S'JJ'
p2851
F0.8935
tp2852
a(g35
g35
F0.9902
tp2853
a(S'great'
p2854
S'JJ'
p2855
F0.9862
tp2856
a(S'job'
p2857
S'NN'
p2858
F0.9468
tp2859
a(S'Apple'
p2860
S'NNP'
p2861
F0.8045
tp2862
a(g300
g134
F0.9949
tp2863
ag311
tp2864
a((lp2865
(S'RT'
p2866
S'RT'
p2867
F0.9663
tp2868
a(g110
S'PRP'
p2869
F0.9975
tp2870
a(S'hate'
p2871
S'VBP'
p2872
F0.9941
tp2873
a(S'Apple'
p2874
S'NNP'
p2875
F0.9829
tp2876
a(S'Music'
p2877
S'NNP'
p2878
F0.6105
tp2879
a(S'and'
p2880
S'CC'
p2881
F0.9934
tp2882
a(S'now'
p2883
S'RB'
p2884
F0.9854
tp2885
a(S'what'
p2886
S'WP'
p2887
F0.9788
tp2888
a(S'was'
p2889
S'VBD'
p2890
F0.9524
tp2891
a(S'great'
p2892
S'JJ'
p2893
F0.9615
tp2894
a(S'about'
p2895
S'IN'
p2896
F0.9791
tp2897
a(S'my'
p2898
S'PRP$'
p2899
F0.9878
tp2900
a(S'iPhone'
p2901
S'NNP'
p2902
F0.5235
tp2903
a(S'sucks'
p2904
S'VBZ'
p2905
F0.942
tp2906
a(S'#applemusicsucks'
p2907
S'HT'
p2908
F0.962
tp2909
ag56
tp2910
a((lp2911
(S'Best'
p2912
S'JJS'
p2913
F0.8816
tp2914
a(S'thing'
p2915
S'NN'
p2916
F0.9901
tp2917
a(S'about'
p2918
S'IN'
p2919
F0.9896
tp2920
a(S'the'
p2921
S'DT'
p2922
F0.9977
tp2923
a(S'6s'
p2924
S'NNS'
p2925
F0.8842
tp2926
a(S'is'
p2927
S'VBZ'
p2928
F0.9807
tp2929
a(S'probably'
p2930
S'RB'
p2931
F0.9978
tp2932
a(S'the'
p2933
S'DT'
p2934
F0.9961
tp2935
a(S'front'
p2936
S'NN'
p2937
F0.8677
tp2938
a(S'flash'
p2939
S'NN'
p2940
F0.971
tp2941
a(g134
g134
F0.9951
tp2942
a(S'Good'
p2943
S'JJ'
p2944
F0.8114
tp2945
a(S'job'
p2946
S'NN'
p2947
F0.9534
tp2948
a(S'Apple'
p2949
S'NNP'
p2950
F0.9379
tp2951
a(S'#toronto'
p2952
S'HT'
p2953
F0.8842
tp2954
a(S'#toig'
p2955
S'HT'
p2956
F0.9169
tp2957
a(S'#instablogger'
p2958
S'HT'
p2959
F0.9405
tp2960
a(S'\xc3\xa2\xe2\x82\xac\xc2\xa6'
p2961
S'NN'
p2962
F0.1379
tp2963
ag311
tp2964
a((lp2965
(S"It's"
p2966
S'PRP'
p2967
F0.8286
tp2968
a(S'worse'
p2969
S'JJ'
p2970
F0.4076
tp2971
a(S'than'
p2972
S'IN'
p2973
F0.9928
tp2974
a(S'that'
p2975
S'DT'
p2976
F0.8536
tp2977
a(g134
g134
F0.9925
tp2978
a(S'Some'
p2979
S'DT'
p2980
F0.8761
tp2981
a(S'are'
p2982
S'VBP'
p2983
F0.8895
tp2984
a(S'having'
p2985
S'VBG'
p2986
F0.9971
tp2987
a(S'to'
p2988
S'TO'
p2989
F0.9918
tp2990
a(S'queue'
p2991
S'NN'
p2992
F0.4526
tp2993
a(S'twice'
p2994
S'RB'
p2995
F0.9064
tp2996
a(S'because'
p2997
S'IN'
p2998
F0.9922
tp2999
a(S'the'
p3000
S'DT'
p3001
F0.9921
tp3002
a(S'ticketing'
p3003
S'NN'
p3004
F0.86
tp3005
a(S'site'
p3006
S'NN'
p3007
F0.9968
tp3008
a(S"wasn't"
p3009
S'NN'
p3010
F0.456
tp3011
a(S'set'
p3012
S'NN'
p3013
F0.4735
tp3014
a(S'up'
p3015
S'RP'
p3016
F0.7349
tp3017
a(S'for'
p3018
S'IN'
p3019
F0.9993
tp3020
a(S"Apple's"
p3021
S'NNP'
p3022
F0.9815
tp3023
a(S'Safari'
p3024
S'NNP'
p3025
F0.9971
tp3026
a(S'browser'
p3027
S'NN'
p3028
F0.6146
tp3029
a(g134
g134
F0.9962
tp3030
ag56
tp3031
a((lp3032
(S"THERE'S"
p3033
S'VBZ'
p3034
F0.1279
tp3035
a(g2699
S'DT'
p3036
F0.9702
tp3037
a(S'MIDDLE'
p3038
S'NN'
p3039
F0.8974
tp3040
a(S'FINGER'
p3041
S'NN'
p3042
F0.9478
tp3043
a(S'EMOJI'
p3044
S'NN'
p3045
F0.3969
tp3046
a(g134
g134
F0.9939
tp3047
a(S'YES'
p3048
S'UH'
p3049
F0.6903
tp3050
a(S'APPLE'
p3051
S'NNP'
p3052
F0.9273
tp3053
a(S'GOOD'
p3054
S'JJ'
p3055
F0.6398
tp3056
a(S'JOB'
p3057
S'NN'
p3058
F0.8995
tp3059
a(S'!!!!'
p3060
g134
F0.9921
tp3061
a(S'????????????????????????????????????????????????'
p3062
g134
F0.2348
tp3063
ag311
tp3064
a((lp3065
(S'Absolutely'
p3066
S'RB'
p3067
F0.9518
tp3068
a(g300
g134
F0.9833
tp3069
a(S'So'
p3070
S'RB'
p3071
F0.9556
tp3072
a(S'far'
p3073
S'RB'
p3074
F0.9358
tp3075
a(g110
S'PRP'
p3076
F0.9946
tp3077
a(S'still'
p3078
S'RB'
p3079
F0.9735
tp3080
a(S'prefer'
p3081
S'VBP'
p3082
F0.7288
tp3083
a(S'the'
p3084
S'DT'
p3085
F0.9851
tp3086
a(S'Force'
p3087
S'NNP'
p3088
F0.9489
tp3089
a(S'Touch'
p3090
S'NNP'
p3091
F0.8365
tp3092
a(S'on'
p3093
S'IN'
p3094
F0.9838
tp3095
a(S'my'
p3096
S'PRP$'
p3097
F0.9966
tp3098
a(S'MBP'
p3099
S'NN'
p3100
F0.5798
tp3101
a(g134
g134
F0.9915
tp3102
a(S'But'
p3103
S'CC'
p3104
F0.9559
tp3105
a(S'if'
p3106
S'IN'
p3107
F0.9716
tp3108
a(S'Devs'
p3109
S'NNS'
p3110
F0.8076
tp3111
a(S'like'
p3112
S'IN'
p3113
F0.842
tp3114
a(S'you'
p3115
S'PRP'
p3116
F0.9744
tp3117
a(S'guys'
p3118
S'NNS'
p3119
F0.9909
tp3120
a(S'find'
p3121
S'VBP'
p3122
F0.6599
tp3123
a(S'good'
p3124
S'JJ'
p3125
F0.9743
tp3126
a(S'use'
p3127
S'NN'
p3128
F0.9147
tp3129
a(g35
g35
F0.9891
tp3130
a(S'well'
p3131
S'UH'
p3132
F0.5467
tp3133
a(S'then'
p3134
S'IN'
p3135
F0.6813
tp3136
a(S'it'
p3137
S'PRP'
p3138
F0.9962
tp3139
a(S'will'
p3140
S'MD'
p3141
F0.9934
tp3142
a(S'rock'
p3143
S'VB'
p3144
F0.9952
tp3145
a(g300
g134
F0.9959
tp3146
ag311
tp3147
a((lp3148
(g110
S'PRP'
p3149
F0.9959
tp3150
a(S'really'
p3151
S'RB'
p3152
F0.9782
tp3153
a(S'appreciate'
p3154
S'VBP'
p3155
F0.6818
tp3156
a(S'the'
p3157
S'DT'
p3158
F0.9932
tp3159
a(S'figure'
p3160
S'NN'
p3161
F0.9096
tp3162
a(S'skate'
p3163
S'NN'
p3164
F0.6116
tp3165
a(S'emoji'
p3166
S'NN'
p3167
F0.853
tp3168
a(S'\xc3\xa2\xe2\x80\xba\xc2\xb8'
p3169
S'NN'
p3170
F0.2812
tp3171
a(S'good'
p3172
S'JJ'
p3173
F0.9576
tp3174
a(S'job'
p3175
S'NN'
p3176
F0.9424
tp3177
a(S'Apple'
p3178
S'NNP'
p3179
F0.8997
tp3180
ag311
tp3181
a((lp3182
(S'my'
p3183
S'PRP$'
p3184
F0.9814
tp3185
a(S'computer'
p3186
S'NN'
p3187
F0.9829
tp3188
a(S'just'
p3189
S'RB'
p3190
F0.9991
tp3191
a(S'went'
p3192
S'VBD'
p3193
F0.9745
tp3194
a(S'through'
p3195
S'IN'
p3196
F0.9898
tp3197
a(g150
S'DT'
p3198
F0.9967
tp3199
a(S'serious'
p3200
S'JJ'
p3201
F0.9948
tp3202
a(S'crash'
p3203
S'NN'
p3204
F0.9147
tp3205
a(S'and'
p3206
S'CC'
p3207
F0.9929
tp3208
a(S'it'
p3209
S'PRP'
p3210
F0.998
tp3211
a(S'looks'
p3212
S'VBZ'
p3213
F0.9758
tp3214
a(S'like'
p3215
S'IN'
p3216
F0.6553
tp3217
a(S'everything'
p3218
S'NN'
p3219
F0.9931
tp3220
a(S'was'
p3221
S'VBD'
p3222
F0.9779
tp3223
a(S'restored'
p3224
S'VBN'
p3225
F0.9281
tp3226
a(S'properly'
p3227
S'RB'
p3228
F0.9731
tp3229
a(S'automatically'
p3230
S'RB'
p3231
F0.9964
tp3232
a(g134
g134
F0.9896
tp3233
a(S'good'
p3234
S'JJ'
p3235
F0.9084
tp3236
a(S'job'
p3237
S'NN'
p3238
F0.9639
tp3239
a(S'apple'
p3240
S'NN'
p3241
F0.7681
tp3242
a(g300
g134
F0.9938
tp3243
ag311
tp3244
a((lp3245
(S'Apple'
p3246
S'NNP'
p3247
F0.9095
tp3248
a(S'sucks'
p3249
S'VBZ'
p3250
F0.92
tp3251
a(g134
g134
F0.9942
tp3252
a(g110
S'PRP'
p3253
F0.9975
tp3254
a(S'hate'
p3255
S'VBP'
p3256
F0.9952
tp3257
a(S'them'
p3258
S'PRP'
p3259
F0.987
tp3260
a(S'rn'
p3261
S'NN'
p3262
F0.6088
tp3263
a(g134
g134
F0.993
tp3264
ag56
tp3265
a((lp3266
(S'Obsessed'
p3267
S'VBD'
p3268
F0.9185
tp3269
a(S'with'
p3270
S'IN'
p3271
F0.9976
tp3272
a(S'these'
p3273
S'DT'
p3274
F0.9929
tp3275
a(S'new'
p3276
S'JJ'
p3277
F0.9925
tp3278
a(S'emojis'
p3279
S'NNS'
p3280
F0.9597
tp3281
a(g35
g35
F0.9914
tp3282
a(S'good'
p3283
S'JJ'
p3284
F0.9273
tp3285
a(S'job'
p3286
S'NN'
p3287
F0.9406
tp3288
a(S'Apple'
p3289
S'NNP'
p3290
F0.8797
tp3291
ag311
tp3292
a((lp3293
(S'New'
p3294
S'JJ'
p3295
F0.619
tp3296
a(S'update'
p3297
S'NN'
p3298
F0.9936
tp3299
a(S'seems'
p3300
S'VBZ'
p3301
F0.8803
tp3302
a(S'to'
p3303
S'TO'
p3304
F0.9974
tp3305
a(S'be'
p3306
S'VB'
p3307
F0.9992
tp3308
a(S'the'
p3309
S'DT'
p3310
F0.9957
tp3311
a(S'issue'
p3312
S'NN'
p3313
F0.9968
tp3314
a(S'for'
p3315
S'IN'
p3316
F0.9907
tp3317
a(S'many'
p3318
S'JJ'
p3319
F0.4625
tp3320
a(g134
g134
F0.992
tp3321
a(S'Good'
p3322
S'JJ'
p3323
F0.8114
tp3324
a(S'job'
p3325
S'NN'
p3326
F0.993
tp3327
a(g35
g35
F0.9855
tp3328
a(S'Apple'
p3329
S'NNP'
p3330
F0.9872
tp3331
a(g134
g134
F0.9961
tp3332
ag56
tp3333
a((lp3334
(S'Apple'
p3335
S'NNP'
p3336
F0.9095
tp3337
a(S'sucks'
p3338
S'VBZ'
p3339
F0.9767
tp3340
a(S'now'
p3341
S'RB'
p3342
F0.985
tp3343
a(g134
g134
F0.9926
tp3344
a(S'let\xc3\xa2\xe2\x82\xac\xe2\x84\xa2s'
p3345
S'NNS'
p3346
F0.3644
tp3347
a(S'all'
p3348
S'DT'
p3349
F0.9754
tp3350
a(S'find'
p3351
S'VBP'
p3352
F0.4826
tp3353
a(g150
S'DT'
p3354
F0.9916
tp3355
a(S'new'
p3356
S'JJ'
p3357
F0.9948
tp3358
a(S'company'
p3359
S'NN'
p3360
F0.9807
tp3361
a(S'to'
p3362
S'TO'
p3363
F0.9891
tp3364
a(S'worship'
p3365
S'VB'
p3366
F0.7297
tp3367
ag56
tp3368
a((lp3369
(S'Apple'
p3370
S'NNP'
p3371
F0.9625
tp3372
a(S'Music'
p3373
S'NNP'
p3374
F0.7897
tp3375
a(S'sucks'
p3376
S'VBZ'
p3377
F0.8541
tp3378
a(g134
g134
F0.9965
tp3379
ag56
tp3380
a((lp3381
(S'Apple'
p3382
S'NNP'
p3383
F0.9036
tp3384
a(S'TV'
p3385
S'NNP'
p3386
F0.8267
tp3387
a(S'2015'
p3388
S'CD'
p3389
F0.6965
tp3390
a(S'review'
p3391
S'NN'
p3392
F0.9791
tp3393
a(g5
g5
F0.9695
tp3394
a(S'fast'
p3395
S'RB'
p3396
F0.6323
tp3397
a(S'and'
p3398
S'CC'
p3399
F0.9898
tp3400
a(S'easy'
p3401
S'JJ'
p3402
F0.9097
tp3403
a(S'to'
p3404
S'TO'
p3405
F0.9954
tp3406
a(S'navigate'
p3407
S'VB'
p3408
F0.9865
tp3409
a(g35
g35
F0.9868
tp3410
a(S'but'
p3411
S'CC'
p3412
F0.9939
tp3413
a(S'keyboard'
p3414
S'NN'
p3415
F0.8972
tp3416
a(S'worse'
p3417
S'JJ'
p3418
F0.3493
tp3419
a(g35
g35
F0.9893
tp3420
a(S'Siri'
p3421
S'NNP'
p3422
F0.9995
tp3423
a(S'limited'
p3424
S'JJ'
p3425
F0.3843
tp3426
a(g35
g35
F0.9499
tp3427
a(S'...'
p3428
g5
F0.9779
tp3429
a(S'-'
p3430
g5
F0.8305
tp3431
ag56
tp3432
a((lp3433
(S'Apple'
p3434
S'NNP'
p3435
F0.8509
tp3436
a(S'clearly'
p3437
S'RB'
p3438
F0.9793
tp3439
a(S'had'
p3440
S'VBD'
p3441
F0.9582
tp3442
a(S'an'
p3443
S'DT'
p3444
F0.9828
tp3445
a(S'idiot'
p3446
S'NN'
p3447
F0.9765
tp3448
a(S'in'
p3449
S'IN'
p3450
F0.9831
tp3451
a(S'charge'
p3452
S'NN'
p3453
F0.9445
tp3454
a(S'of'
p3455
S'IN'
p3456
F0.9959
tp3457
a(S'the'
p3458
S'DT'
p3459
F0.9946
tp3460
a(S'new'
p3461
S'JJ'
p3462
F0.9525
tp3463
a(S'font'
p3464
S'NN'
p3465
F0.9658
tp3466
a(g134
g134
F0.9933
tp3467
a(S'Because'
p3468
S'IN'
p3469
F0.9552
tp3470
a(S'it'
p3471
S'PRP'
p3472
F0.9987
tp3473
a(S'sucks'
p3474
S'VBZ'
p3475
F0.9778
tp3476
a(g134
g134
F0.9965
tp3477
ag56
tp3478
a((lp3479
(S'????'
p3480
g134
F0.8961
tp3481
a(S'to'
p3482
S'TO'
p3483
F0.9959
tp3484
a(S'????'
p3485
g134
F0.8503
tp3486
a(S'real'
p3487
S'JJ'
p3488
F0.8846
tp3489
a(S'quick'
p3490
S'JJ'
p3491
F0.6662
tp3492
a(g35
g35
F0.9911
tp3493
a(S'good'
p3494
S'JJ'
p3495
F0.9363
tp3496
a(S'job'
p3497
S'NN'
p3498
F0.9406
tp3499
a(S'Apple'
p3500
S'NNP'
p3501
F0.8557
tp3502
a(g134
g134
F0.9958
tp3503
ag311
tp3504
a((lp3505
(g110
S'PRP'
p3506
F0.9966
tp3507
a(S'was'
p3508
S'VBD'
p3509
F0.9895
tp3510
a(S'looking'
p3511
S'VBG'
p3512
F0.9356
tp3513
a(S'for'
p3514
S'IN'
p3515
F0.987
tp3516
a(g150
S'DT'
p3517
F0.9927
tp3518
a(S'screenshot'
p3519
S'NN'
p3520
F0.966
tp3521
a(S'&'
p3522
S'CC'
p3523
F0.9615
tp3524
a(S'then'
p3525
S'IN'
p3526
F0.5303
tp3527
a(g110
S'PRP'
p3528
F0.997
tp3529
a(S'realized'
p3530
S'VBD'
p3531
F0.7669
tp3532
a(S'Apple'
p3533
S'NNP'
p3534
F0.9657
tp3535
a(S'had'
p3536
S'VBD'
p3537
F0.9479
tp3538
a(S'done'
p3539
S'VBN'
p3540
F0.9714
tp3541
a(S'this'
p3542
S'DT'
p3543
F0.9906
tp3544
a(S'fuckery'
p3545
S'NN'
p3546
F0.8192
tp3547
a(S'and'
p3548
S'CC'
p3549
F0.9944
tp3550
a(S'honestly'
p3551
S'RB'
p3552
F0.991
tp3553
a(S'some'
p3554
S'DT'
p3555
F0.9781
tp3556
a(S'iOS'
p3557
S'NNP'
p3558
F0.8655
tp3559
a(S'updates'
p3560
S'NNS'
p3561
F0.9535
tp3562
a(S'are'
p3563
S'VBP'
p3564
F0.9729
tp3565
a(S'worse'
p3566
S'JJ'
p3567
F0.4705
tp3568
a(S'than'
p3569
S'IN'
p3570
F0.992
tp3571
a(S'tumblr'
p3572
S'NNP'
p3573
F0.5745
tp3574
a(S'updates'
p3575
S'NNS'
p3576
F0.9114
tp3577
ag56
tp3578
a((lp3579
(S'Yeah'
p3580
S'UH'
p3581
F0.9933
tp3582
a(S"I'm"
p3583
S'PRP'
p3584
F0.5309
tp3585
a(S'on'
p3586
S'IN'
p3587
F0.9931
tp3588
a(S'Android'
p3589
S'NNP'
p3590
F0.9903
tp3591
a(S'so'
p3592
S'RB'
p3593
F0.7086
tp3594
a(S"it's"
p3595
S'PRP'
p3596
F0.8024
tp3597
a(S'easy'
p3598
S'JJ'
p3599
F0.9304
tp3600
a(g134
g134
F0.991
tp3601
a(S'Sucks'
p3602
S'VBZ'
p3603
F0.7754
tp3604
a(S'apple'
p3605
S'NN'
p3606
F0.7146
tp3607
a(S"doesn't"
p3608
S'NN'
p3609
F0.3831
tp3610
a(S'allow'
p3611
S'VB'
p3612
F0.8989
tp3613
a(S'apps'
p3614
S'NNS'
p3615
F0.3086
tp3616
a(S'like'
p3617
S'IN'
p3618
F0.9653
tp3619
a(S'that'
p3620
S'DT'
p3621
F0.7258
tp3622
a(S'on'
p3623
S'IN'
p3624
F0.9938
tp3625
a(S'the'
p3626
S'DT'
p3627
F0.9925
tp3628
a(S'app'
p3629
S'NN'
p3630
F0.7445
tp3631
a(S'store'
p3632
S'NN'
p3633
F0.981
tp3634
ag56
tp3635
a((lp3636
(S'(????????)'
p3637
S'UH'
p3638
F0.2066
tp3639
a(S'pinaka'
p3640
S'UH'
p3641
F0.6274
tp3642
a(S'the'
p3643
S'DT'
p3644
F0.9935
tp3645
a(S'best'
p3646
S'JJS'
p3647
F0.9689
tp3648
a(S'na'
p3649
S'NN'
p3650
F0.3428
tp3651
a(S'emoji'
p3652
S'NN'
p3653
F0.9009
tp3654
a(S'hahaha'
p3655
S'UH'
p3656
F0.7359
tp3657
a(S'good'
p3658
S'JJ'
p3659
F0.8891
tp3660
a(S'job'
p3661
S'NN'
p3662
F0.9591
tp3663
a(S'apple'
p3664
S'NN'
p3665
F0.6015
tp3666
a(S'haha'
p3667
S'UH'
p3668
F0.9188
tp3669
ag311
tp3670
a((lp3671
(S'This'
p3672
S'DT'
p3673
F0.9919
tp3674
a(S"apple's"
p3675
S'NNP'
p3676
F0.7348
tp3677
a(S'news'
p3678
S'NN'
p3679
F0.7379
tp3680
a(S'ish'
p3681
S'NN'
p3682
F0.9154
tp3683
a(S'wants'
p3684
S'VBZ'
p3685
F0.9306
tp3686
a(S'to'
p3687
S'TO'
p3688
F0.9984
tp3689
a(S'be'
p3690
S'VB'
p3691
F0.9989
tp3692
a(S'Flipboard'
p3693
S'NNP'
p3694
F0.8491
tp3695
a(S'so'
p3696
S'RB'
p3697
F0.8915
tp3698
a(S'bad'
p3699
S'JJ'
p3700
F0.9901
tp3701
a(S'..'
p3702
g5
F0.9407
tp3703
a(S'But'
p3704
S'CC'
p3705
F0.9399
tp3706
a(S'it'
p3707
S'PRP'
p3708
F0.9981
tp3709
a(S'sucks'
p3710
S'VBZ'
p3711
F0.9908
tp3712
a(S'..'
p3713
g5
F0.9507
tp3714
a(S'The'
p3715
S'DT'
p3716
F0.8382
tp3717
a(S'worst'
p3718
S'JJS'
p3719
F0.6886
tp3720
a(S'part'
p3721
S'NN'
p3722
F0.9963
tp3723
a(S'is'
p3724
S'VBZ'
p3725
F0.9947
tp3726
a(S'you'
p3727
S'PRP'
p3728
F0.9981
tp3729
a(S"can't"
p3730
S'MD'
p3731
F0.8916
tp3732
a(S'delete'
p3733
S'VB'
p3734
F0.9966
tp3735
a(S'it'
p3736
S'PRP'
p3737
F0.9957
tp3738
a(S'????????'
p3739
g134
F0.9639
tp3740
ag56
tp3741
a((lp3742
(S'These'
p3743
S'DT'
p3744
F0.9726
tp3745
a(S'new'
p3746
S'JJ'
p3747
F0.9899
tp3748
a(S'emojis'
p3749
S'NNS'
p3750
F0.9844
tp3751
a(S'are'
p3752
S'VBP'
p3753
F0.9761
tp3754
a(S'cool'
p3755
S'JJ'
p3756
F0.9778
tp3757
a(g35
g35
F0.9897
tp3758
a(S'good'
p3759
S'JJ'
p3760
F0.9363
tp3761
a(S'job'
p3762
S'NN'
p3763
F0.9406
tp3764
a(S'Apple'
p3765
S'NNP'
p3766
F0.8557
tp3767
a(g134
g134
F0.9958
tp3768
ag311
tp3769
a((lp3770
(S"Apple's"
p3771
S'NNP'
p3772
F0.9388
tp3773
a(S'just'
p3774
S'RB'
p3775
F0.9943
tp3776
a(S'not'
p3777
S'RB'
p3778
F0.9982
tp3779
a(S'as'
p3780
S'RB'
p3781
F0.8339
tp3782
a(S'good'
p3783
S'JJ'
p3784
F0.9144
tp3785
a(S'at'
p3786
S'IN'
p3787
F0.9924
tp3788
a(S'supporting'
p3789
S'VBG'
p3790
F0.9606
tp3791
a(S'legacy'
p3792
S'NN'
p3793
F0.9642
tp3794
a(S'hardware'
p3795
S'NN'
p3796
F0.9721
tp3797
a(S'as'
p3798
S'IN'
p3799
F0.9831
tp3800
a(S'they'
p3801
S'PRP'
p3802
F0.964
tp3803
a(S'used'
p3804
S'VBD'
p3805
F0.9821
tp3806
a(S'to'
p3807
S'TO'
p3808
F0.9973
tp3809
a(S'be'
p3810
S'VB'
p3811
F0.998
tp3812
a(g134
g134
F0.9938
tp3813
a(S'Which'
p3814
S'WDT'
p3815
F0.5628
tp3816
a(S'sucks'
p3817
S'VBZ'
p3818
F0.9644
tp3819
a(S'because'
p3820
S'IN'
p3821
F0.9792
tp3822
a(S"we're"
p3823
S'PRP'
p3824
F0.4641
tp3825
a(S'not'
p3826
S'RB'
p3827
F0.9902
tp3828
a(S'all'
p3829
S'DT'
p3830
F0.968
tp3831
a(S'rich'
p3832
S'JJ'
p3833
F0.648
tp3834
a(g134
g134
F0.996
tp3835
ag56
tp3836
a((lp3837
(S'Really'
p3838
S'RB'
p3839
F0.9735
tp3840
a(S'sucks'
p3841
S'VBZ'
p3842
F0.9015
tp3843
a(S'dealing'
p3844
S'VBG'
p3845
F0.978
tp3846
a(S'with'
p3847
S'IN'
p3848
F0.9983
tp3849
a(S'Apple'
p3850
S'NNP'
p3851
F0.9922
tp3852
a(S'customers'
p3853
S'NNS'
p3854
F0.9456
tp3855
a(g134
g134
F0.9944
tp3856
a(S'#AndroidAllDay'
p3857
S'HT'
p3858
F0.9815
tp3859
ag56
tp3860
a((lp3861
(S'RT'
p3862
S'RT'
p3863
F0.9539
tp3864
a(S'Apple'
p3865
S'NNP'
p3866
F0.9877
tp3867
a(S'Music'
p3868
S'NNP'
p3869
F0.5926
tp3870
a(S'sucks'
p3871
S'VBZ'
p3872
F0.9313
tp3873
a(S'and'
p3874
S'CC'
p3875
F0.9916
tp3876
a(S'no'
p3877
S'DT'
p3878
F0.8482
tp3879
a(S'one'
p3880
S'NN'
p3881
F0.7582
tp3882
a(S'can'
p3883
S'MD'
p3884
F0.9866
tp3885
a(S'tell'
p3886
S'VB'
p3887
F0.9991
tp3888
a(S'me'
p3889
S'PRP'
p3890
F0.9971
tp3891
a(S'otherwise'
p3892
S'RB'
p3893
F0.9134
tp3894
ag56
tp3895
a((lp3896
(g110
S'PRP'
p3897
F0.9979
tp3898
a(S'know'
p3899
S'VBP'
p3900
F0.9474
tp3901
a(S'that'
p3902
S'DT'
p3903
F0.6323
tp3904
a(S"I'm"
p3905
S'PRP'
p3906
F0.6959
tp3907
a(g150
S'DT'
p3908
F0.9914
tp3909
a(S'true'
p3910
S'JJ'
p3911
F0.9892
tp3912
a(S'Apple'
p3913
S'NNP'
p3914
F0.9767
tp3915
a(S'Lover'
p3916
S'NNP'
p3917
F0.748
tp3918
a(S'but'
p3919
S'CC'
p3920
F0.9783
tp3921
a(S'those'
p3922
S'DT'
p3923
F0.9765
tp3924
a(S'new'
p3925
S'JJ'
p3926
F0.9927
tp3927
a(S'commercials'
p3928
S'NNS'
p3929
F0.9714
tp3930
a(S'just'
p3931
S'RB'
p3932
F0.9987
tp3933
a(S'sucks'
p3934
S'VBZ'
p3935
F0.8206
tp3936
a(g134
g134
F0.9965
tp3937
ag56
tp3938
a((lp3939
(S'For'
p3940
S'IN'
p3941
F0.9503
tp3942
a(S'once'
p3943
S'RB'
p3944
F0.8096
tp3945
a(g110
S'PRP'
p3946
F0.9938
tp3947
a(S'actually'
p3948
S'RB'
p3949
F0.9981
tp3950
a(S'like'
p3951
S'IN'
p3952
F0.7718
tp3953
a(S'an'
p3954
S'DT'
p3955
F0.9727
tp3956
a(S'update'
p3957
S'NN'
p3958
F0.9923
tp3959
a(S'good'
p3960
S'JJ'
p3961
F0.9592
tp3962
a(S'job'
p3963
S'NN'
p3964
F0.9367
tp3965
a(S'Apple'
p3966
S'NNP'
p3967
F0.8825
tp3968
ag311
tp3969
a((lp3970
(g110
S'PRP'
p3971
F0.9982
tp3972
a(S'guess'
p3973
S'VBP'
p3974
F0.9921
tp3975
a(S'if'
p3976
S'IN'
p3977
F0.9873
tp3978
a(S'you'
p3979
S'PRP'
p3980
F0.9988
tp3981
a(S'hadn\xc3\xa2\xe2\x82\xac\xe2\x84\xa2t'
p3982
S'VBP'
p3983
F0.4257
tp3984
a(S'used'
p3985
S'VBD'
p3986
F0.7887
tp3987
a(S'Zite'
p3988
S'NNP'
p3989
F0.7439
tp3990
a(g35
g35
F0.9909
tp3991
a(S'you'
p3992
S'PRP'
p3993
F0.9946
tp3994
a(S'wouldn\xc3\xa2\xe2\x82\xac\xe2\x84\xa2t'
p3995
S'VBP'
p3996
F0.298
tp3997
a(S'know'
p3998
S'VBP'
p3999
F0.5204
tp4000
a(S'how'
p4001
S'WRB'
p4002
F0.9304
tp4003
a(S'much'
p4004
S'RB'
p4005
F0.5273
tp4006
a(S'the'
p4007
S'DT'
p4008
F0.9759
tp4009
a(S'Apple'
p4010
S'NNP'
p4011
F0.9962
tp4012
a(S'News'
p4013
S'NNP'
p4014
F0.8531
tp4015
a(S'app'
p4016
S'NNP'
p4017
F0.5136
tp4018
a(S'sucks'
p4019
S'VBZ'
p4020
F0.8984
tp4021
a(g2456
g134
F0.9956
tp4022
ag56
tp4023
a((lp4024
(S'And'
p4025
S'CC'
p4026
F0.9957
tp4027
a(g110
S'PRP'
p4028
F0.9958
tp4029
a(S'mean'
p4030
S'VBP'
p4031
F0.7877
tp4032
a(S'the'
p4033
S'DT'
p4034
F0.9935
tp4035
a(S'MBP'
p4036
S'NNP'
p4037
F0.6272
tp4038
a(g110
S'PRP'
p4039
F0.9875
tp4040
a(S'bought'
p4041
S'VBD'
p4042
F0.9468
tp4043
a(S'is'
p4044
S'VBZ'
p4045
F0.9801
tp4046
a(S'only'
p4047
S'RB'
p4048
F0.9118
tp4049
a(S'the'
p4050
S'DT'
p4051
F0.9916
tp4052
a(S'13'
p4053
S'CD'
p4054
F0.9608
tp4055
a(S'inch'
p4056
S'NN'
p4057
F0.9743
tp4058
a(S'I5'
p4059
S'CD'
p4060
F0.2161
tp4061
a(S'Retina'
p4062
S'NNP'
p4063
F0.6698
tp4064
a(S'display'
p4065
S'NN'
p4066
F0.898
tp4067
a(S'with'
p4068
S'IN'
p4069
F0.9988
tp4070
a(g150
S'DT'
p4071
F0.9905
tp4072
a(S'128GB'
p4073
S'NNP'
p4074
F0.583
tp4075
a(S'SSD'
p4076
S'NNP'
p4077
F0.9518
tp4078
a(g134
g134
F0.9947
tp4079
a(S'Not'
p4080
S'RB'
p4081
F0.9899
tp4082
a(S'really'
p4083
S'RB'
p4084
F0.9946
tp4085
a(S'impressive'
p4086
S'JJ'
p4087
F0.9814
tp4088
a(S'in'
p4089
S'IN'
p4090
F0.9859
tp4091
a(S'specs'
p4092
S'NNS'
p4093
F0.9551
tp4094
a(g134
g134
F0.9948
tp4095
a(S'Good'
p4096
S'JJ'
p4097
F0.8091
tp4098
a(S'machine'
p4099
S'NN'
p4100
F0.9961
tp4101
a(S'though'
p4102
S'RB'
p4103
F0.6037
tp4104
ag311
tp4105
a((lp4106
(S'New'
p4107
S'JJ'
p4108
F0.8923
tp4109
a(S'emojis'
p4110
S'NNS'
p4111
F0.969
tp4112
a(S'!!'
p4113
g134
F0.9764
tp4114
a(S'Here'
p4115
S'RB'
p4116
F0.9375
tp4117
a(S'are'
p4118
S'VBP'
p4119
F0.9454
tp4120
a(S'my'
p4121
S'PRP$'
p4122
F0.9907
tp4123
a(S'favs'
p4124
S'NNS'
p4125
F0.9253
tp4126
a(g5
g5
F0.9717
tp4127
a(S'????????????????????????????...'
p4128
g5
F0.174
tp4129
a(S'And'
p4130
S'CC'
p4131
F0.9814
tp4132
a(S"there's"
p4133
S'RB'
p4134
F0.1817
tp4135
a(S'FINALLY'
p4136
S'RB'
p4137
F0.9753
tp4138
a(g150
S'DT'
p4139
F0.991
tp4140
a(S'taco'
p4141
S'NN'
p4142
F0.899
tp4143
a(S'emoji'
p4144
S'NN'
p4145
F0.8955
tp4146
a(g300
g134
F0.9892
tp4147
a(S'????'
p4148
g134
F0.9235
tp4149
a(S'Good'
p4150
S'JJ'
p4151
F0.8719
tp4152
a(S'job'
p4153
S'NN'
p4154
F0.993
tp4155
a(g35
g35
F0.9871
tp4156
a(S'Apple'
p4157
S'NNP'
p4158
F0.9881
tp4159
a(g134
g134
F0.9925
tp4160
a(S'Nice'
p4161
S'JJ'
p4162
F0.6405
tp4163
a(S'update'
p4164
S'NN'
p4165
F0.9926
tp4166
a(g134
g134
F0.9941
tp4167
ag311
tp4168
a((lp4169
(g110
S'PRP'
p4170
F0.9965
tp4171
a(S'love'
p4172
S'VBP'
p4173
F0.9933
tp4174
a(S'not'
p4175
S'RB'
p4176
F0.9929
tp4177
a(S'having'
p4178
S'VBG'
p4179
F0.9855
tp4180
a(g150
S'DT'
p4181
F0.9966
tp4182
a(S'phone'
p4183
S'NN'
p4184
F0.9966
tp4185
a(S'because'
p4186
S'IN'
p4187
F0.9901
tp4188
a(S'apple'
p4189
S'NN'
p4190
F0.5194
tp4191
a(S'sucks'
p4192
S'VBZ'
p4193
F0.9744
tp4194
ag56
tp4195
a((lp4196
(S'Most'
p4197
S'JJS'
p4198
F0.6942
tp4199
a(S'awaited'
p4200
S'NN'
p4201
F0.833
tp4202
a(S'feature'
p4203
S'NN'
p4204
F0.9684
tp4205
a(S'from'
p4206
S'IN'
p4207
F0.999
tp4208
a(S'Apple'
p4209
S'NNP'
p4210
F0.9892
tp4211
a(S':P'
p4212
S'UH'
p4213
F0.9522
tp4214
a(S'..'
p4215
g5
F0.9643
tp4216
a(S'nonetheless'
p4217
S'RB'
p4218
F0.9875
tp4219
a(S'good'
p4220
S'JJ'
p4221
F0.9896
tp4222
a(S'job'
p4223
S'NN'
p4224
F0.9821
tp4225
ag311
tp4226
a((lp4227
(S'Suing'
p4228
S'VBG'
p4229
F0.9882
tp4230
a(S'Apple'
p4231
S'NNP'
p4232
F0.9177
tp4233
a(S'because'
p4234
S'IN'
p4235
F0.9828
tp4236
a(S'my'
p4237
S'PRP$'
p4238
F0.9912
tp4239
a(S'phone'
p4240
S'NN'
p4241
F0.9958
tp4242
a(S'sucks'
p4243
S'VBZ'
p4244
F0.9684
tp4245
a(S'after'
p4246
S'IN'
p4247
F0.9918
tp4248
a(S'the'
p4249
S'DT'
p4250
F0.9891
tp4251
a(S'update'
p4252
S'NN'
p4253
F0.995
tp4254
a(S'and'
p4255
S'CC'
p4256
F0.9946
tp4257
a(S'my'
p4258
S'PRP$'
p4259
F0.9927
tp4260
a(S'phone'
p4261
S'NN'
p4262
F0.9962
tp4263
a(S"isn't"
p4264
S'VBD'
p4265
F0.3844
tp4266
a(S'even'
p4267
S'RB'
p4268
F0.9876
tp4269
a(S'old'
p4270
S'JJ'
p4271
F0.9717
tp4272
a(S'??????'
p4273
g134
F0.9704
tp4274
ag56
tp4275
a((lp4276
(S'got'
p4277
S'VBD'
p4278
F0.792
tp4279
a(g150
S'DT'
p4280
F0.996
tp4281
a(S'retina'
p4282
S'NN'
p4283
F0.9805
tp4284
a(S'iMac'
p4285
S'NN'
p4286
F0.4561
tp4287
a(S'which'
p4288
S'WDT'
p4289
F0.8929
tp4290
a(S'is'
p4291
S'VBZ'
p4292
F0.9932
tp4293
a(S'apparently'
p4294
S'RB'
p4295
F0.9937
tp4296
a(S'above'
p4297
S'IN'
p4298
F0.9441
tp4299
a(S'normal'
p4300
S'JJ'
p4301
F0.938
tp4302
a(S'contents'
p4303
S'NN'
p4304
F0.5582
tp4305
a(S'value'
p4306
S'NN'
p4307
F0.9746
tp4308
a(g134
g134
F0.9947
tp4309
a(g110
S'PRP'
p4310
F0.9951
tp4311
a(S'weep'
p4312
S'VBP'
p4313
F0.6911
tp4314
a(g134
g134
F0.9914
tp4315
a(S'Good'
p4316
S'JJ'
p4317
F0.7626
tp4318
a(S'point'
p4319
S'NN'
p4320
F0.9796
tp4321
a(S'about'
p4322
S'IN'
p4323
F0.9917
tp4324
a(S'the'
p4325
S'DT'
p4326
F0.9961
tp4327
a(S'MBP/DSLR'
p4328
S'NN'
p4329
F0.5543
tp4330
a(S'as'
p4331
S'IN'
p4332
F0.9207
tp4333
a(S'well'
p4334
S'RB'
p4335
F0.7826
tp4336
a(g134
g134
F0.9956
tp4337
ag311
tp4338
a((lp4339
(g110
S'PRP'
p4340
F0.9951
tp4341
a(S'rlly'
p4342
S'RB'
p4343
F0.4777
tp4344
a(S'love'
p4345
S'VBP'
p4346
F0.5714
tp4347
a(S'apple'
p4348
S'NNP'
p4349
F0.3484
tp4350
a(S'but'
p4351
S'CC'
p4352
F0.983
tp4353
a(S'this'
p4354
S'DT'
p4355
F0.972
tp4356
a(S'sucks'
p4357
S'VBZ'
p4358
F0.9347
tp4359
ag56
tp4360
a((lp4361
(g110
S'PRP'
p4362
F0.992
tp4363
a(S'use'
p4364
S'VBP'
p4365
F0.9692
tp4366
a(S'my'
p4367
S'PRP$'
p4368
F0.9902
tp4369
a(S'iPad'
p4370
S'NNP'
p4371
F0.6749
tp4372
a(S'24/7'
p4373
S'NN'
p4374
F0.2898
tp4375
a(S'but'
p4376
S'CC'
p4377
F0.9922
tp4378
a(g110
S'PRP'
p4379
F0.9981
tp4380
a(S'hate'
p4381
S'VBP'
p4382
F0.9975
tp4383
a(S'how'
p4384
S'WRB'
p4385
F0.9649
tp4386
a(S'you'
p4387
S'PRP'
p4388
F0.9985
tp4389
a(S"can't"
p4390
S'MD'
p4391
F0.8823
tp4392
a(S'expand'
p4393
S'VB'
p4394
F0.9879
tp4395
a(S'memory'
p4396
S'NN'
p4397
F0.973
tp4398
a(S'on'
p4399
S'IN'
p4400
F0.9983
tp4401
a(S'Apple'
p4402
S'NNP'
p4403
F0.9909
tp4404
a(S'devices'
p4405
S'NNS'
p4406
F0.8188
tp4407
a(S'it'
p4408
S'PRP'
p4409
F0.9958
tp4410
a(S'sucks'
p4411
S'VBZ'
p4412
F0.9849
tp4413
a(g300
g134
F0.9911
tp4414
a(S':('
p4415
S'UH'
p4416
F0.9959
tp4417
ag56
tp4418
a((lp4419
(S'Biggest'
p4420
S'JJS'
p4421
F0.6649
tp4422
a(S'pet'
p4423
S'NN'
p4424
F0.9669
tp4425
a(S'peeve'
p4426
S'NN'
p4427
F0.9362
tp4428
a(S'with'
p4429
S'IN'
p4430
F0.9987
tp4431
a(S'Apple'
p4432
S'NNP'
p4433
F0.994
tp4434
a(S'is'
p4435
S'VBZ'
p4436
F0.9938
tp4437
a(S'its'
p4438
S'PRP'
p4439
F0.4909
tp4440
a(S'widgets'
p4441
S'NNS'
p4442
F0.9937
tp4443
a(S'suck'
p4444
S'VBP'
p4445
F0.489
tp4446
a(S'...'
p4447
g5
F0.9964
tp4448
a(S'Maps'
p4449
S'NNS'
p4450
F0.7111
tp4451
a(S'sucks'
p4452
S'VBZ'
p4453
F0.9069
tp4454
a(g134
g134
F0.9913
tp4455
a(S'Weather'
p4456
S'NNP'
p4457
F0.4956
tp4458
a(S'sucks'
p4459
S'VBZ'
p4460
F0.8505
tp4461
a(g134
g134
F0.9937
tp4462
a(S'News'
p4463
S'NN'
p4464
F0.3379
tp4465
a(S'sucks'
p4466
S'VBZ'
p4467
F0.9264
tp4468
a(S'...'
p4469
g5
F0.9942
tp4470
a(S'Devs'
p4471
S'NNS'
p4472
F0.9723
tp4473
a(S'need'
p4474
S'VBP'
p4475
F0.9909
tp4476
a(S'to'
p4477
S'TO'
p4478
F0.9978
tp4479
a(S'step'
p4480
S'VB'
p4481
F0.989
tp4482
a(S'it'
p4483
S'PRP'
p4484
F0.9943
tp4485
a(S'up'
p4486
S'RP'
p4487
F0.9559
tp4488
ag56
tp4489
a((lp4490
(S'RT'
p4491
S'RT'
p4492
F0.9657
tp4493
a(S'wow'
p4494
S'UH'
p4495
F0.8904
tp4496
a(S'all'
p4497
S'DT'
p4498
F0.9762
tp4499
a(S'these'
p4500
S'DT'
p4501
F0.9846
tp4502
a(S'new'
p4503
S'JJ'
p4504
F0.9918
tp4505
a(S'emojis'
p4506
S'NNS'
p4507
F0.9836
tp4508
a(S'are'
p4509
S'VBP'
p4510
F0.9763
tp4511
a(S'great'
p4512
S'JJ'
p4513
F0.9852
tp4514
a(g134
g134
F0.9914
tp4515
a(S'good'
p4516
S'JJ'
p4517
F0.8735
tp4518
a(S'job'
p4519
S'NN'
p4520
F0.9393
tp4521
a(S'Apple'
p4522
S'NNP'
p4523
F0.8916
tp4524
ag311
tp4525
a((lp4526
(S'So'
p4527
S'RB'
p4528
F0.4741
tp4529
a(S'basically'
p4530
S'RB'
p4531
F0.9978
tp4532
a(S'with'
p4533
S'IN'
p4534
F0.9987
tp4535
a(S'the'
p4536
S'DT'
p4537
F0.997
tp4538
a(S'6S'
p4539
S'NNS'
p4540
F0.7901
tp4541
a(S'hardly'
p4542
S'RB'
p4543
F0.9878
tp4544
a(S'anything'
p4545
S'NN'
p4546
F0.8965
tp4547
a(S'has'
p4548
S'VBZ'
p4549
F0.979
tp4550
a(S'changed'
p4551
S'VBN'
p4552
F0.8347
tp4553
a(g134
g134
F0.9941
tp4554
a(S'Good'
p4555
S'JJ'
p4556
F0.8114
tp4557
a(S'job'
p4558
S'NN'
p4559
F0.9592
tp4560
a(S'Apple'
p4561
S'NNP'
p4562
F0.8614
tp4563
a(S'????'
p4564
g134
F0.9735
tp4565
ag56
tp4566
a((lp4567
(S'RT'
p4568
S'RT'
p4569
F0.9646
tp4570
a(S'One'
p4571
S'CD'
p4572
F0.9107
tp4573
a(S'thing'
p4574
S'NN'
p4575
F0.942
tp4576
a(S'apple'
p4577
S'NN'
p4578
F0.6245
tp4579
a(S'just'
p4580
S'RB'
p4581
F0.998
tp4582
a(S"can't"
p4583
S'MD'
p4584
F0.9253
tp4585
a(S'get'
p4586
S'VB'
p4587
F0.9952
tp4588
a(S'right'
p4589
S'RB'
p4590
F0.857
tp4591
a(S'is'
p4592
S'VBZ'
p4593
F0.9928
tp4594
a(S'the'
p4595
S'DT'
p4596
F0.9967
tp4597
a(S'search'
p4598
S'NN'
p4599
F0.9889
tp4600
a(S'on'
p4601
S'IN'
p4602
F0.9963
tp4603
a(S'ya'
p4604
S'PRP$'
p4605
F0.8081
tp4606
a(S'iPhone'
p4607
S'NNP'
p4608
F0.546
tp4609
a(g134
g134
F0.9954
tp4610
a(S'This'
p4611
S'DT'
p4612
F0.9899
tp4613
a(S'new'
p4614
S'JJ'
p4615
F0.9879
tp4616
a(S'search'
p4617
S'NN'
p4618
F0.9942
tp4619
a(S'in'
p4620
S'IN'
p4621
F0.9942
tp4622
a(S'ya'
p4623
S'PRP$'
p4624
F0.628
tp4625
a(S'email'
p4626
S'NN'
p4627
F0.9157
tp4628
a(S'just'
p4629
S'RB'
p4630
F0.9983
tp4631
a(S'makes'
p4632
S'VBZ'
p4633
F0.9008
tp4634
a(S'things'
p4635
S'NNS'
p4636
F0.9756
tp4637
a(S'worse'
p4638
S'JJ'
p4639
F0.4633
tp4640
ag56
tp4641
a((lp4642
(S'my'
p4643
S'PRP$'
p4644
F0.978
tp4645
a(S'brand'
p4646
S'NN'
p4647
F0.9429
tp4648
a(S'new'
p4649
S'JJ'
p4650
F0.9573
tp4651
a(S'macbook'
p4652
S'NN'
p4653
F0.9478
tp4654
a(S'pro'
p4655
S'NN'
p4656
F0.9221
tp4657
a(S'is'
p4658
S'VBZ'
p4659
F0.9861
tp4660
a(S'making'
p4661
S'VBG'
p4662
F0.9941
tp4663
a(S'such'
p4664
S'JJ'
p4665
F0.8657
tp4666
a(S'loud'
p4667
S'JJ'
p4668
F0.9493
tp4669
a(S'noises'
p4670
S'NNS'
p4671
F0.9891
tp4672
a(g35
g35
F0.9903
tp4673
a(S'overheating'
p4674
S'VBG'
p4675
F0.8961
tp4676
a(g35
g35
F0.9892
tp4677
a(S'and'
p4678
S'CC'
p4679
F0.9983
tp4680
a(S"won't"
p4681
S'MD'
p4682
F0.497
tp4683
a(S'turn'
p4684
S'VB'
p4685
F0.9593
tp4686
a(S'on'
p4687
S'IN'
p4688
F0.9429
tp4689
a(S'..'
p4690
g5
F0.6164
tp4691
a(S'im'
p4692
S'PRP'
p4693
F0.9776
tp4694
a(S'definitely'
p4695
S'RB'
p4696
F0.9992
tp4697
a(S'cursed'
p4698
S'VBD'
p4699
F0.7155
tp4700
a(S'when'
p4701
S'WRB'
p4702
F0.9868
tp4703
a(S'it'
p4704
S'PRP'
p4705
F0.9993
tp4706
a(S'comes'
p4707
S'VBZ'
p4708
F0.9805
tp4709
a(S'to'
p4710
S'TO'
p4711
F0.9813
tp4712
a(S'technology'
p4713
S'NN'
p4714
F0.7512
tp4715
a(S'????????'
p4716
g134
F0.9808
tp4717
ag56
tp4718
a((lp4719
(S'these'
p4720
S'DT'
p4721
F0.9738
tp4722
a(S'new'
p4723
S'JJ'
p4724
F0.9808
tp4725
a(S'macbook'
p4726
S'NN'
p4727
F0.9513
tp4728
a(S'airs'
p4729
S'VBZ'
p4730
F0.8839
tp4731
a(S'loud'
p4732
S'JJ'
p4733
F0.6362
tp4734
a(S'as'
p4735
S'IN'
p4736
F0.8935
tp4737
a(S'fuck'
p4738
S'VB'
p4739
F0.451
tp4740
a(S'...'
p4741
g5
F0.9974
tp4742
a(S'jesus'
p4743
S'NNP'
p4744
F0.541
tp4745
ag56
tp4746
a((lp4747
(S"I'm"
p4748
S'PRP'
p4749
F0.8454
tp4750
a(S'thinking'
p4751
S'VBG'
p4752
F0.9808
tp4753
a(S'of'
p4754
S'IN'
p4755
F0.9902
tp4756
a(S'changing'
p4757
S'VBG'
p4758
F0.9965
tp4759
a(S'my'
p4760
S'PRP$'
p4761
F0.9892
tp4762
a(S'#Apple'
p4763
S'HT'
p4764
F0.8616
tp4765
a(S'#iPhone'
p4766
S'HT'
p4767
F0.8572
tp4768
a(S'for'
p4769
S'IN'
p4770
F0.9982
tp4771
a(S'#Samsung'
p4772
S'NNP'
p4773
F0.5075
tp4774
a(S'#Galaxy'
p4775
S'HT'
p4776
F0.4667
tp4777
a(g134
g134
F0.9947
tp4778
a(S'????????'
p4779
g134
F0.9151
tp4780
a(S'Apple'
p4781
S'NNP'
p4782
F0.8594
tp4783
a(S'it'
p4784
S'PRP'
p4785
F0.9969
tp4786
a(S'sucks'
p4787
S'VBZ'
p4788
F0.9937
tp4789
a(S'.????'
p4790
g134
F0.9571
tp4791
ag56
tp4792
a((lp4793
(S"That's"
p4794
S'DT'
p4795
F0.566
tp4796
a(S'whay'
p4797
S'WP'
p4798
F0.3931
tp4799
a(S'Apple'
p4800
S'NNP'
p4801
F0.9711
tp4802
a(S'sucks'
p4803
S'VBZ'
p4804
F0.9566
tp4805
a(S'...'
p4806
g5
F0.9921
tp4807
ag56
tp4808
a((lp4809
(S'Updated'
p4810
S'VBN'
p4811
F0.4894
tp4812
a(S'to'
p4813
S'TO'
p4814
F0.9932
tp4815
a(S'OSX'
p4816
S'NNP'
p4817
F0.9822
tp4818
a(S'El'
p4819
S'NNP'
p4820
F0.9973
tp4821
a(S'Capitan'
p4822
S'NNP'
p4823
F0.998
tp4824
a(S'my'
p4825
S'PRP$'
p4826
F0.9834
tp4827
a(S'good'
p4828
S'JJ'
p4829
F0.9622
tp4830
a(S'old'
p4831
S'JJ'
p4832
F0.9185
tp4833
a(S'MBP'
p4834
S'NN'
p4835
F0.4882
tp4836
a(g134
g134
F0.9941
tp4837
a(S'Super'
p4838
S'RB'
p4839
F0.588
tp4840
a(S'speedy'
p4841
S'JJ'
p4842
F0.5489
tp4843
a(S'compared'
p4844
S'VBN'
p4845
F0.5757
tp4846
a(S'to'
p4847
S'TO'
p4848
F0.9879
tp4849
a(S'Yosemite'
p4850
S'NNP'
p4851
F0.9985
tp4852
a(g35
g35
F0.9857
tp4853
a(S'thanks'
p4854
S'UH'
p4855
F0.5496
tp4856
a(S'Apple'
p4857
S'NNP'
p4858
F0.9647
tp4859
a(S'for'
p4860
S'IN'
p4861
F0.9825
tp4862
a(S'taking'
p4863
S'VBG'
p4864
F0.9886
tp4865
a(S'care'
p4866
S'NN'
p4867
F0.4039
tp4868
a(S'of'
p4869
S'IN'
p4870
F0.9674
tp4871
a(S'good'
p4872
S'JJ'
p4873
F0.9626
tp4874
a(S'old'
p4875
S'JJ'
p4876
F0.9463
tp4877
a(S'hardware'
p4878
S'NN'
p4879
F0.9737
tp4880
a(S'too'
p4881
S'RB'
p4882
F0.9508
tp4883
a(g300
g134
F0.993
tp4884
ag311
tp4885
a((lp4886
(S'These'
p4887
S'DT'
p4888
F0.9726
tp4889
a(S'new'
p4890
S'JJ'
p4891
F0.9899
tp4892
a(S'emojis'
p4893
S'NNS'
p4894
F0.962
tp4895
a(g35
g35
F0.9915
tp4896
a(S'good'
p4897
S'JJ'
p4898
F0.9387
tp4899
a(S'job'
p4900
S'NN'
p4901
F0.9421
tp4902
a(S'Apple'
p4903
S'NNP'
p4904
F0.9086
tp4905
ag311
tp4906
a((lp4907
(S'Apple'
p4908
S'NNP'
p4909
F0.8807
tp4910
a(S'support'
p4911
S'NN'
p4912
F0.6291
tp4913
a(S'sucks'
p4914
S'VBZ'
p4915
F0.9568
tp4916
ag56
tp4917
a((lp4918
(S'????????????????????????????????????????????'
p4919
S'NNP'
p4920
F0.2092
tp4921
a(S'<-----'
p4922
S'SYM'
p4923
F0.2873
tp4924
a(S'good'
p4925
S'JJ'
p4926
F0.9663
tp4927
a(S'job'
p4928
S'NN'
p4929
F0.9502
tp4930
a(S'apple'
p4931
S'NN'
p4932
F0.794
tp4933
a(g35
g35
F0.9914
tp4934
a(S'new'
p4935
S'JJ'
p4936
F0.9681
tp4937
a(S'emoji'
p4938
S'NN'
p4939
F0.7475
tp4940
a(S'lol'
p4941
S'UH'
p4942
F0.9414
tp4943
a(S'????????????'
p4944
g134
F0.9115
tp4945
ag311
tp4946
a((lp4947
(g110
S'PRP'
p4948
F0.9939
tp4949
a(S"haven't"
p4950
S'VBP'
p4951
F0.8039
tp4952
a(S'charged'
p4953
S'VBN'
p4954
F0.491
tp4955
a(S'my'
p4956
S'PRP$'
p4957
F0.9967
tp4958
a(S'phone'
p4959
S'NN'
p4960
F0.9961
tp4961
a(S'since'
p4962
S'IN'
p4963
F0.9792
tp4964
a(S'9'
p4965
S'CD'
p4966
F0.9857
tp4967
a(S'this'
p4968
S'DT'
p4969
F0.998
tp4970
a(S'morning'
p4971
S'NN'
p4972
F0.9888
tp4973
a(S'..'
p4974
g5
F0.9452
tp4975
a(S"It's"
p4976
S'PRP'
p4977
F0.8497
tp4978
a(S'now'
p4979
S'RB'
p4980
F0.9983
tp4981
a(S'on'
p4982
S'IN'
p4983
F0.9898
tp4984
a(S'50%'
p4985
S'CD'
p4986
F0.8322
tp4987
a(S'and'
p4988
S'CC'
p4989
F0.9939
tp4990
a(S'it'
p4991
S'PRP'
p4992
F0.9941
tp4993
a(S"wasn't"
p4994
S'VBD'
p4995
F0.5193
tp4996
a(S'even'
p4997
S'RB'
p4998
F0.9933
tp4999
a(S'fully'
p5000
S'RB'
p5001
F0.9533
tp5002
a(S'charged'
p5003
S'VBN'
p5004
F0.5321
tp5005
a(S'when'
p5006
S'WRB'
p5007
F0.9883
tp5008
a(g110
S'PRP'
p5009
F0.9985
tp5010
a(S'left'
p5011
S'VBD'
p5012
F0.8572
tp5013
a(S'..'
p5014
g5
F0.9321
tp5015
a(S'Good'
p5016
S'JJ'
p5017
F0.7027
tp5018
a(S'job'
p5019
S'NN'
p5020
F0.9802
tp5021
a(S'apple'
p5022
S'NN'
p5023
F0.7837
tp5024
ag311
tp5025
a((lp5026
(S'Why'
p5027
S'WRB'
p5028
F0.9346
tp5029
a(S'Apple'
p5030
S'NNP'
p5031
F0.9818
tp5032
a(S'FUSION'
p5033
S'NNP'
p5034
F0.7198
tp5035
a(S'DRIVE'
p5036
S'NN'
p5037
F0.6427
tp5038
a(S'is'
p5039
S'VBZ'
p5040
F0.9901
tp5041
a(S'becoming'
p5042
S'VBG'
p5043
F0.9961
tp5044
a(S'worse'
p5045
S'JJ'
p5046
F0.4179
tp5047
a(S'than'
p5048
S'IN'
p5049
F0.9764
tp5050
a(S'ever'
p5051
S'RB'
p5052
F0.9596
tp5053
a(g2456
g134
F0.9928
tp5054
ag56
tp5055
a((lp5056
(S"There's"
p5057
S'EX'
p5058
F0.1884
tp5059
a(S'finally'
p5060
S'RB'
p5061
F0.9752
tp5062
a(g150
S'DT'
p5063
F0.9969
tp5064
a(S'bed'
p5065
S'NN'
p5066
F0.9867
tp5067
a(S'emoji'
p5068
S'NN'
p5069
F0.7843
tp5070
a(g300
g134
F0.9892
tp5071
a(S'????????'
p5072
g134
F0.9236
tp5073
a(S'Good'
p5074
S'JJ'
p5075
F0.8727
tp5076
a(S'job'
p5077
S'NN'
p5078
F0.9722
tp5079
a(S'apple'
p5080
S'NN'
p5081
F0.7087
tp5082
ag311
tp5083
a((lp5084
(S'oh'
p5085
S'UH'
p5086
F0.9966
tp5087
a(S'gosh'
p5088
S'UH'
p5089
F0.9998
tp5090
a(g300
g134
F0.9848
tp5091
a(S'But'
p5092
S'CC'
p5093
F0.9659
tp5094
a(S'good'
p5095
S'JJ'
p5096
F0.969
tp5097
a(S'job'
p5098
S'NN'
p5099
F0.9875
tp5100
a(S'to'
p5101
S'TO'
p5102
F0.9758
tp5103
a(S'Apple'
p5104
S'NNP'
p5105
F0.9528
tp5106
a(g300
g134
F0.9949
tp5107
ag311
tp5108
a((lp5109
(g110
S'PRP'
p5110
F0.9981
tp5111
a(S'liked'
p5112
S'VBD'
p5113
F0.966
tp5114
a(g150
S'DT'
p5115
F0.9957
tp5116
a(S'video'
p5117
S'NN'
p5118
F0.9852
tp5119
a(S'APPLE'
p5120
S'NNP'
p5121
F0.7297
tp5122
a(S'WATCH'
p5123
S'VBP'
p5124
F0.315
tp5125
a(S'SUCKS'
p5126
S'VBZ'
p5127
F0.8058
tp5128
ag56
tp5129
a((lp5130
(S'7'
p5131
S'CD'
p5132
F0.9764
tp5133
a(S'yrs'
p5134
S'NNS'
p5135
F0.9632
tp5136
a(S'though'
p5137
S'IN'
p5138
F0.6515
tp5139
a(S'man'
p5140
S'NN'
p5141
F0.7715
tp5142
a(g300
g134
F0.9933
tp5143
a(S'Gotta'
p5144
S'VBP'
p5145
F0.4919
tp5146
a(S'love'
p5147
S'VB'
p5148
F0.8127
tp5149
a(S'Apple'
p5150
S'NNP'
p5151
F0.9683
tp5152
a(g134
g134
F0.99
tp5153
a(S'Products'
p5154
S'NNS'
p5155
F0.8674
tp5156
a(S'usually'
p5157
S'RB'
p5158
F0.9892
tp5159
a(S'last'
p5160
S'JJ'
p5161
F0.9003
tp5162
a(S'so'
p5163
S'RB'
p5164
F0.9162
tp5165
a(S'long'
p5166
S'JJ'
p5167
F0.5887
tp5168
a(g134
g134
F0.9908
tp5169
a(S'My'
p5170
S'PRP$'
p5171
F0.9737
tp5172
a(S'MBP'
p5173
S'NN'
p5174
F0.6404
tp5175
a(S"isn't"
p5176
S'VBD'
p5177
F0.4171
tp5178
a(S'mad'
p5179
S'JJ'
p5180
F0.9257
tp5181
a(S'high'
p5182
S'JJ'
p5183
F0.8149
tp5184
a(S'specs'
p5185
S'NNS'
p5186
F0.9574
tp5187
a(S'but'
p5188
S'CC'
p5189
F0.9754
tp5190
a(S'is'
p5191
S'VBZ'
p5192
F0.976
tp5193
a(S'in'
p5194
S'IN'
p5195
F0.9424
tp5196
a(S'good'
p5197
S'JJ'
p5198
F0.9613
tp5199
a(S'nick'
p5200
S'NNP'
p5201
F0.637
tp5202
a(S'after'
p5203
S'IN'
p5204
F0.9923
tp5205
a(S'the'
p5206
S'DT'
p5207
F0.9965
tp5208
a(S'years'
p5209
S'NNS'
p5210
F0.989
tp5211
ag311
tp5212
a((lp5213
(S'Apple'
p5214
S'NNP'
p5215
F0.9095
tp5216
a(S'sucks'
p5217
S'VBZ'
p5218
F0.92
tp5219
a(g134
g134
F0.9928
tp5220
a(S'Apple'
p5221
S'NNP'
p5222
F0.9162
tp5223
a(S'customer'
p5224
S'NN'
p5225
F0.9231
tp5226
a(S'service'
p5227
S'NN'
p5228
F0.9857
tp5229
a(S'sucks'
p5230
S'VBZ'
p5231
F0.924
tp5232
a(g134
g134
F0.9927
tp5233
a(S'The'
p5234
S'DT'
p5235
F0.9524
tp5236
a(S'genius'
p5237
S'NN'
p5238
F0.8207
tp5239
a(S'bar'
p5240
S'NN'
p5241
F0.9961
tp5242
a(S'is'
p5243
S'VBZ'
p5244
F0.9912
tp5245
a(S'filled'
p5246
S'VBN'
p5247
F0.8666
tp5248
a(S'with'
p5249
S'IN'
p5250
F0.9947
tp5251
a(S'idiots'
p5252
S'NNS'
p5253
F0.9568
tp5254
ag56
tp5255
a((lp5256
(S'Apple'
p5257
S'NNP'
p5258
F0.9012
tp5259
a(S'weather'
p5260
S'NN'
p5261
F0.8871
tp5262
a(S'app'
p5263
S'NN'
p5264
F0.8711
tp5265
a(S'sucks'
p5266
S'VBZ'
p5267
F0.9471
tp5268
ag56
tp5269
a((lp5270
(S'This'
p5271
S'DT'
p5272
F0.978
tp5273
a(S'is'
p5274
S'VBZ'
p5275
F0.9915
tp5276
a(S'one'
p5277
S'CD'
p5278
F0.9712
tp5279
a(S'time'
p5280
S'NN'
p5281
F0.96
tp5282
a(g110
S'PRP'
p5283
F0.9901
tp5284
a(S'actually'
p5285
S'RB'
p5286
F0.9932
tp5287
a(S'approve'
p5288
S'VB'
p5289
F0.6309
tp5290
a(S'of'
p5291
S'IN'
p5292
F0.9839
tp5293
a(S'an'
p5294
S'DT'
p5295
F0.9564
tp5296
a(S'update'
p5297
S'NN'
p5298
F0.9971
tp5299
a(S'from'
p5300
S'IN'
p5301
F0.9987
tp5302
a(S'Apple'
p5303
S'NNP'
p5304
F0.9979
tp5305
a(S'Inc'
p5306
S'NNP'
p5307
F0.995
tp5308
a(g35
g35
F0.9897
tp5309
a(S'good'
p5310
S'JJ'
p5311
F0.9363
tp5312
a(S'job'
p5313
S'NN'
p5314
F0.9876
tp5315
a(S'with'
p5316
S'IN'
p5317
F0.9986
tp5318
a(S'IOS'
p5319
S'NNP'
p5320
F0.9867
tp5321
a(S'9.1'
p5322
S'CD'
p5323
F0.7247
tp5324
ag311
tp5325
a((lp5326
(S'Honestly'
p5327
S'RB'
p5328
F0.9628
tp5329
a(S'just'
p5330
S'RB'
p5331
F0.9985
tp5332
a(S'really'
p5333
S'RB'
p5334
F0.9983
tp5335
a(S'excited'
p5336
S'JJ'
p5337
F0.8468
tp5338
a(S'about'
p5339
S'IN'
p5340
F0.9948
tp5341
a(S'the'
p5342
S'DT'
p5343
F0.997
tp5344
a(S'field'
p5345
S'NN'
p5346
F0.9934
tp5347
a(S'hockey'
p5348
S'NN'
p5349
F0.988
tp5350
a(S'emoji'
p5351
S'NN'
p5352
F0.8065
tp5353
a(S'????'
p5354
g134
F0.9504
tp5355
a(S'Good'
p5356
S'JJ'
p5357
F0.8717
tp5358
a(S'job'
p5359
S'NN'
p5360
F0.9592
tp5361
a(S'Apple'
p5362
S'NNP'
p5363
F0.9
tp5364
ag311
tp5365
a((lp5366
(S'The'
p5367
S'DT'
p5368
F0.9231
tp5369
a(S'real'
p5370
S'JJ'
p5371
F0.9372
tp5372
a(S'reason'
p5373
S'NN'
p5374
F0.9241
tp5375
a(S'Apple'
p5376
S'NNP'
p5377
F0.9101
tp5378
a(S'sucks'
p5379
S'VBZ'
p5380
F0.9642
tp5381
a(S'is'
p5382
S'VBZ'
p5383
F0.9833
tp5384
a(S'because'
p5385
S'IN'
p5386
F0.9707
tp5387
a(S'iTunes'
p5388
S'NNP'
p5389
F0.9483
tp5390
a(g1074
S"''"
p5391
F0.9807
tp5392
a(S'programmers'
p5393
S'NNS'
p5394
F0.8331
tp5395
a(g1074
S"''"
p5396
F0.9854
tp5397
a(S'never'
p5398
S'RB'
p5399
F0.9561
tp5400
a(S'seem'
p5401
S'VBN'
p5402
F0.3937
tp5403
a(S'to'
p5404
S'TO'
p5405
F0.9965
tp5406
a(S'do'
p5407
S'VB'
p5408
F0.9839
tp5409
a(S'any'
p5410
S'DT'
p5411
F0.9929
tp5412
a(S'unit'
p5413
S'NN'
p5414
F0.9935
tp5415
a(S'or'
p5416
S'CC'
p5417
F0.9693
tp5418
a(S'integrated'
p5419
S'NN'
p5420
F0.3513
tp5421
a(S'testing'
p5422
S'VBG'
p5423
F0.5486
tp5424
a(S'before'
p5425
S'IN'
p5426
F0.9587
tp5427
a(g150
S'DT'
p5428
F0.994
tp5429
a(S'major'
p5430
S'JJ'
p5431
F0.9212
tp5432
a(S'release'
p5433
S'NN'
p5434
F0.9715
tp5435
a(g134
g134
F0.9935
tp5436
a(S'IDIOTS'
p5437
S'NNS'
p5438
F0.9605
tp5439
a(g300
g134
F0.9958
tp5440
ag56
tp5441
a((lp5442
(S'actually'
p5443
S'RB'
p5444
F0.9946
tp5445
a(S'worse'
p5446
S'JJ'
p5447
F0.4863
tp5448
a(g35
g35
F0.991
tp5449
a(S'set'
p5450
S'VB'
p5451
F0.8278
tp5452
a(S'up'
p5453
S'RP'
p5454
F0.8795
tp5455
a(S'the'
p5456
S'DT'
p5457
F0.9919
tp5458
a(S'whole'
p5459
S'JJ'
p5460
F0.7481
tp5461
a(S'Apple'
p5462
S'NNP'
p5463
F0.9192
tp5464
a(S'TV'
p5465
S'NN'
p5466
F0.5237
tp5467
a(S'during'
p5468
S'IN'
p5469
F0.9636
tp5470
a(S'date'
p5471
S'NN'
p5472
F0.9503
tp5473
a(g134
g134
F0.9969
tp5474
ag56
tp5475
a((lp5476
(S'Apple'
p5477
S'NNP'
p5478
F0.8755
tp5479
a(S'has'
p5480
S'VBZ'
p5481
F0.981
tp5482
a(S'done'
p5483
S'VBN'
p5484
F0.976
tp5485
a(S'good'
p5486
S'JJ'
p5487
F0.99
tp5488
a(S'job'
p5489
S'NN'
p5490
F0.9908
tp5491
a(S'leveraging'
p5492
S'VBG'
p5493
F0.9886
tp5494
a(S'that'
p5495
S'DT'
p5496
F0.6292
tp5497
a(S'connection\xc3\xa2\xe2\x82\xac\xc2\xa6MSFT'
p5498
S'NNP'
p5499
F0.194
tp5500
a(S'has'
p5501
S'VBZ'
p5502
F0.9711
tp5503
a(S'the'
p5504
S'DT'
p5505
F0.9938
tp5506
a(S'same'
p5507
S'JJ'
p5508
F0.9696
tp5509
a(S'ability'
p5510
S'NN'
p5511
F0.9616
tp5512
a(g134
g134
F0.9967
tp5513
ag311
tp5514
a((lp5515
(S'Apple'
p5516
S'NNP'
p5517
F0.9036
tp5518
a(S'TV'
p5519
S'NNP'
p5520
F0.8267
tp5521
a(S'2015'
p5522
S'CD'
p5523
F0.6965
tp5524
a(S'review'
p5525
S'NN'
p5526
F0.9791
tp5527
a(g5
g5
F0.9695
tp5528
a(S'Fast'
p5529
S'RB'
p5530
F0.5114
tp5531
a(S'and'
p5532
S'CC'
p5533
F0.9893
tp5534
a(S'easy'
p5535
S'JJ'
p5536
F0.9097
tp5537
a(S'to'
p5538
S'TO'
p5539
F0.9954
tp5540
a(S'navigate'
p5541
S'VB'
p5542
F0.9865
tp5543
a(g35
g35
F0.9868
tp5544
a(S'but'
p5545
S'CC'
p5546
F0.9939
tp5547
a(S'keyboard'
p5548
S'NN'
p5549
F0.8972
tp5550
a(S'worse'
p5551
S'JJ'
p5552
F0.3493
tp5553
a(g35
g35
F0.9893
tp5554
a(S'Siri'
p5555
S'NNP'
p5556
F0.9995
tp5557
a(S'limited'
p5558
S'JJ'
p5559
F0.4498
tp5560
ag56
tp5561
a((lp5562
(S'Apple'
p5563
S'NNP'
p5564
F0.9646
tp5565
a(S'Inc'
p5566
S'NNP'
p5567
F0.9955
tp5568
a(g134
g134
F0.99
tp5569
a(S'Shares'
p5570
S'NNS'
p5571
F0.8782
tp5572
a(S'of'
p5573
S'IN'
p5574
F0.9928
tp5575
a(S'companies'
p5576
S'NNS'
p5577
F0.9897
tp5578
a(S'that'
p5579
S'IN'
p5580
F0.4505
tp5581
a(S'make'
p5582
S'VB'
p5583
F0.7114
tp5584
a(S'chips'
p5585
S'NNS'
p5586
F0.8134
tp5587
a(S'for'
p5588
S'IN'
p5589
F0.999
tp5590
a(S'the'
p5591
S'DT'
p5592
F0.9944
tp5593
a(S'iPhone'
p5594
S'NNP'
p5595
F0.7329
tp5596
a(S'took'
p5597
S'VBD'
p5598
F0.9404
tp5599
a(S'it'
p5600
S'PRP'
p5601
F0.997
tp5602
a(S'on'
p5603
S'IN'
p5604
F0.9906
tp5605
a(S'the'
p5606
S'DT'
p5607
F0.9907
tp5608
a(S'chin'
p5609
S'NN'
p5610
F0.967
tp5611
a(S'Monday'
p5612
S'NNP'
p5613
F0.9864
tp5614
a(S'after'
p5615
S'IN'
p5616
F0.9606
tp5617
a(S'worse'
p5618
S'JJR'
p5619
F0.3786
tp5620
a(S'than'
p5621
S'IN'
p5622
F0.988
tp5623
a(S'exp'
p5624
S'NN'
p5625
F0.3934
tp5626
a(S'results'
p5627
S'NNS'
p5628
F0.9863
tp5629
a(S'from'
p5630
S'IN'
p5631
F0.9988
tp5632
a(g150
S'DT'
p5633
F0.9947
tp5634
a(S'key'
p5635
S'NN'
p5636
F0.7203
tp5637
a(S'Apple'
p5638
S'NNP'
p5639
F0.796
tp5640
ag56
tp5641
a((lp5642
(S'Love'
p5643
S'VBP'
p5644
F0.7565
tp5645
a(S'the'
p5646
S'DT'
p5647
F0.9916
tp5648
a(S'new'
p5649
S'JJ'
p5650
F0.9721
tp5651
a(S'emojis'
p5652
S'NNS'
p5653
F0.9783
tp5654
a(g300
g134
F0.9828
tp5655
a(S'apple'
p5656
S'NN'
p5657
F0.6914
tp5658
a(S'did'
p5659
S'VBD'
p5660
F0.901
tp5661
a(g150
S'DT'
p5662
F0.9932
tp5663
a(S'very'
p5664
S'RB'
p5665
F0.926
tp5666
a(S'good'
p5667
S'JJ'
p5668
F0.9906
tp5669
a(S'job'
p5670
S'NN'
p5671
F0.9847
tp5672
a(g300
g134
F0.9943
tp5673
a(S'Hahaha'
p5674
S'UH'
p5675
F0.9798
tp5676
ag311
tp5677
a((lp5678
(S'Apple'
p5679
S'NNP'
p5680
F0.9392
tp5681
a(S'Watch'
p5682
S'NNP'
p5683
F0.42
tp5684
a(S'generally'
p5685
S'RB'
p5686
F0.8847
tp5687
a(S'sucks'
p5688
S'VBZ'
p5689
F0.8484
tp5690
a(g300
g134
F0.9963
tp5691
ag56
tp5692
a((lp5693
(S'upgrade'
p5694
S'VB'
p5695
F0.4213
tp5696
a(S'aja'
p5697
S'UH'
p5698
F0.4843
tp5699
a(S'om'
p5700
S'UH'
p5701
F0.9861
tp5702
a(g35
g35
F0.9826
tp5703
a(S'udah'
p5704
S'NNP'
p5705
F0.6988
tp5706
a(S'tested'
p5707
S'VBD'
p5708
F0.7283
tp5709
a(S'di'
p5710
S'NNP'
p5711
F0.8194
tp5712
a(S'mbp'
p5713
S'NNP'
p5714
F0.5295
tp5715
a(S'mid2010'
p5716
S'CD'
p5717
F0.4506
tp5718
a(g134
g134
F0.992
tp5719
a(S'So'
p5720
S'RB'
p5721
F0.9407
tp5722
a(S'far'
p5723
S'RB'
p5724
F0.9316
tp5725
a(S'so'
p5726
S'RB'
p5727
F0.9363
tp5728
a(S'good'
p5729
S'JJ'
p5730
F0.9748
tp5731
a(g134
g134
F0.9923
tp5732
ag311
tp5733
a((lp5734
(S'yeah'
p5735
S'UH'
p5736
F0.9976
tp5737
a(g35
g35
F0.9735
tp5738
a(g110
S'PRP'
p5739
F0.9886
tp5740
a(S'know'
p5741
S'VBP'
p5742
F0.9817
tp5743
a(S'what'
p5744
S'WP'
p5745
F0.9677
tp5746
a(S'u'
p5747
S'PRP'
p5748
F0.9948
tp5749
a(S'mean'
p5750
S'VBP'
p5751
F0.5846
tp5752
a(g134
g134
F0.9949
tp5753
a(S"That's"
p5754
S'DT'
p5755
F0.5202
tp5756
a(S'the'
p5757
S'DT'
p5758
F0.9931
tp5759
a(S'mindset'
p5760
S'NN'
p5761
F0.994
tp5762
a(g110
S'PRP'
p5763
F0.996
tp5764
a(S'need'
p5765
S'VBP'
p5766
F0.9937
tp5767
a(S'to'
p5768
S'TO'
p5769
F0.9986
tp5770
a(S'get'
p5771
S'VB'
p5772
F0.9948
tp5773
a(S'into'
p5774
S'IN'
p5775
F0.9939
tp5776
a(S'to'
p5777
S'TO'
p5778
F0.9977
tp5779
a(S'avoid'
p5780
S'VB'
p5781
F0.9931
tp5782
a(S'all'
p5783
S'DT'
p5784
F0.9506
tp5785
a(S'the'
p5786
S'DT'
p5787
F0.9864
tp5788
a(S'bugs'
p5789
S'NNS'
p5790
F0.8018
tp5791
a(g134
g134
F0.9945
tp5792
a(S'Apple'
p5793
S'NNP'
p5794
F0.8314
tp5795
a(S'majorly'
p5796
S'NN'
p5797
F0.2378
tp5798
a(S'sucks'
p5799
S'VBZ'
p5800
F0.8888
tp5801
a(S'for'
p5802
S'IN'
p5803
F0.9854
tp5804
a(S'terrible'
p5805
S'JJ'
p5806
F0.9801
tp5807
a(S'updates'
p5808
S'NNS'
p5809
F0.9812
tp5810
a(g134
g134
F0.9967
tp5811
ag56
tp5812
a((lp5813
(S'RT'
p5814
S'RT'
p5815
F0.9752
tp5816
a(S'THE'
p5817
S'DT'
p5818
F0.9403
tp5819
a(S'NEW'
p5820
S'JJ'
p5821
F0.914
tp5822
a(S'EMOJIS'
p5823
S'NNS'
p5824
F0.9665
tp5825
a(S'ARE'
p5826
S'VBP'
p5827
F0.9582
tp5828
a(S'ON'
p5829
S'IN'
p5830
F0.9286
tp5831
a(S'POINT'
p5832
S'NN'
p5833
F0.4669
tp5834
a(S'GOOD'
p5835
S'JJ'
p5836
F0.9052
tp5837
a(S'JOB'
p5838
S'NN'
p5839
F0.5829
tp5840
a(S'APPLE-Zoe'
p5841
S'NNP'
p5842
F0.7437
tp5843
ag311
tp5844
a((lp5845
(S"I've"
p5846
S'PRP'
p5847
F0.9597
tp5848
a(S'been'
p5849
S'VBN'
p5850
F0.7726
tp5851
a(S'using'
p5852
S'VBG'
p5853
F0.9938
tp5854
a(S'Apple'
p5855
S'NNP'
p5856
F0.9768
tp5857
a(S'Music'
p5858
S'NNP'
p5859
F0.5241
tp5860
a(S'even'
p5861
S'RB'
p5862
F0.9808
tp5863
a(S'after'
p5864
S'IN'
p5865
F0.9899
tp5866
a(S'my'
p5867
S'PRP$'
p5868
F0.9919
tp5869
a(S'trial'
p5870
S'NN'
p5871
F0.9855
tp5872
a(S'ended'
p5873
S'VBD'
p5874
F0.5636
tp5875
a(S'in'
p5876
S'IN'
p5877
F0.9922
tp5878
a(S'September'
p5879
S'NNP'
p5880
F0.9949
tp5881
a(g134
g134
F0.994
tp5882
a(g110
S'PRP'
p5883
F0.9944
tp5884
a(S'really'
p5885
S'RB'
p5886
F0.9713
tp5887
a(S'love'
p5888
S'VBP'
p5889
F0.6483
tp5890
a(S'it'
p5891
S'PRP'
p5892
F0.997
tp5893
a(g134
g134
F0.991
tp5894
a(g110
S'PRP'
p5895
F0.9975
tp5896
a(S'have'
p5897
S'VBP'
p5898
F0.9764
tp5899
a(g56
S'CD'
p5900
F0.9727
tp5901
a(S'problems'
p5902
S'NNS'
p5903
F0.9924
tp5904
a(S'with'
p5905
S'IN'
p5906
F0.9992
tp5907
a(S'it'
p5908
S'PRP'
p5909
F0.9823
tp5910
a(S'Good'
p5911
S'JJ'
p5912
F0.7457
tp5913
a(S'Job'
p5914
S'NNP'
p5915
F0.8199
tp5916
a(S'Apple'
p5917
S'NNP'
p5918
F0.9982
tp5919
a(g35
g35
F0.9865
tp5920
a(S'????????????????????'
p5921
g134
F0.9068
tp5922
a(S'\xc3\xa2\xc5\x93\xc5\x92'
p5923
S'NNP'
p5924
F0.1379
tp5925
a(S'????'
p5926
g134
F0.942
tp5927
a(S'\xc3\xaf\xc2\xb8\xc2\x8f'
p5928
S'NN'
p5929
F0.1083
tp5930
a(S'????'
p5931
g134
F0.9703
tp5932
ag311
tp5933
a((lp5934
(S'Apple'
p5935
S'NNP'
p5936
F0.8761
tp5937
a(S'tells'
p5938
S'VBZ'
p5939
F0.9555
tp5940
a(S'judge'
p5941
S'NN'
p5942
F0.8281
tp5943
a(S"it's"
p5944
S'PRP'
p5945
F0.6428
tp5946
a(g1074
S"''"
p5947
F0.9841
tp5948
a(S'impossible'
p5949
S'JJ'
p5950
F0.8949
tp5951
a(g1074
S"''"
p5952
F0.9836
tp5953
a(S'to'
p5954
S'TO'
p5955
F0.9956
tp5956
a(S'unlock'
p5957
S'VB'
p5958
F0.998
tp5959
a(g150
S'DT'
p5960
F0.9955
tp5961
a(S'device'
p5962
S'NN'
p5963
F0.9954
tp5964
a(S'running'
p5965
S'NN'
p5966
F0.5819
tp5967
a(S'iOS'
p5968
S'NNP'
p5969
F0.5691
tp5970
a(g1485
S'CD'
p5971
F0.9694
tp5972
a(S'or'
p5973
S'CC'
p5974
F0.9713
tp5975
a(S'higher'
p5976
S'JJR'
p5977
F0.8883
tp5978
a(g1074
S"''"
p5979
F0.9864
tp5980
a(S'good'
p5981
S'JJ'
p5982
F0.8563
tp5983
a(S'job'
p5984
S'NN'
p5985
F0.9622
tp5986
a(S'apple'
p5987
S'NN'
p5988
F0.7004
tp5989
a(g1074
S"''"
p5990
F0.9838
tp5991
a(S'#infosec'
p5992
S'HT'
p5993
F0.9811
tp5994
a(S'#hacking'
p5995
S'HT'
p5996
F0.9543
tp5997
ag311
tp5998
a((lp5999
(S'RT'
p6000
S'RT'
p6001
F0.9594
tp6002
a(S'ALL'
p6003
S'DT'
p6004
F0.8195
tp6005
a(S'THE'
p6006
S'DT'
p6007
F0.9574
tp6008
a(S'NEW'
p6009
S'JJ'
p6010
F0.9387
tp6011
a(S'EMOJIS'
p6012
S'NNS'
p6013
F0.8112
tp6014
a(S'THO'
p6015
S'RB'
p6016
F0.288
tp6017
a(S'>>>>>>>>'
p6018
S'UH'
p6019
F0.1744
tp6020
a(S'GOOD'
p6021
S'JJ'
p6022
F0.7239
tp6023
a(S'JOB'
p6024
S'NN'
p6025
F0.5611
tp6026
a(S'APPLE'
p6027
S'NNP'
p6028
F0.8057
tp6029
a(S'!!!'
p6030
g134
F0.9876
tp6031
a(S'Except'
p6032
S'IN'
p6033
F0.7491
tp6034
a(S"there's"
p6035
S'RB'
p6036
F0.1749
tp6037
a(S'still'
p6038
S'RB'
p6039
F0.9932
tp6040
a(S'no'
p6041
S'DT'
p6042
F0.8902
tp6043
a(S'giraffe'
p6044
S'NN'
p6045
F0.9786
tp6046
a(g134
g134
F0.9934
tp6047
a(S'So'
p6048
S'RB'
p6049
F0.621
tp6050
a(g134
g134
F0.9904
tp6051
a(S'????????'
p6052
g134
F0.9341
tp6053
ag311
tp6054
a((lp6055
(S'Good'
p6056
S'JJ'
p6057
F0.777
tp6058
a(S'job'
p6059
S'NN'
p6060
F0.902
tp6061
a(S'Apple'
p6062
S'NNP'
p6063
F0.8786
tp6064
a(S'????'
p6065
g134
F0.9742
tp6066
ag311
tp6067
a((lp6068
(S"It's"
p6069
S'PRP'
p6070
F0.8836
tp6071
a(g150
S'DT'
p6072
F0.9956
tp6073
a(S'testament'
p6074
S'NN'
p6075
F0.9926
tp6076
a(S'to'
p6077
S'TO'
p6078
F0.9874
tp6079
a(S'the'
p6080
S'DT'
p6081
F0.9937
tp6082
a(S'good'
p6083
S'JJ'
p6084
F0.9406
tp6085
a(S'job'
p6086
S'NN'
p6087
F0.9365
tp6088
a(S'Apple'
p6089
S'NNP'
p6090
F0.8864
tp6091
a(S'has'
p6092
S'VBZ'
p6093
F0.9757
tp6094
a(S'been'
p6095
S'VBN'
p6096
F0.9727
tp6097
a(S'doing'
p6098
S'VBG'
p6099
F0.9955
tp6100
a(S'that'
p6101
S'IN'
p6102
F0.7097
tp6103
a(g110
S'PRP'
p6104
F0.9894
tp6105
a(S'no'
p6106
S'DT'
p6107
F0.7957
tp6108
a(S'longer'
p6109
S'RB'
p6110
F0.5381
tp6111
a(S'get'
p6112
S'VB'
p6113
F0.6687
tp6114
a(S'the'
p6115
S'DT'
p6116
F0.9689
tp6117
a(S'itch'
p6118
S'NN'
p6119
F0.9246
tp6120
a(S'to'
p6121
S'TO'
p6122
F0.9958
tp6123
a(S'jailbreak'
p6124
S'VB'
p6125
F0.9948
tp6126
a(S'my'
p6127
S'PRP$'
p6128
F0.9954
tp6129
a(S'phone'
p6130
S'NN'
p6131
F0.9942
tp6132
a(g134
g134
F0.9973
tp6133
ag311
tp6134
a((lp6135
(S'\xc3\x82\xc2\xa380'
p6136
S'CD'
p6137
F0.4531
tp6138
a(S'worse'
p6139
S'JJR'
p6140
F0.4737
tp6141
a(S'off'
p6142
S'RP'
p6143
F0.4488
tp6144
a(S'now'
p6145
S'RB'
p6146
F0.9801
tp6147
a(S'cause'
p6148
S'IN'
p6149
F0.9128
tp6150
a(g110
S'PRP'
p6151
F0.9957
tp6152
a(S'broke'
p6153
S'VBD'
p6154
F0.9566
tp6155
a(S'my'
p6156
S'PRP$'
p6157
F0.9962
tp6158
a(S'phone'
p6159
S'NN'
p6160
F0.9813
tp6161
a(S'this'
p6162
S'DT'
p6163
F0.9972
tp6164
a(S'morning'
p6165
S'NN'
p6166
F0.9836
tp6167
a(g134
g134
F0.9941
tp6168
a(S'Nice'
p6169
S'JJ'
p6170
F0.7289
tp6171
a(S'one'
p6172
S'CD'
p6173
F0.8877
tp6174
a(S'apple'
p6175
S'NN'
p6176
F0.6562
tp6177
a(S'for'
p6178
S'IN'
p6179
F0.9911
tp6180
a(S'making'
p6181
S'VBG'
p6182
F0.9814
tp6183
a(S'possibly'
p6184
S'RB'
p6185
F0.9919
tp6186
a(S'the'
p6187
S'DT'
p6188
F0.9928
tp6189
a(S'EASIEST'
p6190
S'JJS'
p6191
F0.6371
tp6192
a(S'phone'
p6193
S'NN'
p6194
F0.9847
tp6195
a(S'to'
p6196
S'TO'
p6197
F0.9957
tp6198
a(S'break'
p6199
S'VB'
p6200
F0.97
tp6201
a(S'and'
p6202
S'CC'
p6203
F0.9928
tp6204
a(S'charging'
p6205
S'VBG'
p6206
F0.9908
tp6207
a(S'so'
p6208
S'RB'
p6209
F0.9659
tp6210
a(S'much'
p6211
S'RB'
p6212
F0.9331
tp6213
a(g300
g134
F0.9948
tp6214
ag56
tp6215
a((lp6216
(S'Good'
p6217
S'JJ'
p6218
F0.777
tp6219
a(S'job'
p6220
S'NN'
p6221
F0.9364
tp6222
a(S'Apple'
p6223
S'NNP'
p6224
F0.878
tp6225
a(S"I'm"
p6226
S'PRP'
p6227
F0.4774
tp6228
a(S'impressed'
p6229
S'VBD'
p6230
F0.6009
tp6231
a(S'with'
p6232
S'IN'
p6233
F0.9995
tp6234
a(S'the'
p6235
S'DT'
p6236
F0.9941
tp6237
a(S'new'
p6238
S'JJ'
p6239
F0.9805
tp6240
a(S'emojis'
p6241
S'NNS'
p6242
F0.97
tp6243
a(S'but'
p6244
S'CC'
p6245
F0.9739
tp6246
a(S'now'
p6247
S'RB'
p6248
F0.9908
tp6249
a(S'can'
p6250
S'MD'
p6251
F0.9334
tp6252
a(S'you'
p6253
S'PRP'
p6254
F0.9949
tp6255
a(S'make'
p6256
S'VBP'
p6257
F0.9607
tp6258
a(g150
S'DT'
p6259
F0.992
tp6260
a(S'brain'
p6261
S'NN'
p6262
F0.9925
tp6263
a(g35
g35
F0.9914
tp6264
a(S'an'
p6265
S'DT'
p6266
F0.9694
tp6267
a(S'athlete'
p6268
S'NN'
p6269
F0.9953
tp6270
a(g35
g35
F0.9911
tp6271
a(g150
S'DT'
p6272
F0.9909
tp6273
a(S'basket'
p6274
S'NN'
p6275
F0.9971
tp6276
a(S'case'
p6277
S'NN'
p6278
F0.9941
tp6279
a(g35
g35
F0.991
tp6280
a(g150
S'DT'
p6281
F0.9883
tp6282
a(S'princess'
p6283
S'NN'
p6284
F0.9691
tp6285
a(g35
g35
F0.9916
tp6286
a(S'and'
p6287
S'CC'
p6288
F0.9989
tp6289
a(g150
S'DT'
p6290
F0.9844
tp6291
a(S'criminal'
p6292
S'JJ'
p6293
F0.8464
tp6294
a(S'???????'
p6295
g134
F0.9712
tp6296
ag311
tp6297
a((lp6298
(S'Looks'
p6299
S'VBZ'
p6300
F0.5711
tp6301
a(S'good'
p6302
S'JJ'
p6303
F0.9491
tp6304
a(S'apple'
p6305
S'NN'
p6306
F0.7598
tp6307
a(g35
g35
F0.9913
tp6308
a(S'nice'
p6309
S'JJ'
p6310
F0.9913
tp6311
a(S'job'
p6312
S'NN'
p6313
F0.9858
tp6314
ag311
tp6315
a((lp6316
(S'RT'
p6317
S'RT'
p6318
F0.9539
tp6319
a(S'Apple'
p6320
S'NNP'
p6321
F0.9877
tp6322
a(S'Music'
p6323
S'NNP'
p6324
F0.5155
tp6325
a(S'fuckin'
p6326
S'NNP'
p6327
F0.2821
tp6328
a(S'sucks'
p6329
S'VBZ'
p6330
F0.971
tp6331
a(S'it'
p6332
S'PRP'
p6333
F0.9973
tp6334
a(S'takes'
p6335
S'VBZ'
p6336
F0.9962
tp6337
a(g150
S'DT'
p6338
F0.9977
tp6339
a(S'year'
p6340
S'NN'
p6341
F0.9946
tp6342
a(S'to'
p6343
S'TO'
p6344
F0.9964
tp6345
a(S'play'
p6346
S'VB'
p6347
F0.9979
tp6348
a(S'one'
p6349
S'NN'
p6350
F0.5445
tp6351
a(S'song'
p6352
S'NN'
p6353
F0.992
tp6354
ag56
tp6355
a((lp6356
(g2699
S'DT'
p6357
F0.9296
tp6358
a(S'16GB'
p6359
S'NNP'
p6360
F0.5273
tp6361
a(S'MBP'
p6362
S'NNP'
p6363
F0.9053
tp6364
a(S'is'
p6365
S'VBZ'
p6366
F0.9938
tp6367
a(g150
S'DT'
p6368
F0.9931
tp6369
a(S'good'
p6370
S'JJ'
p6371
F0.9263
tp6372
a(g35
g35
F0.9905
tp6373
a(S'portable'
p6374
S'JJ'
p6375
F0.8745
tp6376
a(S'#VIRL'
p6377
S'HT'
p6378
F0.8611
tp6379
a(S'system'
p6380
S'NN'
p6381
F0.9798
tp6382
a(g35
g35
F0.9916
tp6383
a(S'depending'
p6384
S'VBG'
p6385
F0.924
tp6386
a(S'on'
p6387
S'IN'
p6388
F0.9831
tp6389
a(S'your'
p6390
S'PRP$'
p6391
F0.9832
tp6392
a(S'topology'
p6393
S'NN'
p6394
F0.9784
tp6395
a(g134
g134
F0.9938
tp6396
a(S'See'
p6397
S'VB'
p6398
F0.9507
tp6399
ag311
tp6400
a((lp6401
(S'Right'
p6402
S'RB'
p6403
F0.7324
tp6404
a(g2456
g134
F0.9809
tp6405
a(S'Apple'
p6406
S'NNP'
p6407
F0.8234
tp6408
a(S'has'
p6409
S'VBZ'
p6410
F0.9798
tp6411
a(S'done'
p6412
S'VBN'
p6413
F0.9787
tp6414
a(S'such'
p6415
S'JJ'
p6416
F0.9429
tp6417
a(g150
S'DT'
p6418
F0.9893
tp6419
a(S'good'
p6420
S'JJ'
p6421
F0.9825
tp6422
a(S'job'
p6423
S'NN'
p6424
F0.9876
tp6425
a(S'with'
p6426
S'IN'
p6427
F0.9981
tp6428
a(S'preorders'
p6429
S'NNS'
p6430
F0.9465
tp6431
a(S'receiving'
p6432
S'VBG'
p6433
F0.986
tp6434
a(S'the'
p6435
S'DT'
p6436
F0.9958
tp6437
a(S'item'
p6438
S'NN'
p6439
F0.9924
tp6440
a(S'before'
p6441
S'IN'
p6442
F0.8109
tp6443
a(S'or'
p6444
S'CC'
p6445
F0.9641
tp6446
a(S'at'
p6447
S'IN'
p6448
F0.9955
tp6449
a(S'the'
p6450
S'DT'
p6451
F0.9923
tp6452
a(S'same'
p6453
S'JJ'
p6454
F0.9733
tp6455
a(S'time'
p6456
S'NN'
p6457
F0.9815
tp6458
a(S'it'
p6459
S'PRP'
p6460
F0.9946
tp6461
a(S'becomes'
p6462
S'VBZ'
p6463
F0.9863
tp6464
a(S'available'
p6465
S'JJ'
p6466
F0.7394
tp6467
a(S'in-store'
p6468
S'JJ'
p6469
F0.8821
tp6470
a(g134
g134
F0.9947
tp6471
ag311
tp6472
a((lp6473
(S'Good'
p6474
S'JJ'
p6475
F0.777
tp6476
a(S'job'
p6477
S'NN'
p6478
F0.9842
tp6479
a(S'on'
p6480
S'IN'
p6481
F0.9983
tp6482
a(S'the'
p6483
S'DT'
p6484
F0.9926
tp6485
a(S'iphone'
p6486
S'NN'
p6487
F0.7257
tp6488
a(S'update'
p6489
S'NN'
p6490
F0.9789
tp6491
a(S'apple'
p6492
S'NN'
p6493
F0.8998
tp6494
a(g134
g134
F0.9905
tp6495
a(S'Though'
p6496
S'RB'
p6497
F0.7594
tp6498
a(S'would'
p6499
S'MD'
p6500
F0.9765
tp6501
a(S'prefer'
p6502
S'VB'
p6503
F0.9239
tp6504
a(S'if'
p6505
S'IN'
p6506
F0.9837
tp6507
a(S'it'
p6508
S'PRP'
p6509
F0.9993
tp6510
a(S"didn't"
p6511
S'VBD'
p6512
F0.4418
tp6513
a(S'delete'
p6514
S'VB'
p6515
F0.9879
tp6516
a(S'all'
p6517
S'DT'
p6518
F0.9584
tp6519
a(S'my'
p6520
S'PRP$'
p6521
F0.9663
tp6522
a(S'fucking'
p6523
S'JJ'
p6524
F0.7082
tp6525
a(S'contacts'
p6526
S'NNS'
p6527
F0.9835
tp6528
a(S':/'
p6529
S'UH'
p6530
F0.9669
tp6531
ag311
tp6532
a((lp6533
(S'ha'
p6534
S'UH'
p6535
F0.9879
tp6536
a(S'that'
p6537
S'DT'
p6538
F0.919
tp6539
a(S'worries'
p6540
S'NNS'
p6541
F0.6008
tp6542
a(S'me'
p6543
S'PRP'
p6544
F0.9842
tp6545
a(g35
g35
F0.9706
tp6546
a(S'cause'
p6547
S'IN'
p6548
F0.5437
tp6549
a(S'I\xc3\xa2\xe2\x82\xac\xe2\x84\xa2m'
p6550
S'NNP'
p6551
F0.6811
tp6552
a(S'on'
p6553
S'IN'
p6554
F0.9842
tp6555
a(g150
S'DT'
p6556
F0.9903
tp6557
a(S'mbp'
p6558
S'NN'
p6559
F0.9128
tp6560
a(S'also'
p6561
S'RB'
p6562
F0.9851
tp6563
a(g134
g134
F0.9896
tp6564
a(S'Might'
p6565
S'MD'
p6566
F0.967
tp6567
a(S'be'
p6568
S'VB'
p6569
F0.9982
tp6570
a(S'something'
p6571
S'NN'
p6572
F0.9175
tp6573
a(S'they'
p6574
S'PRP'
p6575
F0.8479
tp6576
a(S'aren\xc3\xa2\xe2\x82\xac\xe2\x84\xa2t'
p6577
S'VBP'
p6578
F0.5981
tp6579
a(S'handling'
p6580
S'VBG'
p6581
F0.8892
tp6582
a(S'right'
p6583
S'RB'
p6584
F0.8561
tp6585
a(g134
g134
F0.9942
tp6586
a(S'Time'
p6587
S'NN'
p6588
F0.7961
tp6589
a(S'will'
p6590
S'MD'
p6591
F0.9929
tp6592
a(S'tell'
p6593
S'VB'
p6594
F0.9977
tp6595
a(g134
g134
F0.993
tp6596
a(S'Good'
p6597
S'JJ'
p6598
F0.3496
tp6599
a(S'looking'
p6600
S'VBG'
p6601
F0.8563
tp6602
a(S'out'
p6603
S'RP'
p6604
F0.9266
tp6605
ag56
tp6606
a((lp6607
(S'RT'
p6608
S'RT'
p6609
F0.9692
tp6610
a(S'good'
p6611
S'JJ'
p6612
F0.9588
tp6613
a(S'job'
p6614
S'NN'
p6615
F0.9321
tp6616
a(S'Apple'
p6617
S'NNP'
p6618
F0.8333
tp6619
a(g300
g134
F0.9949
tp6620
ag311
tp6621
a((lp6622
(S'nah'
p6623
S'UH'
p6624
F0.9793
tp6625
a(g134
g134
F0.9392
tp6626
a(S'Apple'
p6627
S'NNP'
p6628
F0.9392
tp6629
a(S'just'
p6630
S'RB'
p6631
F0.9978
tp6632
a(S'censors'
p6633
S'VBZ'
p6634
F0.8844
tp6635
a(S'anyone'
p6636
S'NN'
p6637
F0.9861
tp6638
a(S'who'
p6639
S'WP'
p6640
F0.9518
tp6641
a(S'says'
p6642
S'VBZ'
p6643
F0.9524
tp6644
a(S'their'
p6645
S'PRP$'
p6646
F0.8847
tp6647
a(S'shit'
p6648
S'NN'
p6649
F0.9914
tp6650
a(S'sucks'
p6651
S'VBZ'
p6652
F0.8948
tp6653
a(g134
g134
F0.9968
tp6654
ag56
tp6655
a((lp6656
(S'Normally'
p6657
S'RB'
p6658
F0.9869
tp6659
a(g35
g35
F0.9921
tp6660
a(S'fuck'
p6661
S'VB'
p6662
F0.8389
tp6663
a(S'Apple'
p6664
S'NNP'
p6665
F0.9477
tp6666
a(g134
g134
F0.9908
tp6667
a(S'Today'
p6668
S'NN'
p6669
F0.9817
tp6670
a(g35
g35
F0.9902
tp6671
a(S'just'
p6672
S'RB'
p6673
F0.9969
tp6674
a(S'for'
p6675
S'IN'
p6676
F0.9572
tp6677
a(S'now'
p6678
S'RB'
p6679
F0.9887
tp6680
a(g35
g35
F0.9884
tp6681
a(S'Good'
p6682
S'NNP'
p6683
F0.7562
tp6684
a(S'Job'
p6685
S'NNP'
p6686
F0.9716
tp6687
a(g35
g35
F0.9788
tp6688
a(S'Apple'
p6689
S'NNP'
p6690
F0.9856
tp6691
a(g134
g134
F0.9961
tp6692
ag311
tp6693
a((lp6694
(S'The'
p6695
S'DT'
p6696
F0.9673
tp6697
a(S'verdict'
p6698
S'NN'
p6699
F0.9948
tp6700
a(S'is'
p6701
S'VBZ'
p6702
F0.9915
tp6703
a(S'in'
p6704
S'IN'
p6705
F0.9306
tp6706
a(g5
g5
F0.9568
tp6707
a(S'MBP'
p6708
S'NNP'
p6709
F0.3866
tp6710
a(S'drive'
p6711
S'NN'
p6712
F0.8966
tp6713
a(S'is'
p6714
S'VBZ'
p6715
F0.9941
tp6716
a(S'dead'
p6717
S'JJ'
p6718
F0.7059
tp6719
a(g134
g134
F0.9903
tp6720
a(S'Anyone'
p6721
S'NN'
p6722
F0.8764
tp6723
a(S'in'
p6724
S'IN'
p6725
F0.9865
tp6726
a(S'#SF'
p6727
S'HT'
p6728
F0.9778
tp6729
a(S'recommend'
p6730
S'VB'
p6731
F0.5044
tp6732
a(g150
S'DT'
p6733
F0.9921
tp6734
a(S'good'
p6735
S'JJ'
p6736
F0.983
tp6737
a(S'data'
p6738
S'NN'
p6739
F0.9611
tp6740
a(S'recovery'
p6741
S'NN'
p6742
F0.9723
tp6743
a(S'shop'
p6744
S'NN'
p6745
F0.9816
tp6746
a(g2456
g134
F0.99
tp6747
a(S'#backupyourdata'
p6748
S'HT'
p6749
F0.9732
tp6750
ag56
tp6751
a((lp6752
(S'Apparently'
p6753
S'RB'
p6754
F0.8997
tp6755
a(S'Siri'
p6756
S'NNP'
p6757
F0.9981
tp6758
a(S'is'
p6759
S'VBZ'
p6760
F0.9955
tp6761
a(S'incapable'
p6762
S'JJ'
p6763
F0.8889
tp6764
a(S'of'
p6765
S'IN'
p6766
F0.991
tp6767
a(S'giving'
p6768
S'VBG'
p6769
F0.9916
tp6770
a(S'Celsius'
p6771
S'NNS'
p6772
F0.4809
tp6773
a(S'temperatures'
p6774
S'NNS'
p6775
F0.8836
tp6776
a(S'today'
p6777
S'NN'
p6778
F0.9736
tp6779
a(g134
g134
F0.9955
tp6780
a(S'Good'
p6781
S'JJ'
p6782
F0.8114
tp6783
a(S'job'
p6784
S'NN'
p6785
F0.9592
tp6786
a(S'Apple'
p6787
S'NNP'
p6788
F0.8823
tp6789
a(g134
g134
F0.996
tp6790
ag56
tp6791
a((lp6792
(S'One'
p6793
S'CD'
p6794
F0.8922
tp6795
a(S'thing'
p6796
S'NN'
p6797
F0.9321
tp6798
a(S'apple'
p6799
S'NN'
p6800
F0.6849
tp6801
a(S'just'
p6802
S'RB'
p6803
F0.9985
tp6804
a(S"can't"
p6805
S'MD'
p6806
F0.9253
tp6807
a(S'get'
p6808
S'VB'
p6809
F0.9952
tp6810
a(S'right'
p6811
S'RB'
p6812
F0.857
tp6813
a(S'is'
p6814
S'VBZ'
p6815
F0.9928
tp6816
a(S'the'
p6817
S'DT'
p6818
F0.9967
tp6819
a(S'search'
p6820
S'NN'
p6821
F0.9889
tp6822
a(S'on'
p6823
S'IN'
p6824
F0.9963
tp6825
a(S'ya'
p6826
S'PRP$'
p6827
F0.8081
tp6828
a(S'iPhone'
p6829
S'NNP'
p6830
F0.546
tp6831
a(g134
g134
F0.9954
tp6832
a(S'This'
p6833
S'DT'
p6834
F0.9899
tp6835
a(S'new'
p6836
S'JJ'
p6837
F0.9879
tp6838
a(S'search'
p6839
S'NN'
p6840
F0.9942
tp6841
a(S'in'
p6842
S'IN'
p6843
F0.9942
tp6844
a(S'ya'
p6845
S'PRP$'
p6846
F0.628
tp6847
a(S'email'
p6848
S'NN'
p6849
F0.9157
tp6850
a(S'just'
p6851
S'RB'
p6852
F0.9983
tp6853
a(S'makes'
p6854
S'VBZ'
p6855
F0.9018
tp6856
a(S'things'
p6857
S'NNS'
p6858
F0.9757
tp6859
a(S'worse'
p6860
S'JJ'
p6861
F0.5212
tp6862
ag56
tp6863
a((lp6864
(S'apple'
p6865
S'NNP'
p6866
F0.7956
tp6867
a(S'sucks'
p6868
S'VBZ'
p6869
F0.981
tp6870
a(S'tbh'
p6871
S'NN'
p6872
F0.7762
tp6873
ag56
tp6874
a((lp6875
(S'RT'
p6876
S'RT'
p6877
F0.9734
tp6878
a(S'This'
p6879
S'DT'
p6880
F0.9886
tp6881
a(S'middle'
p6882
S'NN'
p6883
F0.9749
tp6884
a(S'finger'
p6885
S'NN'
p6886
F0.9846
tp6887
a(S'emoji'
p6888
S'NN'
p6889
F0.6745
tp6890
a(S'might'
p6891
S'MD'
p6892
F0.9614
tp6893
a(S'be'
p6894
S'VB'
p6895
F0.9984
tp6896
a(S'the'
p6897
S'DT'
p6898
F0.9917
tp6899
a(S'best'
p6900
S'JJS'
p6901
F0.9641
tp6902
a(S'update'
p6903
S'NN'
p6904
F0.9876
tp6905
a(S'yet'
p6906
S'RB'
p6907
F0.7093
tp6908
a(S'...'
p6909
g5
F0.9951
tp6910
a(S'Good'
p6911
S'JJ'
p6912
F0.8792
tp6913
a(S'job'
p6914
S'NN'
p6915
F0.9532
tp6916
a(S'Apple'
p6917
S'NNP'
p6918
F0.8437
tp6919
a(S'????????????'
p6920
g134
F0.9738
tp6921
ag311
tp6922
a((lp6923
(S'Apple'
p6924
S'NNP'
p6925
F0.9095
tp6926
a(S'sucks'
p6927
S'VBZ'
p6928
F0.9671
tp6929
a(S"I'll"
p6930
S'PRP'
p6931
F0.6103
tp6932
a(S'peng'
p6933
S'VBG'
p6934
F0.274
tp6935
a(S'to'
p6936
S'TO'
p6937
F0.9912
tp6938
a(S'android'
p6939
S'NNP'
p6940
F0.6264
tp6941
ag56
tp6942
a((lp6943
(S'Oil'
p6944
S'NN'
p6945
F0.9517
tp6946
a(S'is'
p6947
S'VBZ'
p6948
F0.9907
tp6949
a(S'changed'
p6950
S'VBN'
p6951
F0.9089
tp6952
a(g35
g35
F0.9864
tp6953
a(S'kids'
p6954
S'NNS'
p6955
F0.8949
tp6956
a(S'in'
p6957
S'IN'
p6958
F0.9935
tp6959
a(S'bed'
p6960
S'NN'
p6961
F0.9869
tp6962
a(g35
g35
F0.9922
tp6963
a(S'up'
p6964
S'RP'
p6965
F0.8595
tp6966
a(S'and'
p6967
S'CC'
p6968
F0.9888
tp6969
a(S'running'
p6970
S'VBG'
p6971
F0.8097
tp6972
a(S'on'
p6973
S'IN'
p6974
F0.9941
tp6975
a(S'the'
p6976
S'DT'
p6977
F0.9932
tp6978
a(S'new'
p6979
S'JJ'
p6980
F0.9577
tp6981
a(S'MBP'
p6982
S'NN'
p6983
F0.7507
tp6984
a(g300
g134
F0.9891
tp6985
a(S'All'
p6986
S'DT'
p6987
F0.8696
tp6988
a(S'is'
p6989
S'VBZ'
p6990
F0.9962
tp6991
a(S'good'
p6992
S'JJ'
p6993
F0.9521
tp6994
a(S'in'
p6995
S'IN'
p6996
F0.997
tp6997
a(S'the'
p6998
S'DT'
p6999
F0.9977
tp7000
a(S'world'
p7001
S'NN'
p7002
F0.985
tp7003
a(S'tonight'
p7004
S'NN'
p7005
F0.9887
tp7006
a(g134
g134
F0.9954
tp7007
ag311
tp7008
a((lp7009
(S'apple'
p7010
S'NNP'
p7011
F0.7966
tp7012
a(S'sucks'
p7013
S'VBZ'
p7014
F0.9752
tp7015
a(S'but'
p7016
S'CC'
p7017
F0.9882
tp7018
a(g110
S'PRP'
p7019
F0.9957
tp7020
a(S'still'
p7021
S'RB'
p7022
F0.9557
tp7023
a(S'buy'
p7024
S'VB'
p7025
F0.8661
tp7026
a(S'their'
p7027
S'PRP$'
p7028
F0.96
tp7029
a(S'products'
p7030
S'NNS'
p7031
F0.9341
tp7032
a(S'why'
p7033
S'WRB'
p7034
F0.9261
tp7035
ag56
tp7036
a((lp7037
(S'apple'
p7038
S'NNP'
p7039
F0.8195
tp7040
a(S'cable'
p7041
S'NN'
p7042
F0.8348
tp7043
a(S'sucks'
p7044
S'VBZ'
p7045
F0.9711
tp7046
a(S'alot'
p7047
S'NN'
p7048
F0.2653
tp7049
ag56
tp7050
a((lp7051
(S'the'
p7052
S'DT'
p7053
F0.9802
tp7054
a(S'new'
p7055
S'JJ'
p7056
F0.9354
tp7057
a(S'apple'
p7058
S'NN'
p7059
F0.9085
tp7060
a(S'music'
p7061
S'NN'
p7062
F0.9916
tp7063
a(S'sucks'
p7064
S'VBZ'
p7065
F0.9691
tp7066
a(S'big'
p7067
S'JJ'
p7068
F0.9884
tp7069
a(S'time'
p7070
S'NN'
p7071
F0.965
tp7072
a(g134
g134
F0.9796
tp7073
a(S'Not'
p7074
S'RB'
p7075
F0.9568
tp7076
a(S'music'
p7077
S'NN'
p7078
F0.849
tp7079
a(S'lover'
p7080
S'NN'
p7081
F0.9929
tp7082
a(S'friendly'
p7083
S'JJ'
p7084
F0.7042
tp7085
a(S'at'
p7086
S'IN'
p7087
F0.9932
tp7088
a(S'all'
p7089
S'DT'
p7090
F0.9938
tp7091
a(S':-('
p7092
S'UH'
p7093
F0.9215
tp7094
ag56
tp7095
a.