(lp0
((lp1
(S'RT'
p2
S'RT'
p3
F0.9734
tp4
a(S'This'
p5
S'DT'
p6
F0.9814
tp7
a(S'emoji'
p8
S'NN'
p9
F0.9375
tp10
a(S'is'
p11
S'VBZ'
p12
F0.9935
tp13
a(S'my'
p14
S'PRP$'
p15
F0.9976
tp16
a(S'life'
p17
S'NN'
p18
F0.9968
tp19
a(S':'
p20
g20
F0.9487
tp21
a(S'????'
p22
S'.'
p23
F0.9169
tp24
a(S'Good'
p25
S'JJ'
p26
F0.8719
tp27
a(S'job'
p28
S'NN'
p29
F0.9534
tp30
a(S'Apple'
p31
S'NNP'
p32
F0.8818
tp33
a(g23
g23
F0.9924
tp34
a(S'Good'
p35
S'JJ'
p36
F0.8268
tp37
a(S'job'
p38
S'NN'
p39
F0.991
tp40
a(g23
g23
F0.9968
tp41
aS'1'
p42
tp43
a((lp44
(S'Apple'
p45
S'NNP'
p46
F0.9625
tp47
a(S'Music'
p48
S'NNP'
p49
F0.6717
tp50
a(S'sucks'
p51
S'VBZ'
p52
F0.9539
tp53
a(S'everything'
p54
S'NN'
p55
F0.9949
tp56
a(S'has'
p57
S'VBZ'
p58
F0.9795
tp59
a(S'to'
p60
S'TO'
p61
F0.9989
tp62
a(S'be'
p63
S'VB'
p64
F0.9986
tp65
a(S'stored'
p66
S'VBN'
p67
F0.9804
tp68
a(S'to'
p69
S'TO'
p70
F0.9935
tp71
a(S'my'
p72
S'PRP$'
p73
F0.9878
tp74
a(S'phone'
p75
S'NN'
p76
F0.9969
tp77
a(S'i'
p78
S'PRP'
p79
F0.9717
tp80
a(S"can't"
p81
S'MD'
p82
F0.7928
tp83
a(S'stream'
p84
S'VB'
p85
F0.7846
tp86
a(S'it'
p87
S'PRP'
p88
F0.9928
tp89
a(S'&'
p90
S'CC'
p91
F0.8885
tp92
a(S'as'
p93
S'IN'
p94
F0.8606
tp95
a(S'a'
p96
S'DT'
p97
F0.9922
tp98
a(S'unprivileged'
p99
S'NN'
p100
F0.5273
tp101
a(S'16gig'
p102
S'NN'
p103
F0.713
tp104
a(S'iPhone'
p105
S'NN'
p106
F0.6808
tp107
a(S'owner'
p108
S'NN'
p109
F0.9928
tp110
a(S'that'
p111
S'WDT'
p112
F0.3923
tp113
a(S'makes'
p114
S'VBZ'
p115
F0.9909
tp116
a(S'me'
p117
S'PRP'
p118
F0.9889
tp119
a(S'sad'
p120
S'JJ'
p121
F0.9803
tp122
aS'0'
p123
tp124
a((lp125
(S'good'
p126
S'JJ'
p127
F0.7479
tp128
a(S'job'
p129
S'NN'
p130
F0.9501
tp131
a(S'apple'
p132
S'NN'
p133
F0.7747
tp134
a(S'!'
p135
g23
F0.9904
tp136
a(S'????????'
p137
g23
F0.9506
tp138
ag42
tp139
a((lp140
(S'good'
p141
S'JJ'
p142
F0.7479
tp143
a(S'job'
p144
S'NN'
p145
F0.8733
tp146
a(S'Apple'
p147
S'NNP'
p148
F0.866
tp149
a(g135
g23
F0.9949
tp150
ag42
tp151
a((lp152
(S'ALL'
p153
S'DT'
p154
F0.8004
tp155
a(S'THE'
p156
S'DT'
p157
F0.9413
tp158
a(S'NEW'
p159
S'JJ'
p160
F0.914
tp161
a(S'EMOJIS'
p162
S'NNS'
p163
F0.8111
tp164
a(S'THO'
p165
S'RB'
p166
F0.288
tp167
a(S'>>>>>>>>'
p168
S'UH'
p169
F0.1744
tp170
a(S'GOOD'
p171
S'JJ'
p172
F0.7239
tp173
a(S'JOB'
p174
S'NN'
p175
F0.5611
tp176
a(S'APPLE'
p177
S'NNP'
p178
F0.8057
tp179
a(S'!!!'
p180
g23
F0.9876
tp181
a(S'Except'
p182
S'IN'
p183
F0.7491
tp184
a(S"there's"
p185
S'RB'
p186
F0.1749
tp187
a(S'still'
p188
S'RB'
p189
F0.9932
tp190
a(S'no'
p191
S'DT'
p192
F0.8902
tp193
a(S'giraffe'
p194
S'NN'
p195
F0.9786
tp196
a(g23
g23
F0.9934
tp197
a(S'So'
p198
S'RB'
p199
F0.5982
tp200
a(g23
g23
F0.9905
tp201
a(S'????????'
p202
g23
F0.9494
tp203
ag42
tp204
a((lp205
(S'Apple'
p206
S'NNP'
p207
F0.9095
tp208
a(S'sucks'
p209
S'VBZ'
p210
F0.9795
tp211
a(S'their'
p212
S'PRP$'
p213
F0.9562
tp214
a(S'phones'
p215
S'NNS'
p216
F0.9408
tp217
a(S'die'
p218
S'VBP'
p219
F0.5929
tp220
a(S'to'
p221
S'TO'
p222
F0.9934
tp223
a(S'fast'
p224
S'RB'
p225
F0.3343
tp226
ag123
tp227
a((lp228
(S"Apple's"
p229
S'NNP'
p230
F0.9221
tp231
a(S'"'
p232
S"''"
p233
F0.9667
tp234
a(S'Hot'
p235
S'NNP'
p236
F0.6984
tp237
a(S'News'
p238
S'NNP'
p239
F0.9629
tp240
a(g232
S"''"
p241
F0.9762
tp242
a(S'Sucks'
p243
S'VBZ'
p244
F0.7428
tp245
a(g135
g23
F0.9938
tp246
a(S"Here's"
p247
S'RB'
p248
F0.9079
tp249
a(S'What'
p250
S'WP'
p251
F0.966
tp252
a(S'Could'
p253
S'MD'
p254
F0.9812
tp255
a(S'Be'
p256
S'VB'
p257
F0.9987
tp258
a(S'Different'
p259
S'JJ'
p260
F0.8234
tp261
a(S'#BusinessBlogging'
p262
S'HT'
p263
F0.9462
tp264
a(S'#CompanyBlog'
p265
S'HT'
p266
F0.9841
tp267
ag123
tp268
a((lp269
(S'I'
p270
S'PRP'
p271
F0.9979
tp272
a(S'know'
p273
S'VBP'
p274
F0.9474
tp275
a(S'that'
p276
S'DT'
p277
F0.6713
tp278
a(g23
g23
F0.9943
tp279
a(S"That's"
p280
S'DT'
p281
F0.6944
tp282
a(S'why'
p283
S'WRB'
p284
F0.9266
tp285
a(S"it's"
p286
S'PRP'
p287
F0.8813
tp288
a(S'sometimes'
p289
S'RB'
p290
F0.9861
tp291
a(S'annoying'
p292
S'JJ'
p293
F0.9675
tp294
a(S'on'
p295
S'IN'
p296
F0.9904
tp297
a(S'Sailfish'
p298
S'NNP'
p299
F0.989
tp300
a(S'or'
p301
S'CC'
p302
F0.9842
tp303
a(S'BB10'
p304
S'CD'
p305
F0.5093
tp306
a(g23
g23
F0.9881
tp307
a(S'but'
p308
S'CC'
p309
F0.9873
tp310
a(S'apple'
p311
S'NN'
p312
F0.6733
tp313
a(S'is'
p314
S'VBZ'
p315
F0.9966
tp316
a(S'worse'
p317
S'JJ'
p318
F0.472
tp319
a(S'about'
p320
S'IN'
p321
F0.9787
tp322
a(S'that'
p323
S'DT'
p324
F0.6729
tp325
a(g23
g23
F0.9959
tp326
ag123
tp327
a((lp328
(S'????????'
p329
g23
F0.9159
tp330
a(S'finally'
p331
S'RB'
p332
F0.9911
tp333
a(S'got'
p334
S'VBD'
p335
F0.8361
tp336
a(S'the'
p337
S'DT'
p338
F0.9967
tp339
a(S'middle'
p340
S'NN'
p341
F0.9732
tp342
a(S'finger'
p343
S'NN'
p344
F0.9879
tp345
a(S'emoji'
p346
S'NN'
p347
F0.7651
tp348
a(S','
p349
g349
F0.9923
tp350
a(S'good'
p351
S'JJ'
p352
F0.9501
tp353
a(S'job'
p354
S'NN'
p355
F0.9424
tp356
a(S'Apple'
p357
S'NNP'
p358
F0.8997
tp359
ag42
tp360
a((lp361
(S'Loving'
p362
S'VBG'
p363
F0.9851
tp364
a(S'my'
p365
S'PRP$'
p366
F0.9941
tp367
a(S'new'
p368
S'JJ'
p369
F0.9779
tp370
a(S'MacBook'
p371
S'NN'
p372
F0.7041
tp373
a(S'Pro'
p374
S'NN'
p375
F0.5527
tp376
a(S'15'
p377
S'CD'
p378
F0.9507
tp379
a(g232
S"''"
p380
F0.9818
tp381
a(S'..'
p382
g20
F0.9441
tp383
a(S'but'
p384
S'CC'
p385
F0.9713
tp386
a(S'damn'
p387
S'RB'
p388
F0.3993
tp389
a(S'the'
p390
S'DT'
p391
F0.9909
tp392
a(S'fan'
p393
S'NN'
p394
F0.9868
tp395
a(S'is'
p396
S'VBZ'
p397
F0.994
tp398
a(S'loud'
p399
S'JJ'
p400
F0.7866
tp401
a(S'!!'
p402
g23
F0.9891
tp403
ag123
tp404
a((lp405
(S'Finally'
p406
S'RB'
p407
F0.9492
tp408
a(S"I've"
p409
S'PRP'
p410
F0.929
tp411
a(S'been'
p412
S'VBN'
p413
F0.8526
tp414
a(S'waiting'
p415
S'VBG'
p416
F0.9881
tp417
a(S'for'
p418
S'IN'
p419
F0.996
tp420
a(S'the'
p421
S'DT'
p422
F0.9959
tp423
a(S'volleyball'
p424
S'NN'
p425
F0.9886
tp426
a(S'emoji'
p427
S'NN'
p428
F0.8065
tp429
a(S'????????????'
p430
g23
F0.9507
tp431
a(S'good'
p432
S'JJ'
p433
F0.9441
tp434
a(S'job'
p435
S'NN'
p436
F0.9393
tp437
a(S'Apple'
p438
S'NNP'
p439
F0.8916
tp440
ag42
tp441
a((lp442
(S'is'
p443
S'VBZ'
p444
F0.9758
tp445
a(S'that'
p446
S'DT'
p447
F0.8412
tp448
a(S'good'
p449
S'JJ'
p450
F0.9509
tp451
a(S'?'
p452
g23
F0.9848
tp453
a(S'the'
p454
S'DT'
p455
F0.9886
tp456
a(S'13\xc3\xa2\xe2\x82\xac\xc2\x9d'
p457
S'CD'
p458
F0.4
tp459
a(S'retina'
p460
S'NN'
p461
F0.8873
tp462
a(S'mbp'
p463
S'NN'
p464
F0.868
tp465
a(S'graphics'
p466
S'NNS'
p467
F0.4895
tp468
a(S'are'
p469
S'VBP'
p470
F0.9533
tp471
a(S'horrific'
p472
S'JJ'
p473
F0.9759
tp474
ag123
tp475
a((lp476
(S'APPLE'
p477
S'NNP'
p478
F0.965
tp479
a(S'ADDED'
p480
S'VBN'
p481
F0.3761
tp482
a(S'MIDDLE'
p483
S'NN'
p484
F0.6076
tp485
a(S'FINGER'
p486
S'NN'
p487
F0.9575
tp488
a(g349
g349
F0.9912
tp489
a(S'BURRITO'
p490
S'NNP'
p491
F0.8127
tp492
a(g349
g349
F0.9889
tp493
a(S'AND'
p494
S'CC'
p495
F0.9843
tp496
a(S'UNICORN'
p497
S'NNP'
p498
F0.715
tp499
a(S'EMOJIS'
p500
S'NNP'
p501
F0.6873
tp502
a(S'GOOD'
p503
S'JJ'
p504
F0.51
tp505
a(S'JOB'
p506
S'NN'
p507
F0.9088
tp508
a(g270
S'PRP'
p509
F0.9928
tp510
a(S'LOVE'
p511
S'VBP'
p512
F0.9975
tp513
a(S'YOU'
p514
S'PRP'
p515
F0.9979
tp516
a(S'????????????????'
p517
g23
F0.9699
tp518
ag42
tp519
a((lp520
(S'apple'
p521
S'NNP'
p522
F0.7966
tp523
a(S'sucks'
p524
S'VBZ'
p525
F0.9837
tp526
a(S'now'
p527
S'RB'
p528
F0.9929
tp529
a(g349
g349
F0.9905
tp530
a(S'mostly'
p531
S'RB'
p532
F0.4758
tp533
a(g23
g23
F0.9911
tp534
a(S'we'
p535
S'PRP'
p536
F0.9608
tp537
a(S'all'
p538
S'DT'
p539
F0.9278
tp540
a(S'know'
p541
S'VBP'
p542
F0.724
tp543
a(S'it'
p544
S'PRP'
p545
F0.9973
tp546
ag123
tp547
a((lp548
(S'Apple'
p549
S'NNP'
p550
F0.9629
tp551
a(S'News'
p552
S'NNP'
p553
F0.8255
tp554
a(S'has'
p555
S'VBZ'
p556
F0.9713
tp557
a(S'not'
p558
S'RB'
p559
F0.9948
tp560
a(S'done'
p561
S'VBN'
p562
F0.9581
tp563
a(g96
S'DT'
p564
F0.9874
tp565
a(S'good'
p566
S'JJ'
p567
F0.9825
tp568
a(S'job'
p569
S'NN'
p570
F0.9876
tp571
a(S'with'
p572
S'IN'
p573
F0.9974
tp574
a(S'accessibility'
p575
S'NN'
p576
F0.8358
tp577
a(g23
g23
F0.9935
tp578
a(S'Cant'
p579
S'MD'
p580
F0.7431
tp581
a(S'zoom'
p582
S'VB'
p583
F0.7108
tp584
a(g349
g349
F0.9879
tp585
a(S'can\xc3\xa2\xe2\x82\xac\xe2\x84\xa2t'
p586
S'NNP'
p587
F0.2771
tp588
a(S'go'
p589
S'VB'
p590
F0.5127
tp591
a(S'into'
p592
S'IN'
p593
F0.9915
tp594
a(S'landscape'
p595
S'NN'
p596
F0.927
tp597
a(S'mode'
p598
S'NN'
p599
F0.9975
tp600
a(g349
g349
F0.9915
tp601
a(S'can\xc3\xa2\xe2\x82\xac\xe2\x84\xa2t'
p602
S'NNP'
p603
F0.2953
tp604
a(S'increase'
p605
S'NN'
p606
F0.8569
tp607
a(S'font'
p608
S'NN'
p609
F0.9519
tp610
a(S'size'
p611
S'NN'
p612
F0.9946
tp613
a(g349
g349
F0.9915
tp614
a(S'can\xc3\xa2\xe2\x82\xac\xe2\x84\xa2t'
p615
S'NNP'
p616
F0.2592
tp617
a(S'select'
p618
S'NN'
p619
F0.2852
tp620
a(S'text\xc3\xa2\xe2\x82\xac\xc2\xa6'
p621
S'NN'
p622
F0.5248
tp623
ag123
tp624
a((lp625
(S'Finally'
p626
S'RB'
p627
F0.9659
tp628
a(S'updated'
p629
S'VBD'
p630
F0.7036
tp631
a(S'my'
p632
S'PRP$'
p633
F0.9944
tp634
a(S'MBP'
p635
S'NN'
p636
F0.5567
tp637
a(S'from'
p638
S'IN'
p639
F0.9976
tp640
a(S'Lion'
p641
S'NNP'
p642
F0.931
tp643
a(S'to'
p644
S'TO'
p645
F0.9802
tp646
a(S'Yosemite'
p647
S'NNP'
p648
F0.9978
tp649
a(g23
g23
F0.9926
tp650
a(S'Took'
p651
S'VBD'
p652
F0.8301
tp653
a(g96
S'DT'
p654
F0.9853
tp655
a(S'while'
p656
S'NN'
p657
F0.8701
tp658
a(g349
g349
F0.9903
tp659
a(S'but'
p660
S'CC'
p661
F0.9953
tp662
a(S'everything'
p663
S'NN'
p664
F0.9875
tp665
a(S'went'
p666
S'VBD'
p667
F0.9272
tp668
a(S'smoothly'
p669
S'RB'
p670
F0.9552
tp671
a(S'and'
p672
S'CC'
p673
F0.9942
tp674
a(S'the'
p675
S'DT'
p676
F0.9881
tp677
a(S'new'
p678
S'JJ'
p679
F0.9677
tp680
a(S'UI'
p681
S'NN'
p682
F0.6875
tp683
a(S'looks'
p684
S'VBZ'
p685
F0.9032
tp686
a(S'nice'
p687
S'JJ'
p688
F0.9891
tp689
a(g23
g23
F0.9928
tp690
a(S'So'
p691
S'RB'
p692
F0.9407
tp693
a(S'far'
p694
S'RB'
p695
F0.9612
tp696
a(g349
g349
F0.9914
tp697
a(S'so'
p698
S'RB'
p699
F0.8866
tp700
a(S'good'
p701
S'JJ'
p702
F0.9908
tp703
a(S'...'
p704
g20
F0.9944
tp705
ag42
tp706
a((lp707
(S'New'
p708
S'JJ'
p709
F0.8923
tp710
a(S'emojis'
p711
S'NNS'
p712
F0.9105
tp713
a(S'good'
p714
S'JJ'
p715
F0.9579
tp716
a(S'job'
p717
S'NN'
p718
F0.9521
tp719
a(S'apple'
p720
S'NN'
p721
F0.7324
tp722
a(S'????????'
p723
g23
F0.9758
tp724
ag42
tp725
a((lp726
(S'TM'
p727
S'NNP'
p728
F0.8239
tp729
a(g20
g20
F0.9658
tp730
a(S'Apple'
p731
S'NNP'
p732
F0.938
tp733
a(S'TV'
p734
S'NNP'
p735
F0.8076
tp736
a(S'2015'
p737
S'CD'
p738
F0.7189
tp739
a(S'review'
p740
S'NN'
p741
F0.9844
tp742
a(g20
g20
F0.9695
tp743
a(S'fast'
p744
S'RB'
p745
F0.6323
tp746
a(S'and'
p747
S'CC'
p748
F0.9898
tp749
a(S'easy'
p750
S'JJ'
p751
F0.9097
tp752
a(S'to'
p753
S'TO'
p754
F0.9954
tp755
a(S'navigate'
p756
S'VB'
p757
F0.9865
tp758
a(g349
g349
F0.9868
tp759
a(S'but'
p760
S'CC'
p761
F0.9939
tp762
a(S'keyboard'
p763
S'NN'
p764
F0.8972
tp765
a(S'worse'
p766
S'JJ'
p767
F0.3493
tp768
a(g349
g349
F0.9893
tp769
a(S'Siri'
p770
S'NNP'
p771
F0.9995
tp772
a(S'limited'
p773
S'JJ'
p774
F0.3843
tp775
a(g349
g349
F0.9885
tp776
a(S'feels'
p777
S'VBZ'
p778
F0.8515
tp779
a(S'like'
p780
S'IN'
p781
F0.7121
tp782
a(S'first'
p783
S'JJ'
p784
F0.9539
tp785
a(S'effort'
p786
S'NN'
p787
F0.99
tp788
a(S'...'
p789
g20
F0.9942
tp790
ag123
tp791
a((lp792
(S'good'
p793
S'JJ'
p794
F0.5994
tp795
a(S'purchase'
p796
S'NN'
p797
F0.8636
tp798
a(g23
g23
F0.9914
tp799
a(S'hope'
p800
S'VBP'
p801
F0.9764
tp802
a(S'you'
p803
S'PRP'
p804
F0.9983
tp805
a(S'enjoy'
p806
S'VBP'
p807
F0.8318
tp808
a(S'it'
p809
S'PRP'
p810
F0.9959
tp811
a(S'as'
p812
S'IN'
p813
F0.6626
tp814
a(S'much'
p815
S'RB'
p816
F0.9573
tp817
a(S'as'
p818
S'IN'
p819
F0.9481
tp820
a(g270
S'PRP'
p821
F0.9918
tp822
a(S'enjoy'
p823
S'VBP'
p824
F0.7187
tp825
a(S'my'
p826
S'PRP$'
p827
F0.994
tp828
a(S'MBP'
p829
S'NN'
p830
F0.5793
tp831
a(g23
g23
F0.9949
tp832
ag42
tp833
a((lp834
(S'the'
p835
S'DT'
p836
F0.9802
tp837
a(S'new'
p838
S'JJ'
p839
F0.9743
tp840
a(S'emojis'
p841
S'NNS'
p842
F0.9844
tp843
a(S'are'
p844
S'VBP'
p845
F0.9761
tp846
a(S'great'
p847
S'JJ'
p848
F0.9774
tp849
a(S'good'
p850
S'JJ'
p851
F0.9705
tp852
a(S'job'
p853
S'NN'
p854
F0.963
tp855
a(S'apple'
p856
S'NN'
p857
F0.7615
tp858
a(S'????'
p859
g23
F0.9752
tp860
ag42
tp861
a((lp862
(S'-'
p863
g20
F0.9365
tp864
a(S'Apple'
p865
S'NNP'
p866
F0.9733
tp867
a(S'TV'
p868
S'NNP'
p869
F0.7748
tp870
a(S'2015'
p871
S'CD'
p872
F0.6796
tp873
a(S'review'
p874
S'NN'
p875
F0.9844
tp876
a(g20
g20
F0.9695
tp877
a(S'fast'
p878
S'RB'
p879
F0.6323
tp880
a(S'and'
p881
S'CC'
p882
F0.9898
tp883
a(S'easy'
p884
S'JJ'
p885
F0.9097
tp886
a(S'to'
p887
S'TO'
p888
F0.9954
tp889
a(S'navigate'
p890
S'VB'
p891
F0.9865
tp892
a(g349
g349
F0.9868
tp893
a(S'but'
p894
S'CC'
p895
F0.9939
tp896
a(S'keyboard'
p897
S'NN'
p898
F0.8972
tp899
a(S'worse'
p900
S'JJ'
p901
F0.3493
tp902
a(g349
g349
F0.9893
tp903
a(S'Siri'
p904
S'NNP'
p905
F0.9995
tp906
a(S'limited'
p907
S'JJ'
p908
F0.3843
tp909
a(g349
g349
F0.9885
tp910
a(S'feels'
p911
S'VBZ'
p912
F0.8515
tp913
a(S'like'
p914
S'IN'
p915
F0.7121
tp916
a(S'first'
p917
S'JJ'
p918
F0.9491
tp919
a(S'effort'
p920
S'NN'
p921
F0.9863
tp922
a(S'in'
p923
S'IN'
p924
F0.9848
tp925
a(S'ne\xc3\xa2\xe2\x82\xac\xc2\xa6'
p926
S'NN'
p927
F0.3008
tp928
ag123
tp929
a((lp930
(S'I\xc3\xa2\xe2\x82\xac\xe2\x84\xa2m'
p931
S'PRP'
p932
F0.4199
tp933
a(S'honestly'
p934
S'RB'
p935
F0.997
tp936
a(S'surprised'
p937
S'VBD'
p938
F0.6071
tp939
a(S'the'
p940
S'DT'
p941
F0.994
tp942
a(S'new'
p943
S'JJ'
p944
F0.9577
tp945
a(S'MacBook'
p946
S'NN'
p947
F0.7408
tp948
a(S'isn\xc3\xa2\xe2\x82\xac\xe2\x84\xa2t'
p949
S'NN'
p950
F0.7037
tp951
a(S'getting'
p952
S'VBG'
p953
F0.9899
tp954
a(S'more'
p955
S'RBR'
p956
F0.6124
tp957
a(S'loud'
p958
S'JJ'
p959
F0.9254
tp960
a(S'criticism'
p961
S'NN'
p962
F0.9664
tp963
a(S'for'
p964
S'IN'
p965
F0.9909
tp966
a(S'how'
p967
S'WRB'
p968
F0.9619
tp969
a(S'unbelievably'
p970
S'RB'
p971
F0.9017
tp972
a(S'slow'
p973
S'JJ'
p974
F0.9048
tp975
a(S'it'
p976
S'PRP'
p977
F0.9812
tp978
a(S'is'
p979
S'VBZ'
p980
F0.9963
tp981
a(g23
g23
F0.995
tp982
ag123
tp983
a((lp984
(S'Both'
p985
S'DT'
p986
F0.3866
tp987
a(S'2007'
p988
S'CD'
p989
F0.814
tp990
a(S'MBP'
p991
S'NN'
p992
F0.3808
tp993
a(S'and'
p994
S'CC'
p995
F0.9963
tp996
a(S'2013'
p997
S'CD'
p998
F0.967
tp999
a(S'MBPr'
p1000
S'NNP'
p1001
F0.2652
tp1002
a(S'updated'
p1003
S'VBN'
p1004
F0.514
tp1005
a(S'to'
p1006
S'TO'
p1007
F0.9856
tp1008
a(S'El'
p1009
S'NNP'
p1010
F0.9725
tp1011
a(S'Capitan'
p1012
S'NNP'
p1013
F0.9988
tp1014
a(g23
g23
F0.9939
tp1015
a(S'So'
p1016
S'RB'
p1017
F0.9407
tp1018
a(S'far'
p1019
S'RB'
p1020
F0.9706
tp1021
a(S'looking'
p1022
S'VBG'
p1023
F0.6896
tp1024
a(S'good'
p1025
S'JJ'
p1026
F0.8994
tp1027
a(g23
g23
F0.9923
tp1028
ag42
tp1029
a((lp1030
(S'Working'
p1031
S'VBG'
p1032
F0.9445
tp1033
a(S'on'
p1034
S'IN'
p1035
F0.9839
tp1036
a(g96
S'DT'
p1037
F0.9939
tp1038
a(S'brand'
p1039
S'NN'
p1040
F0.8962
tp1041
a(S'new'
p1042
S'JJ'
p1043
F0.9651
tp1044
a(S'retina'
p1045
S'NN'
p1046
F0.9796
tp1047
a(S'MBP'
p1048
S'NN'
p1049
F0.7742
tp1050
a(S'after'
p1051
S'IN'
p1052
F0.9789
tp1053
a(S'having'
p1054
S'VBG'
p1055
F0.9888
tp1056
a(S'used'
p1057
S'VBD'
p1058
F0.8969
tp1059
a(S'an'
p1060
S'DT'
p1061
F0.9693
tp1062
a(S'old'
p1063
S'JJ'
p1064
F0.6247
tp1065
a(S'non-retina'
p1066
S'JJ'
p1067
F0.8363
tp1068
a(S'for'
p1069
S'IN'
p1070
F0.9969
tp1071
a(g96
S'DT'
p1072
F0.9849
tp1073
a(S'while'
p1074
S'NN'
p1075
F0.8007
tp1076
a(S'feels'
p1077
S'VBZ'
p1078
F0.8548
tp1079
a(S'*'
p1080
S"''"
p1081
F0.1766
tp1082
a(S'too'
p1083
S'RB'
p1084
F0.7438
tp1085
a(g1080
S"''"
p1086
F0.1391
tp1087
a(S'good'
p1088
S'JJ'
p1089
F0.6902
tp1090
a(g23
g23
F0.9896
tp1091
ag42
tp1092
a((lp1093
(S'Good'
p1094
S'JJ'
p1095
F0.777
tp1096
a(S'job'
p1097
S'NN'
p1098
F0.9905
tp1099
a(g349
g349
F0.9866
tp1100
a(S'Apple'
p1101
S'NNP'
p1102
F0.9785
tp1103
a(g135
g23
F0.9883
tp1104
a(S'????????????????????????????????'
p1105
S'UH'
p1106
F0.2866
tp1107
ag42
tp1108
a((lp1109
(S'RT'
p1110
S'RT'
p1111
F0.9657
tp1112
a(S'Aw'
p1113
S'UH'
p1114
F0.9624
tp1115
a(S'look'
p1116
S'VB'
p1117
F0.4063
tp1118
a(S'they'
p1119
S'PRP'
p1120
F0.9849
tp1121
a(S'made'
p1122
S'VBD'
p1123
F0.9697
tp1124
a(S'Travis'
p1125
S'NNP'
p1126
F0.9991
tp1127
a(S'into'
p1128
S'IN'
p1129
F0.9949
tp1130
a(S'an'
p1131
S'DT'
p1132
F0.984
tp1133
a(S'emoji'
p1134
S'NN'
p1135
F0.9104
tp1136
a(g135
g23
F0.9887
tp1137
a(S'Good'
p1138
S'JJ'
p1139
F0.8507
tp1140
a(S'job'
p1141
S'NN'
p1142
F0.9592
tp1143
a(S'Apple'
p1144
S'NNP'
p1145
F0.9
tp1146
ag42
tp1147
a((lp1148
(g270
S'PRP'
p1149
F0.9967
tp1150
a(S'am'
p1151
S'VBP'
p1152
F0.9691
tp1153
a(S'torn'
p1154
S'VBN'
p1155
F0.6313
tp1156
a(S'about'
p1157
S'IN'
p1158
F0.9841
tp1159
a(S'Apple'
p1160
S'NNP'
p1161
F0.9942
tp1162
a(S'Music'
p1163
S'NNP'
p1164
F0.7292
tp1165
a(S'video'
p1166
S'NN'
p1167
F0.9771
tp1168
a(S'data'
p1169
S'NN'
p1170
F0.903
tp1171
a(S'not'
p1172
S'RB'
p1173
F0.9937
tp1174
a(S'being'
p1175
S'VBG'
p1176
F0.9605
tp1177
a(S'included'
p1178
S'VBN'
p1179
F0.841
tp1180
a(S'on'
p1181
S'IN'
p1182
F0.9928
tp1183
a(S'the'
p1184
S'DT'
p1185
F0.9838
tp1186
a(S'Hot'
p1187
S'NNP'
p1188
F0.5224
tp1189
a(S'100'
p1190
S'CD'
p1191
F0.9734
tp1192
a(g23
g23
F0.9896
tp1193
a(S'On'
p1194
S'IN'
p1195
F0.9814
tp1196
a(S'the'
p1197
S'DT'
p1198
F0.9965
tp1199
a(S'one'
p1200
S'CD'
p1201
F0.6009
tp1202
a(S'hand'
p1203
S'NN'
p1204
F0.977
tp1205
a(g349
g349
F0.9902
tp1206
a(S'it'
p1207
S'PRP'
p1208
F0.9973
tp1209
a(S'sucks'
p1210
S'VBZ'
p1211
F0.9894
tp1212
a(S'that'
p1213
S'IN'
p1214
F0.7807
tp1215
a(S'Apple'
p1216
S'NNP'
p1217
F0.9438
tp1218
a(S"isn't"
p1219
S'VBZ'
p1220
F0.3291
tp1221
a(S'reporting'
p1222
S'VBG'
p1223
F0.9671
tp1224
a(S'the'
p1225
S'DT'
p1226
F0.9943
tp1227
a(S'data'
p1228
S'NN'
p1229
F0.9499
tp1230
a(g23
g23
F0.997
tp1231
ag123
tp1232
a((lp1233
(S'Good'
p1234
S'JJ'
p1235
F0.777
tp1236
a(S'job'
p1237
S'NN'
p1238
F0.9364
tp1239
a(S'Apple'
p1240
S'NNP'
p1241
F0.8664
tp1242
a(g135
g23
F0.9851
tp1243
a(S'We'
p1244
S'PRP'
p1245
F0.9922
tp1246
a(S"don't"
p1247
S'VBP'
p1248
F0.9472
tp1249
a(S'want'
p1250
S'VB'
p1251
F0.8711
tp1252
a(S'companies'
p1253
S'NNS'
p1254
F0.9924
tp1255
a(S'stealing'
p1256
S'VBG'
p1257
F0.9842
tp1258
a(S'our'
p1259
S'PRP$'
p1260
F0.9894
tp1261
a(S'information'
p1262
S'NN'
p1263
F0.9498
tp1264
ag42
tp1265
a((lp1266
(g270
S'PRP'
p1267
F0.9984
tp1268
a(S'got'
p1269
S'VBD'
p1270
F0.968
tp1271
a(g96
S'DT'
p1272
F0.9956
tp1273
a(S'new'
p1274
S'JJ'
p1275
F0.9925
tp1276
a(S'work'
p1277
S'NN'
p1278
F0.9931
tp1279
a(S'MBP'
p1280
S'NNP'
p1281
F0.3142
tp1282
a(S'the'
p1283
S'DT'
p1284
F0.9668
tp1285
a(S'last'
p1286
S'JJ'
p1287
F0.9744
tp1288
a(S'week'
p1289
S'NN'
p1290
F0.9964
tp1291
a(S'of'
p1292
S'IN'
p1293
F0.9973
tp1294
a(S'June'
p1295
S'NNP'
p1296
F0.9971
tp1297
a(g23
g23
F0.993
tp1298
a(S'This'
p1299
S'DT'
p1300
F0.9963
tp1301
a(S'afternoon'
p1302
S'NN'
p1303
F0.9955
tp1304
a(S'is'
p1305
S'VBZ'
p1306
F0.9958
tp1307
a(S'the'
p1308
S'DT'
p1309
F0.994
tp1310
a(S'first'
p1311
S'JJ'
p1312
F0.9525
tp1313
a(S'time'
p1314
S'NN'
p1315
F0.9922
tp1316
a(S"I'm"
p1317
S'PRP'
p1318
F0.6001
tp1319
a(S'using'
p1320
S'VBG'
p1321
F0.9933
tp1322
a(S'it'
p1323
S'PRP'
p1324
F0.9943
tp1325
a(S'for'
p1326
S'IN'
p1327
F0.9931
tp1328
a(S'billable'
p1329
S'JJ'
p1330
F0.3637
tp1331
a(S'work'
p1332
S'NN'
p1333
F0.9926
tp1334
a(g23
g23
F0.9956
tp1335
a(S'It'
p1336
S'PRP'
p1337
F0.9948
tp1338
a(S'feels'
p1339
S'VBZ'
p1340
F0.9674
tp1341
a(S'good'
p1342
S'JJ'
p1343
F0.9279
tp1344
a(g23
g23
F0.9893
tp1345
a(S'This'
p1346
S'DT'
p1347
F0.9731
tp1348
a(S'is'
p1349
S'VBZ'
p1350
F0.992
tp1351
a(S'good'
p1352
S'JJ'
p1353
F0.9439
tp1354
a(g23
g23
F0.9925
tp1355
ag42
tp1356
a((lp1357
(S'Even'
p1358
S'RB'
p1359
F0.9805
tp1360
a(S'though'
p1361
S'RB'
p1362
F0.655
tp1363
a(S"I'm"
p1364
S'PRP'
p1365
F0.5605
tp1366
a(g96
S'DT'
p1367
F0.9925
tp1368
a(S'100%'
p1369
S'CD'
p1370
F0.5896
tp1371
a(S'certified'
p1372
S'JJ'
p1373
F0.5576
tp1374
a(S'Apple'
p1375
S'NNP'
p1376
F0.8988
tp1377
a(S'Fanboy/apologist'
p1378
S'NNP'
p1379
F0.6568
tp1380
a(g349
g349
F0.9901
tp1381
a(S'after'
p1382
S'IN'
p1383
F0.9567
tp1384
a(S'3'
p1385
S'CD'
p1386
F0.9888
tp1387
a(S'months'
p1388
S'NNS'
p1389
F0.9756
tp1390
a(S'without'
p1391
S'IN'
p1392
F0.997
tp1393
a(S'Spotify'
p1394
S'NNP'
p1395
F0.9909
tp1396
a(S"I'm"
p1397
S'NNP'
p1398
F0.5962
tp1399
a(S'ready'
p1400
S'JJ'
p1401
F0.5545
tp1402
a(S'to'
p1403
S'TO'
p1404
F0.9936
tp1405
a(S'admit'
p1406
S'VB'
p1407
F0.9547
tp1408
a(S'Apple'
p1409
S'NNP'
p1410
F0.9848
tp1411
a(S'Music'
p1412
S'NNP'
p1413
F0.5648
tp1414
a(S'sucks'
p1415
S'VBZ'
p1416
F0.9209
tp1417
a(S'ass'
p1418
S'NN'
p1419
F0.8122
tp1420
a(g23
g23
F0.9951
tp1421
a(g1080
S'UH'
p1422
F0.4531
tp1423
a(S'Cancel'
p1424
S'VB'
p1425
F0.3941
tp1426
a(g1080
S'UH'
p1427
F0.2534
tp1428
ag123
tp1429
a((lp1430
(S'Apple'
p1431
S'NNP'
p1432
F0.9095
tp1433
a(S'sucks'
p1434
S'VBZ'
p1435
F0.9666
tp1436
a(S'and'
p1437
S'CC'
p1438
F0.9941
tp1439
a(S'my'
p1440
S'PRP$'
p1441
F0.9924
tp1442
a(S'phone'
p1443
S'NN'
p1444
F0.9922
tp1445
a(S"won't"
p1446
S'MD'
p1447
F0.3163
tp1448
a(S'work'
p1449
S'NN'
p1450
F0.7346
tp1451
a(S'at'
p1452
S'IN'
p1453
F0.9936
tp1454
a(S'all'
p1455
S'DT'
p1456
F0.9932
tp1457
ag123
tp1458
a((lp1459
(S'Good'
p1460
S'JJ'
p1461
F0.777
tp1462
a(S'job'
p1463
S'NN'
p1464
F0.9364
tp1465
a(S'Apple'
p1466
S'NNP'
p1467
F0.8873
tp1468
a(S';'
p1469
g20
F0.8989
tp1470
a(S'encryption'
p1471
S'NN'
p1472
F0.5277
tp1473
a(S'will'
p1474
S'MD'
p1475
F0.9949
tp1476
a(S'be'
p1477
S'VB'
p1478
F0.9994
tp1479
a(g96
S'DT'
p1480
F0.9939
tp1481
a(S'key'
p1482
S'NN'
p1483
F0.7287
tp1484
a(S'growth'
p1485
S'NN'
p1486
F0.9604
tp1487
a(S'driver'
p1488
S'NN'
p1489
F0.9855
tp1490
a(S'and'
p1491
S'CC'
p1492
F0.9849
tp1493
a(S'requirement'
p1494
S'NN'
p1495
F0.8046
tp1496
a(S'for'
p1497
S'IN'
p1498
F0.9944
tp1499
a(S'consumer'
p1500
S'NN'
p1501
F0.8181
tp1502
a(S'products'
p1503
S'NNS'
p1504
F0.9279
tp1505
a(S'and'
p1506
S'CC'
p1507
F0.9834
tp1508
a(S'services'
p1509
S'NNS'
p1510
F0.9561
tp1511
a(S'go'
p1512
S'VBP'
p1513
F0.6341
tp1514
a(S'fwd'
p1515
S'VBN'
p1516
F0.359
tp1517
ag42
tp1518
a((lp1519
(S'RT'
p1520
S'RT'
p1521
F0.9693
tp1522
a(S'Constantly'
p1523
S'RB'
p1524
F0.9513
tp1525
a(S'facilitating'
p1526
S'VBG'
p1527
F0.9833
tp1528
a(S'group'
p1529
S'NN'
p1530
F0.9461
tp1531
a(S'FaceTime'
p1532
S'NNP'
p1533
F0.8728
tp1534
a(S'calls'
p1535
S'VBZ'
p1536
F0.8121
tp1537
a(S'via'
p1538
S'IN'
p1539
F0.6681
tp1540
a(S'utilizing'
p1541
S'VBG'
p1542
F0.9865
tp1543
a(S'iPhone'
p1544
S'NNP'
p1545
F0.5806
tp1546
a(g349
g349
F0.9887
tp1547
a(S'iPad'
p1548
S'NNP'
p1549
F0.9678
tp1550
a(S'and'
p1551
S'CC'
p1552
F0.9922
tp1553
a(S'MacBook'
p1554
S'NNP'
p1555
F0.6873
tp1556
a(S'simultaneously'
p1557
S'RB'
p1558
F0.9613
tp1559
a(S'because'
p1560
S'IN'
p1561
F0.9944
tp1562
a(S'Apple'
p1563
S'NNP'
p1564
F0.9869
tp1565
a(S'sucks'
p1566
S'VBZ'
p1567
F0.9609
tp1568
ag123
tp1569
a((lp1570
(S'Good'
p1571
S'JJ'
p1572
F0.777
tp1573
a(S'job'
p1574
S'NN'
p1575
F0.9876
tp1576
a(S'for'
p1577
S'IN'
p1578
F0.999
tp1579
a(S'Apple'
p1580
S'NNP'
p1581
F0.9928
tp1582
a(S'making'
p1583
S'VBG'
p1584
F0.9894
tp1585
a(S'this'
p1586
S'DT'
p1587
F0.9956
tp1588
a(S'emoji'
p1589
S'NN'
p1590
F0.8059
tp1591
a(g232
S"''"
p1592
F0.9848
tp1593
a(S'????????'
p1594
g23
F0.8634
tp1595
a(g232
S"''"
p1596
F0.9778
tp1597
ag42
tp1598
a((lp1599
(S'RT'
p1600
S'RT'
p1601
F0.9539
tp1602
a(S'Apple'
p1603
S'NNP'
p1604
F0.969
tp1605
a(S'music'
p1606
S'NN'
p1607
F0.9733
tp1608
a(S'sucks'
p1609
S'VBZ'
p1610
F0.9667
tp1611
a(S'dude'
p1612
S'NN'
p1613
F0.9012
tp1614
ag123
tp1615
a((lp1616
(S'Life'
p1617
S'NN'
p1618
F0.9593
tp1619
a(S'is'
p1620
S'VBZ'
p1621
F0.9946
tp1622
a(S'complete'
p1623
S'JJ'
p1624
F0.8928
tp1625
a(S'now'
p1626
S'RB'
p1627
F0.9857
tp1628
a(S'that'
p1629
S'DT'
p1630
F0.593
tp1631
a(S'????????'
p1632
g23
F0.9457
tp1633
a(S'and'
p1634
S'CC'
p1635
F0.9932
tp1636
a(S'????????'
p1637
g23
F0.9201
tp1638
a(S'exist'
p1639
S'VB'
p1640
F0.6665
tp1641
a(g23
g23
F0.9928
tp1642
a(S'Good'
p1643
S'JJ'
p1644
F0.8114
tp1645
a(S'job'
p1646
S'NN'
p1647
F0.9534
tp1648
a(S'Apple'
p1649
S'NNP'
p1650
F0.9057
tp1651
a(g349
g349
F0.9897
tp1652
a(S'good'
p1653
S'JJ'
p1654
F0.9438
tp1655
a(S'job'
p1656
S'NN'
p1657
F0.9876
tp1658
a(g23
g23
F0.9969
tp1659
ag42
tp1660
a((lp1661
(g270
S'PRP'
p1662
F0.992
tp1663
a(S'just'
p1664
S'RB'
p1665
F0.9967
tp1666
a(S'typed'
p1667
S'VBD'
p1668
F0.7029
tp1669
a(S'shit'
p1670
S'NN'
p1671
F0.9394
tp1672
a(S'instead'
p1673
S'RB'
p1674
F0.833
tp1675
a(S'of'
p1676
S'IN'
p1677
F0.9762
tp1678
a(S'shirt'
p1679
S'NN'
p1680
F0.9417
tp1681
a(S'and'
p1682
S'CC'
p1683
F0.9948
tp1684
a(S'my'
p1685
S'PRP$'
p1686
F0.9927
tp1687
a(S'phone'
p1688
S'NN'
p1689
F0.9945
tp1690
a(S"didn't"
p1691
S'VBD'
p1692
F0.4138
tp1693
a(S'even'
p1694
S'RB'
p1695
F0.9875
tp1696
a(S'correct'
p1697
S'JJ'
p1698
F0.7011
tp1699
a(S'me'
p1700
S'PRP'
p1701
F0.9849
tp1702
a(g23
g23
F0.9923
tp1703
a(S'Good'
p1704
S'JJ'
p1705
F0.8114
tp1706
a(S'job'
p1707
S'NN'
p1708
F0.956
tp1709
a(S'Apple'
p1710
S'NNP'
p1711
F0.8803
tp1712
a(g23
g23
F0.996
tp1713
ag123
tp1714
a((lp1715
(S'Apple'
p1716
S'NNP'
p1717
F0.8523
tp1718
a(S'did'
p1719
S'VBD'
p1720
F0.9202
tp1721
a(g96
S'DT'
p1722
F0.9971
tp1723
a(S'good'
p1724
S'JJ'
p1725
F0.9855
tp1726
a(S'job'
p1727
S'NN'
p1728
F0.9908
tp1729
a(S'adding'
p1730
S'VBG'
p1731
F0.9871
tp1732
a(S'this'
p1733
S'DT'
p1734
F0.9956
tp1735
a(S'emoji'
p1736
S'NN'
p1737
F0.8251
tp1738
a(S'????????????????????????????????????????'
p1739
g23
F0.3071
tp1740
ag42
tp1741
a((lp1742
(S"I've"
p1743
S'PRP'
p1744
F0.936
tp1745
a(S'never'
p1746
S'RB'
p1747
F0.9871
tp1748
a(S'seen'
p1749
S'VBN'
p1750
F0.9266
tp1751
a(S'this'
p1752
S'DT'
p1753
F0.9864
tp1754
a(S'happen'
p1755
S'NN'
p1756
F0.6443
tp1757
a(S'before'
p1758
S'IN'
p1759
F0.6778
tp1760
a(g23
g23
F0.9916
tp1761
a(S'Apple'
p1762
S'NNP'
p1763
F0.8417
tp1764
a(S'products'
p1765
S'NNS'
p1766
F0.9149
tp1767
a(S'are'
p1768
S'VBP'
p1769
F0.9695
tp1770
a(S'getting'
p1771
S'VBG'
p1772
F0.9975
tp1773
a(S'worse'
p1774
S'JJ'
p1775
F0.547
tp1776
a(S'and'
p1777
S'CC'
p1778
F0.9877
tp1779
a(S'worse'
p1780
S'JJ'
p1781
F0.5717
tp1782
a(S'smh'
p1783
S'UH'
p1784
F0.841
tp1785
ag123
tp1786
a((lp1787
(S'Watching'
p1788
S'VBG'
p1789
F0.9827
tp1790
a(S'the'
p1791
S'DT'
p1792
F0.9971
tp1793
a(S'Bills'
p1794
S'NNP'
p1795
F0.8709
tp1796
a(S'game'
p1797
S'NN'
p1798
F0.7161
tp1799
a(S'on'
p1800
S'IN'
p1801
F0.9946
tp1802
a(S'my'
p1803
S'PRP$'
p1804
F0.9966
tp1805
a(S'Game'
p1806
S'NN'
p1807
F0.8009
tp1808
a(S'Pass'
p1809
S'NN'
p1810
F0.4546
tp1811
a(S'on'
p1812
S'IN'
p1813
F0.9963
tp1814
a(S'Apple'
p1815
S'NNP'
p1816
F0.9954
tp1817
a(S'TV'
p1818
S'NNP'
p1819
F0.4957
tp1820
a(S'and'
p1821
S'CC'
p1822
F0.9949
tp1823
a(S'the'
p1824
S'DT'
p1825
F0.9798
tp1826
a(S'streaming'
p1827
S'NN'
p1828
F0.933
tp1829
a(S'sucks'
p1830
S'VBZ'
p1831
F0.8029
tp1832
a(g23
g23
F0.9942
tp1833
a(g270
S'PRP'
p1834
F0.9951
tp1835
a(S'blame'
p1836
S'VBP'
p1837
F0.9153
tp1838
a(S'Yahoo'
p1839
S'NNP'
p1840
F0.9069
tp1841
a(g23
g23
F0.9937
tp1842
a(S"It's"
p1843
S'PRP'
p1844
F0.8515
tp1845
a(S'never'
p1846
S'RB'
p1847
F0.9895
tp1848
a(S'this'
p1849
S'DT'
p1850
F0.9913
tp1851
a(S'bad'
p1852
S'JJ'
p1853
F0.9814
tp1854
a(g23
g23
F0.9912
tp1855
a(S'Just'
p1856
S'RB'
p1857
F0.9986
tp1858
a(S'put'
p1859
S'VB'
p1860
F0.5789
tp1861
a(S'the'
p1862
S'DT'
p1863
F0.9894
tp1864
a(S'game'
p1865
S'NN'
p1866
F0.9866
tp1867
a(S'on'
p1868
S'IN'
p1869
F0.9962
tp1870
a(S'TV'
p1871
S'NN'
p1872
F0.4998
tp1873
a(g23
g23
F0.9979
tp1874
ag123
tp1875
a((lp1876
(S'APPLE'
p1877
S'NNP'
p1878
F0.9493
tp1879
a(S'WATCH'
p1880
S'VBP'
p1881
F0.3126
tp1882
a(S'SUCKS'
p1883
S'VBZ'
p1884
F0.7773
tp1885
a(S'via'
p1886
S'IN'
p1887
F0.6053
tp1888
ag123
tp1889
a((lp1890
(S'Good'
p1891
S'JJ'
p1892
F0.777
tp1893
a(S'job'
p1894
S'NN'
p1895
F0.902
tp1896
a(S'Apple'
p1897
S'NNP'
p1898
F0.8786
tp1899
a(S'????'
p1900
g23
F0.9742
tp1901
ag42
tp1902
a((lp1903
(S'The'
p1904
S'DT'
p1905
F0.9381
tp1906
a(S'new'
p1907
S'JJ'
p1908
F0.9628
tp1909
a(S'MacBook'
p1910
S'NN'
p1911
F0.8174
tp1912
a(S'has'
p1913
S'VBZ'
p1914
F0.9763
tp1915
a(g96
S'DT'
p1916
F0.9937
tp1917
a(S'loud'
p1918
S'JJ'
p1919
F0.922
tp1920
a(S'siren'
p1921
S'NN'
p1922
F0.9899
tp1923
a(S'that'
p1924
S'IN'
p1925
F0.4152
tp1926
a(S'alerts'
p1927
S'VBZ'
p1928
F0.8227
tp1929
a(S'the'
p1930
S'DT'
p1931
F0.9928
tp1932
a(S'other'
p1933
S'JJ'
p1934
F0.9038
tp1935
a(S'people'
p1936
S'NNS'
p1937
F0.9576
tp1938
a(S'at'
p1939
S'IN'
p1940
F0.9964
tp1941
a(S'Starbucks'
p1942
S'NNP'
p1943
F0.989
tp1944
a(S'that'
p1945
S'IN'
p1946
F0.7519
tp1947
a(S'you'
p1948
S'PRP'
p1949
F0.9978
tp1950
a(S'are'
p1951
S'VBP'
p1952
F0.9945
tp1953
a(S'writing'
p1954
S'VBG'
p1955
F0.9843
tp1956
a(S'an'
p1957
S'DT'
p1958
F0.9548
tp1959
a(S'important'
p1960
S'JJ'
p1961
F0.9193
tp1962
a(S'screenplay'
p1963
S'NN'
p1964
F0.9933
tp1965
a(g23
g23
F0.996
tp1966
ag123
tp1967
a((lp1968
(S'????'
p1969
g23
F0.8946
tp1970
a(S'Apple'
p1971
S'NNP'
p1972
F0.9613
tp1973
a(S'approved'
p1974
S'VBD'
p1975
F0.6486
tp1976
a(S'my'
p1977
S'PRP$'
p1978
F0.9934
tp1979
a(S'tvOS/iOS'
p1980
S'NNP'
p1981
F0.7164
tp1982
a(S'game'
p1983
S'NN'
p1984
F0.9451
tp1985
a(g23
g23
F0.9941
tp1986
a(S'One'
p1987
S'CD'
p1988
F0.9397
tp1989
a(S'code'
p1990
S'NN'
p1991
F0.9878
tp1992
a(S'base'
p1993
S'NN'
p1994
F0.9365
tp1995
a(S'and'
p1996
S'CC'
p1997
F0.9895
tp1998
a(S'one'
p1999
S'CD'
p2000
F0.9728
tp2001
a(S'purchase'
p2002
S'NN'
p2003
F0.8628
tp2004
a(S'runs'
p2005
S'VBZ'
p2006
F0.8287
tp2007
a(S'on'
p2008
S'IN'
p2009
F0.9658
tp2010
a(S'all'
p2011
S'DT'
p2012
F0.9954
tp2013
a(S'devices'
p2014
S'NNS'
p2015
F0.9385
tp2016
a(S'\xc3\xa2\xe2\x82\xac'
p2017
S'IN'
p2018
F0.1851
tp2019
a(S'\xe2\x80\x9c'
p2020
S"''"
p2021
F0.4048
tp2022
a(S'good'
p2023
S'JJ'
p2024
F0.9552
tp2025
a(S'job'
p2026
S'NN'
p2027
F0.9888
tp2028
a(g349
g349
F0.9871
tp2029
a(S'Apple'
p2030
S'NNP'
p2031
F0.9809
tp2032
a(g135
g23
F0.9872
tp2033
a(S'Any'
p2034
S'DT'
p2035
F0.8889
tp2036
a(S'journalists'
p2037
S'NNS'
p2038
F0.9857
tp2039
a(S'want'
p2040
S'VBP'
p2041
F0.9215
tp2042
a(g96
S'DT'
p2043
F0.9942
tp2044
a(S'promo'
p2045
S'NN'
p2046
F0.9432
tp2047
a(S'code'
p2048
S'NN'
p2049
F0.9967
tp2050
a(g452
g23
F0.9962
tp2051
ag42
tp2052
a((lp2053
(S'hey'
p2054
S'UH'
p2055
F0.9518
tp2056
a(S'can'
p2057
S'MD'
p2058
F0.9223
tp2059
a(S'you'
p2060
S'PRP'
p2061
F0.9947
tp2062
a(S'tell'
p2063
S'VBP'
p2064
F0.8185
tp2065
a(S'emoji'
p2066
S'NN'
p2067
F0.2482
tp2068
a(S'Apple'
p2069
S'NNP'
p2070
F0.8629
tp2071
a(S'good'
p2072
S'JJ'
p2073
F0.919
tp2074
a(S'job'
p2075
S'NN'
p2076
F0.9854
tp2077
a(S'?????????'
p2078
g23
F0.9823
tp2079
ag42
tp2080
a((lp2081
(S'Also'
p2082
S'RB'
p2083
F0.9805
tp2084
a(g349
g349
F0.989
tp2085
a(S'Apple'
p2086
S'NNP'
p2087
F0.9937
tp2088
a(g349
g349
F0.9858
tp2089
a(S'please'
p2090
S'UH'
p2091
F0.8919
tp2092
a(S'stop'
p2093
S'VB'
p2094
F0.8874
tp2095
a(S'changing'
p2096
S'VBG'
p2097
F0.9915
tp2098
a(S"'"
p2099
S"''"
p2100
F0.9493
tp2101
a(S'fucking'
p2102
S'VBG'
p2103
F0.4638
tp2104
a(g2099
S"''"
p2105
F0.9416
tp2106
a(S'to'
p2107
S'TO'
p2108
F0.9937
tp2109
a(g2099
S"''"
p2110
F0.8834
tp2111
a(S'ducking'
p2112
S'VBG'
p2113
F0.9272
tp2114
a(g2099
S"''"
p2115
F0.9414
tp2116
a(g349
g349
F0.9897
tp2117
a(S"you're"
p2118
S'PRP'
p2119
F0.4638
tp2120
a(S'worse'
p2121
S'JJ'
p2122
F0.4999
tp2123
a(S'than'
p2124
S'IN'
p2125
F0.9933
tp2126
a(S'my'
p2127
S'PRP$'
p2128
F0.9946
tp2129
a(S'mum'
p2130
S'NN'
p2131
F0.9354
tp2132
a(g23
g23
F0.9941
tp2133
a(S"I'm"
p2134
S'PRP'
p2135
F0.4489
tp2136
a(S'31'
p2137
S'CD'
p2138
F0.9687
tp2139
a(g349
g349
F0.9902
tp2140
a(g270
S'PRP'
p2141
F0.983
tp2142
a(S'can'
p2143
S'MD'
p2144
F0.9935
tp2145
a(S'make'
p2146
S'VB'
p2147
F0.9982
tp2148
a(S'my'
p2149
S'PRP$'
p2150
F0.995
tp2151
a(S'own'
p2152
S'JJ'
p2153
F0.9687
tp2154
a(S'decisions'
p2155
S'NNS'
p2156
F0.9939
tp2157
a(g23
g23
F0.9939
tp2158
a(S'Thanks'
p2159
S'UH'
p2160
F0.7609
tp2161
a(S'X'
p2162
S'UH'
p2163
F0.9934
tp2164
ag123
tp2165
a((lp2166
(S'Bro'
p2167
S'UH'
p2168
F0.6964
tp2169
a(S'the'
p2170
S'DT'
p2171
F0.9901
tp2172
a(S'6s'
p2173
S'NNS'
p2174
F0.8749
tp2175
a(S'and'
p2176
S'CC'
p2177
F0.9876
tp2178
a(S'6s'
p2179
S'CD'
p2180
F0.6505
tp2181
a(S'plus'
p2182
S'IN'
p2183
F0.2685
tp2184
a(S'are'
p2185
S'VBP'
p2186
F0.959
tp2187
a(S'practically'
p2188
S'RB'
p2189
F0.979
tp2190
a(S'waterproof'
p2191
S'NN'
p2192
F0.5335
tp2193
a(S'and'
p2194
S'CC'
p2195
F0.9918
tp2196
a(S'drop'
p2197
S'VB'
p2198
F0.8186
tp2199
a(S'proof'
p2200
S'NN'
p2201
F0.9163
tp2202
a(g135
g23
F0.9923
tp2203
a(S'Good'
p2204
S'JJ'
p2205
F0.8509
tp2206
a(S'job'
p2207
S'NN'
p2208
F0.9499
tp2209
a(S'Apple'
p2210
S'NNP'
p2211
F0.831
tp2212
a(g135
g23
F0.9949
tp2213
ag42
tp2214
a((lp2215
(S'#box'
p2216
S'HT'
p2217
F0.9846
tp2218
a(S'#spooky'
p2219
S'HT'
p2220
F0.9521
tp2221
a(S'_MrNiceGuy_'
p2222
S'NNP'
p2223
F0.4064
tp2224
a(g20
g20
F0.9568
tp2225
a(S'????????????????????????????????????????????'
p2226
S'UH'
p2227
F0.3203
tp2228
a(S'<-----'
p2229
S'UH'
p2230
F0.4063
tp2231
a(S'good'
p2232
S'JJ'
p2233
F0.8167
tp2234
a(S'job'
p2235
S'NN'
p2236
F0.9622
tp2237
a(S'apple'
p2238
S'NN'
p2239
F0.794
tp2240
a(g349
g349
F0.9914
tp2241
a(S'new'
p2242
S'JJ'
p2243
F0.9681
tp2244
a(S'emoji'
p2245
S'NN'
p2246
F0.7783
tp2247
a(S'lol'
p2248
S'UH'
p2249
F0.9271
tp2250
a(S'????????????'
p2251
g23
F0.9222
tp2252
ag42
tp2253
a((lp2254
(S'Not'
p2255
S'RB'
p2256
F0.9614
tp2257
a(S'gonna'
p2258
S'VBG'
p2259
F0.9692
tp2260
a(S'lie'
p2261
S'VB'
p2262
F0.9719
tp2263
a(g349
g349
F0.9868
tp2264
a(S'the'
p2265
S'DT'
p2266
F0.9891
tp2267
a(S'news'
p2268
S'NN'
p2269
F0.9584
tp2270
a(S'app'
p2271
S'NN'
p2272
F0.9688
tp2273
a(S'is'
p2274
S'VBZ'
p2275
F0.991
tp2276
a(S'actually'
p2277
S'RB'
p2278
F0.9982
tp2279
a(S'badass'
p2280
S'JJ'
p2281
F0.5979
tp2282
a(g23
g23
F0.9909
tp2283
a(S'This'
p2284
S'DT'
p2285
F0.9731
tp2286
a(S'is'
p2287
S'VBZ'
p2288
F0.9901
tp2289
a(S'exactly'
p2290
S'RB'
p2291
F0.9305
tp2292
a(S'what'
p2293
S'WP'
p2294
F0.9745
tp2295
a(S"I've"
p2296
S'PRP'
p2297
F0.9461
tp2298
a(S'been'
p2299
S'VBN'
p2300
F0.8297
tp2301
a(S'needing'
p2302
S'VBG'
p2303
F0.9855
tp2304
a(g349
g349
F0.9898
tp2305
a(S'all'
p2306
S'DT'
p2307
F0.9715
tp2308
a(S'in'
p2309
S'IN'
p2310
F0.9241
tp2311
a(S'all'
p2312
S'DT'
p2313
F0.9953
tp2314
a(S'good'
p2315
S'JJ'
p2316
F0.9428
tp2317
a(S'job'
p2318
S'NN'
p2319
F0.99
tp2320
a(S'so'
p2321
S'RB'
p2322
F0.9307
tp2323
a(S'far'
p2324
S'RB'
p2325
F0.8106
tp2326
a(S'Apple'
p2327
S'NNP'
p2328
F0.9594
tp2329
ag42
tp2330
a((lp2331
(S'The'
p2332
S'DT'
p2333
F0.9281
tp2334
a(S'good'
p2335
S'JJ'
p2336
F0.9462
tp2337
a(S'news'
p2338
S'NN'
p2339
F0.9515
tp2340
a(S'is'
p2341
S'VBZ'
p2342
F0.9914
tp2343
a(g349
g349
F0.9889
tp2344
a(S'aside'
p2345
S'RB'
p2346
F0.3986
tp2347
a(S'from'
p2348
S'IN'
p2349
F0.9986
tp2350
a(S'the'
p2351
S'DT'
p2352
F0.9954
tp2353
a(S'outrageous'
p2354
S'JJ'
p2355
F0.9706
tp2356
a(S'cost'
p2357
S'NN'
p2358
F0.9836
tp2359
a(g349
g349
F0.9897
tp2360
a(S'the'
p2361
S'DT'
p2362
F0.99
tp2363
a(S'new'
p2364
S'JJ'
p2365
F0.9871
tp2366
a(S'laptops'
p2367
S'NNS'
p2368
F0.9803
tp2369
a(S'are'
p2370
S'VBP'
p2371
F0.9724
tp2372
a(S'AMAZING'
p2373
S'JJ'
p2374
F0.9601
tp2375
a(g23
g23
F0.9914
tp2376
a(g270
S'PRP'
p2377
F0.9976
tp2378
a(S'got'
p2379
S'VBD'
p2380
F0.9688
tp2381
a(g96
S'DT'
p2382
F0.9947
tp2383
a(S'new'
p2384
S'JJ'
p2385
F0.9917
tp2386
a(S'MBP'
p2387
S'NN'
p2388
F0.767
tp2389
a(S'in'
p2390
S'IN'
p2391
F0.9966
tp2392
a(S'June'
p2393
S'NNP'
p2394
F0.9973
tp2395
a(S'and'
p2396
S'CC'
p2397
F0.9953
tp2398
a(S"it's"
p2399
S'PRP'
p2400
F0.8157
tp2401
a(S'the'
p2402
S'DT'
p2403
F0.9927
tp2404
a(S'best'
p2405
S'JJS'
p2406
F0.944
tp2407
a(g23
g23
F0.9949
tp2408
ag42
tp2409
a((lp2410
(S'Apple'
p2411
S'NNP'
p2412
F0.9095
tp2413
a(S'iCloud'
p2414
S'NNP'
p2415
F0.9725
tp2416
a(S'sucks'
p2417
S'VBZ'
p2418
F0.965
tp2419
a(g96
S'DT'
p2420
F0.9925
tp2421
a(S'huge'
p2422
S'JJ'
p2423
F0.988
tp2424
a(S'dick'
p2425
S'NN'
p2426
F0.8841
tp2427
a(S'????????????'
p2428
g23
F0.9733
tp2429
ag123
tp2430
a((lp2431
(S'Good'
p2432
S'JJ'
p2433
F0.777
tp2434
a(S'job'
p2435
S'NN'
p2436
F0.9364
tp2437
a(S'Apple'
p2438
S'NNP'
p2439
F0.8231
tp2440
a(S'you'
p2441
S'PRP'
p2442
F0.9972
tp2443
a(S'finally'
p2444
S'RB'
p2445
F0.9948
tp2446
a(S'gave'
p2447
S'VBD'
p2448
F0.6802
tp2449
a(S'me'
p2450
S'PRP'
p2451
F0.997
tp2452
a(g96
S'DT'
p2453
F0.9878
tp2454
a(S'middle'
p2455
S'NN'
p2456
F0.9597
tp2457
a(S'finger'
p2458
S'NN'
p2459
F0.9885
tp2460
a(S'emoji'
p2461
S'NN'
p2462
F0.6629
tp2463
ag42
tp2464
a((lp2465
(S'Good'
p2466
S'JJ'
p2467
F0.777
tp2468
a(S'job'
p2469
S'NN'
p2470
F0.9905
tp2471
a(g349
g349
F0.9866
tp2472
a(S'Apple'
p2473
S'NNP'
p2474
F0.9887
tp2475
a(g23
g23
F0.9926
tp2476
a(S'IOS'
p2477
S'NNP'
p2478
F0.7442
tp2479
a(S'9.1'
p2480
S'CD'
p2481
F0.8277
tp2482
a(g135
g23
F0.9925
tp2483
ag42
tp2484
a((lp2485
(S'apple'
p2486
S'NNP'
p2487
F0.8195
tp2488
a(S'music'
p2489
S'NN'
p2490
F0.9391
tp2491
a(S'sucks'
p2492
S'VBZ'
p2493
F0.9708
tp2494
a(S'donkey'
p2495
S'NN'
p2496
F0.9713
tp2497
a(S'dick'
p2498
S'NN'
p2499
F0.9205
tp2500
a(g23
g23
F0.9922
tp2501
a(S'????????'
p2502
g23
F0.9337
tp2503
a(S'why'
p2504
S'WRB'
p2505
F0.9428
tp2506
a(S"can't"
p2507
S'MD'
p2508
F0.7979
tp2509
a(g270
S'PRP'
p2510
F0.9682
tp2511
a(S'access'
p2512
S'VBP'
p2513
F0.892
tp2514
a(S'my'
p2515
S'PRP$'
p2516
F0.9939
tp2517
a(S'music'
p2518
S'NN'
p2519
F0.992
tp2520
a(g452
g23
F0.9962
tp2521
ag123
tp2522
a((lp2523
(S'These'
p2524
S'DT'
p2525
F0.9726
tp2526
a(S'new'
p2527
S'JJ'
p2528
F0.9899
tp2529
a(S'emojis'
p2530
S'NNS'
p2531
F0.9844
tp2532
a(S'are'
p2533
S'VBP'
p2534
F0.9761
tp2535
a(S'cute'
p2536
S'JJ'
p2537
F0.9876
tp2538
a(S'..'
p2539
g20
F0.9552
tp2540
a(S'Good'
p2541
S'JJ'
p2542
F0.7579
tp2543
a(S'job'
p2544
S'NN'
p2545
F0.957
tp2546
a(S'Apple'
p2547
S'NNP'
p2548
F0.835
tp2549
a(S'????'
p2550
g23
F0.9735
tp2551
ag42
tp2552
a((lp2553
(S'My'
p2554
S'PRP$'
p2555
F0.8295
tp2556
a(S'Apple'
p2557
S'NNP'
p2558
F0.9842
tp2559
a(S'Pay'
p2560
S'NNP'
p2561
F0.4395
tp2562
a(S'sucks'
p2563
S'VBZ'
p2564
F0.9256
tp2565
a(S'too'
p2566
S'RB'
p2567
F0.9308
tp2568
a(S'in'
p2569
S'IN'
p2570
F0.9697
tp2571
a(S'uk'
p2572
S'NN'
p2573
F0.6592
tp2574
a(S'for'
p2575
S'IN'
p2576
F0.9981
tp2577
a(S'Barclays'
p2578
S'NNP'
p2579
F0.9968
tp2580
ag123
tp2581
a((lp2582
(S'Apple'
p2583
S'NNP'
p2584
F0.8557
tp2585
a(S'being'
p2586
S'VBG'
p2587
F0.9695
tp2588
a(S'sued'
p2589
S'VBN'
p2590
F0.8088
tp2591
a(S'because'
p2592
S'IN'
p2593
F0.9817
tp2594
a(S'of'
p2595
S'IN'
p2596
F0.9696
tp2597
a(S'Wi-Fi'
p2598
S'NNP'
p2599
F0.96
tp2600
a(S'Assist'
p2601
S'NNP'
p2602
F0.9148
tp2603
a(g23
g23
F0.9921
tp2604
a(S'Did'
p2605
S'VBD'
p2606
F0.6305
tp2607
a(S'they'
p2608
S'PRP'
p2609
F0.967
tp2610
a(S'ever'
p2611
S'RB'
p2612
F0.9521
tp2613
a(S'get'
p2614
S'VBP'
p2615
F0.4987
tp2616
a(S'sued'
p2617
S'VBN'
p2618
F0.9003
tp2619
a(S'for'
p2620
S'IN'
p2621
F0.9958
tp2622
a(S'iOS'
p2623
S'NNP'
p2624
F0.9774
tp2625
a(S'8.0.1'
p2626
S'CD'
p2627
F0.4906
tp2628
a(S'which'
p2629
S'WDT'
p2630
F0.8586
tp2631
a(S'killed'
p2632
S'VBD'
p2633
F0.6104
tp2634
a(S'cellular'
p2635
S'JJ'
p2636
F0.9202
tp2637
a(S'services'
p2638
S'NNS'
p2639
F0.9664
tp2640
a(S'for'
p2641
S'IN'
p2642
F0.998
tp2643
a(g96
S'DT'
p2644
F0.9972
tp2645
a(S'day'
p2646
S'NN'
p2647
F0.9986
tp2648
a(g452
g23
F0.9946
tp2649
a(S'Was'
p2650
S'VBD'
p2651
F0.9099
tp2652
a(S'worse'
p2653
S'JJ'
p2654
F0.602
tp2655
a(g23
g23
F0.9947
tp2656
ag123
tp2657
a((lp2658
(S'Dear'
p2659
S'UH'
p2660
F0.7271
tp2661
a(S'Apple'
p2662
S'NNP'
p2663
F0.936
tp2664
a(g349
g349
F0.989
tp2665
a(S'closed'
p2666
S'JJ'
p2667
F0.6384
tp2668
a(S'systems'
p2669
S'NNS'
p2670
F0.9226
tp2671
a(S'are'
p2672
S'VBP'
p2673
F0.959
tp2674
a(S'worse'
p2675
S'JJ'
p2676
F0.6404
tp2677
a(g23
g23
F0.992
tp2678
ag123
tp2679
a((lp2680
(g270
S'PRP'
p2681
F0.9957
tp2682
a(S'changed'
p2683
S'VBD'
p2684
F0.9588
tp2685
a(S'from'
p2686
S'IN'
p2687
F0.9981
tp2688
a(g96
S'DT'
p2689
F0.9941
tp2690
a(S'15.4'
p2691
S'CD'
p2692
F0.9042
tp2693
a(g232
S"''"
p2694
F0.9892
tp2695
a(S'Acer'
p2696
S'NNP'
p2697
F0.9658
tp2698
a(S'to'
p2699
S'TO'
p2700
F0.9939
tp2701
a(S'my'
p2702
S'PRP$'
p2703
F0.9782
tp2704
a(S'13'
p2705
S'CD'
p2706
F0.9144
tp2707
a(g232
S"''"
p2708
F0.9838
tp2709
a(S'MBP'
p2710
S'NNP'
p2711
F0.59
tp2712
a(g349
g349
F0.9885
tp2713
a(g270
S'PRP'
p2714
F0.9908
tp2715
a(S'think'
p2716
S'VBP'
p2717
F0.9915
tp2718
a(S"it's"
p2719
S'PRP'
p2720
F0.9698
tp2721
a(S'just'
p2722
S'RB'
p2723
F0.9996
tp2724
a(S'good'
p2725
S'JJ'
p2726
F0.9778
tp2727
a(S'enough'
p2728
S'RB'
p2729
F0.746
tp2730
a(g23
g23
F0.987
tp2731
a(S"You'll"
p2732
S'PRP'
p2733
F0.8897
tp2734
a(S'enjoy'
p2735
S'VB'
p2736
F0.7813
tp2737
a(S'it'
p2738
S'PRP'
p2739
F0.9973
tp2740
a(S'once'
p2741
S'RB'
p2742
F0.786
tp2743
a(S'you'
p2744
S'PRP'
p2745
F0.9975
tp2746
a(S'get'
p2747
S'VBP'
p2748
F0.9593
tp2749
a(S'used'
p2750
S'VBN'
p2751
F0.7068
tp2752
a(S'to'
p2753
S'TO'
p2754
F0.9897
tp2755
a(S'it'
p2756
S'PRP'
p2757
F0.9937
tp2758
a(g23
g23
F0.9952
tp2759
ag42
tp2760
a((lp2761
(S'Looks'
p2762
S'VBZ'
p2763
F0.6173
tp2764
a(S'like'
p2765
S'IN'
p2766
F0.7532
tp2767
a(S'no'
p2768
S'DT'
p2769
F0.9353
tp2770
a(S'Apple'
p2771
S'NNP'
p2772
F0.9417
tp2773
a(S'Tv'
p2774
S'NNP'
p2775
F0.7724
tp2776
a(S'till'
p2777
S'IN'
p2778
F0.9661
tp2779
a(S'later'
p2780
S'RB'
p2781
F0.8528
tp2782
a(S'today'
p2783
S'NN'
p2784
F0.9907
tp2785
a(g23
g23
F0.996
tp2786
a(S'Thats'
p2787
S'WDT'
p2788
F0.2336
tp2789
a(S'sucks'
p2790
S'VBZ'
p2791
F0.8884
tp2792
a(S'butt'
p2793
S'NN'
p2794
F0.9579
tp2795
ag123
tp2796
a((lp2797
(S'Apple'
p2798
S'NNP'
p2799
F0.9036
tp2800
a(S'TV'
p2801
S'NNP'
p2802
F0.8267
tp2803
a(S'2015'
p2804
S'CD'
p2805
F0.6965
tp2806
a(S'review'
p2807
S'NN'
p2808
F0.9791
tp2809
a(g20
g20
F0.9695
tp2810
a(S'Fast'
p2811
S'RB'
p2812
F0.5114
tp2813
a(S'and'
p2814
S'CC'
p2815
F0.9893
tp2816
a(S'easy'
p2817
S'JJ'
p2818
F0.9097
tp2819
a(S'to'
p2820
S'TO'
p2821
F0.9954
tp2822
a(S'navigate'
p2823
S'VB'
p2824
F0.9865
tp2825
a(g349
g349
F0.9868
tp2826
a(S'but'
p2827
S'CC'
p2828
F0.9939
tp2829
a(S'keyboard'
p2830
S'NN'
p2831
F0.8972
tp2832
a(S'worse'
p2833
S'JJ'
p2834
F0.3493
tp2835
a(g349
g349
F0.9893
tp2836
a(S'Siri'
p2837
S'NNP'
p2838
F0.9995
tp2839
a(S'limited'
p2840
S'JJ'
p2841
F0.3843
tp2842
a(g349
g349
F0.9885
tp2843
a(S'feels'
p2844
S'VBZ'
p2845
F0.8515
tp2846
a(S'like'
p2847
S'IN'
p2848
F0.7121
tp2849
a(S'first'
p2850
S'JJ'
p2851
F0.9491
tp2852
a(S'effort'
p2853
S'NN'
p2854
F0.9867
tp2855
a(S'in'
p2856
S'IN'
p2857
F0.9857
tp2858
a(S'new\xc3\xa2\xe2\x82\xac\xc2\xa6'
p2859
S'NN'
p2860
F0.2651
tp2861
ag123
tp2862
a((lp2863
(S'Apple'
p2864
S'NNP'
p2865
F0.9625
tp2866
a(S'Music'
p2867
S'NNP'
p2868
F0.6717
tp2869
a(S'sucks'
p2870
S'VBZ'
p2871
F0.9659
tp2872
a(S'u'
p2873
S'PRP'
p2874
F0.9922
tp2875
a(S'need'
p2876
S'VBP'
p2877
F0.9772
tp2878
a(S'Spotify'
p2879
S'NNP'
p2880
F0.9755
tp2881
a(S'premium'
p2882
S'NN'
p2883
F0.7482
tp2884
ag123
tp2885
a((lp2886
(S'android'
p2887
S'NNP'
p2888
F0.9186
tp2889
a(S'master'
p2890
S'NN'
p2891
F0.5372
tp2892
a(S'race'
p2893
S'NN'
p2894
F0.8018
tp2895
a(S'apple'
p2896
S'NN'
p2897
F0.7886
tp2898
a(S'sucks'
p2899
S'VBZ'
p2900
F0.9805
tp2901
ag123
tp2902
a((lp2903
(S'Placing'
p2904
S'VBG'
p2905
F0.9925
tp2906
a(g96
S'DT'
p2907
F0.9959
tp2908
a(S'geometry'
p2909
S'NN'
p2910
F0.9799
tp2911
a(S'node'
p2912
S'NN'
p2913
F0.8688
tp2914
a(S'in'
p2915
S'IN'
p2916
F0.9941
tp2917
a(S'Houdini'
p2918
S'NNP'
p2919
F0.9953
tp2920
a(S'15'
p2921
S'CD'
p2922
F0.9702
tp2923
a(S'on'
p2924
S'IN'
p2925
F0.9919
tp2926
a(S'my'
p2927
S'PRP$'
p2928
F0.9966
tp2929
a(S'MBP'
p2930
S'NN'
p2931
F0.6426
tp2932
a(S'makes'
p2933
S'VBZ'
p2934
F0.9632
tp2935
a(S'it'
p2936
S'PRP'
p2937
F0.9943
tp2938
a(S'crash'
p2939
S'NN'
p2940
F0.668
tp2941
a(g23
g23
F0.9915
tp2942
a(S'Off'
p2943
S'RP'
p2944
F0.5035
tp2945
a(S'to'
p2946
S'TO'
p2947
F0.9958
tp2948
a(g96
S'DT'
p2949
F0.993
tp2950
a(S'good'
p2951
S'JJ'
p2952
F0.973
tp2953
a(S'start'
p2954
S'NN'
p2955
F0.926
tp2956
a(g23
g23
F0.9936
tp2957
ag123
tp2958
a((lp2959
(S'RT'
p2960
S'RT'
p2961
F0.9539
tp2962
a(S'Apple'
p2963
S'NNP'
p2964
F0.9861
tp2965
a(S'CEO'
p2966
S'NNP'
p2967
F0.8249
tp2968
a(S'Tim'
p2969
S'NNP'
p2970
F0.9998
tp2971
a(S'Cook'
p2972
S'NNP'
p2973
F0.7943
tp2974
a(g20
g20
F0.9655
tp2975
a(S'Apple'
p2976
S'NNP'
p2977
F0.9723
tp2978
a(S'Music'
p2979
S'NN'
p2980
F0.521
tp2981
a(S'Has'
p2982
S'VBZ'
p2983
F0.9834
tp2984
a(S'15'
p2985
S'CD'
p2986
F0.9816
tp2987
a(S'Million'
p2988
S'NNP'
p2989
F0.3098
tp2990
a(S'Users'
p2991
S'NNP'
p2992
F0.5031
tp2993
a(S'/'
p2994
g20
F0.2499
tp2995
a(S'#AppleMusic'
p2996
S'HT'
p2997
F0.971
tp2998
a(S'sucks'
p2999
S'VBZ'
p3000
F0.951
tp3001
a(S'yo'
p3002
S'UH'
p3003
F0.4296
tp3004
a(S'????!'
p3005
g23
F0.9541
tp3006
a(S'It'
p3007
S'PRP'
p3008
F0.9964
tp3009
a(S'ruined'
p3010
S'VBD'
p3011
F0.9703
tp3012
a(S'my'
p3013
S'PRP$'
p3014
F0.9962
tp3015
a(S'music'
p3016
S'NN'
p3017
F0.9959
tp3018
a(S'flow'
p3019
S'NN'
p3020
F0.9804
tp3021
a(g135
g23
F0.9945
tp3022
a(S'\xc3\xa2\xe2\x82\xac\xc2\xa6'
p3023
S'UH'
p3024
F0.1892
tp3025
ag123
tp3026
a((lp3027
(g270
S'PRP'
p3028
F0.9945
tp3029
a(S'like'
p3030
S'VBP'
p3031
F0.7259
tp3032
a(S'the'
p3033
S'DT'
p3034
F0.9851
tp3035
a(S'look'
p3036
S'NN'
p3037
F0.807
tp3038
a(S'of'
p3039
S'IN'
p3040
F0.9937
tp3041
a(S'Apple'
p3042
S'NNP'
p3043
F0.9919
tp3044
a(S'watch'
p3045
S'NN'
p3046
F0.4918
tp3047
a(g349
g349
F0.9886
tp3048
a(g270
S'PRP'
p3049
F0.9903
tp3050
a(S'do'
p3051
S'VBP'
p3052
F0.995
tp3053
a(S'not'
p3054
S'RB'
p3055
F0.9972
tp3056
a(S'like'
p3057
S'IN'
p3058
F0.8953
tp3059
a(S'Apple'
p3060
S'NNP'
p3061
F0.988
tp3062
a(S'watch'
p3063
S'VB'
p3064
F0.3261
tp3065
a(S'functionality'
p3066
S'NN'
p3067
F0.4069
tp3068
a(S'sucks'
p3069
S'VBZ'
p3070
F0.9369
tp3071
a(S'..'
p3072
g20
F0.9491
tp3073
a(S'the'
p3074
S'DT'
p3075
F0.9895
tp3076
a(S'only'
p3077
S'JJ'
p3078
F0.839
tp3079
a(S'thing'
p3080
S'NN'
p3081
F0.955
tp3082
a(g270
S'PRP'
p3083
F0.9845
tp3084
a(S'like'
p3085
S'VBP'
p3086
F0.7468
tp3087
a(S'is'
p3088
S'VBZ'
p3089
F0.9855
tp3090
a(S'how'
p3091
S'WRB'
p3092
F0.9324
tp3093
a(S'easy'
p3094
S'JJ'
p3095
F0.9642
tp3096
a(S'it'
p3097
S'PRP'
p3098
F0.9833
tp3099
a(S'is'
p3100
S'VBZ'
p3101
F0.9979
tp3102
a(S'to'
p3103
S'TO'
p3104
F0.9961
tp3105
a(S'crash'
p3106
S'VB'
p3107
F0.9297
tp3108
a(S'remotely'
p3109
S'RB'
p3110
F0.9901
tp3111
ag123
tp3112
a((lp3113
(S'iOS'
p3114
S'NNP'
p3115
F0.8207
tp3116
a(S'9'
p3117
S'CD'
p3118
F0.9191
tp3119
a(S'is'
p3120
S'VBZ'
p3121
F0.9856
tp3122
a(S'already'
p3123
S'RB'
p3124
F0.998
tp3125
a(S'simultaneously'
p3126
S'RB'
p3127
F0.9931
tp3128
a(S'more'
p3129
S'RBR'
p3130
F0.6917
tp3131
a(S'and'
p3132
S'CC'
p3133
F0.9885
tp3134
a(S'less'
p3135
S'JJR'
p3136
F0.5602
tp3137
a(S'buggy'
p3138
S'NN'
p3139
F0.5547
tp3140
a(S'than'
p3141
S'IN'
p3142
F0.9843
tp3143
a(S'iOS'
p3144
S'NNP'
p3145
F0.942
tp3146
a(S'8'
p3147
S'CD'
p3148
F0.9367
tp3149
a(S'by'
p3150
S'IN'
p3151
F0.9864
tp3152
a(S'my'
p3153
S'PRP$'
p3154
F0.9862
tp3155
a(S'count'
p3156
S'NN'
p3157
F0.9659
tp3158
a(g23
g23
F0.9928
tp3159
a(S'Good'
p3160
S'JJ'
p3161
F0.81
tp3162
a(S'job'
p3163
S'NN'
p3164
F0.9744
tp3165
a(S'apple'
p3166
S'NN'
p3167
F0.7441
tp3168
ag42
tp3169
a((lp3170
(S'hate'
p3171
S'VBP'
p3172
F0.9763
tp3173
a(S'to'
p3174
S'TO'
p3175
F0.9979
tp3176
a(S'say'
p3177
S'VB'
p3178
F0.9966
tp3179
a(S'it'
p3180
S'PRP'
p3181
F0.9886
tp3182
a(S'guys'
p3183
S'NNS'
p3184
F0.9824
tp3185
a(g23
g23
F0.9974
tp3186
a(S'What'
p3187
S'WP'
p3188
F0.9567
tp3189
a(S'Mac'
p3190
S'NNP'
p3191
F0.977
tp3192
a(S'do'
p3193
S'VBP'
p3194
F0.9636
tp3195
a(S'you'
p3196
S'PRP'
p3197
F0.9993
tp3198
a(S'have'
p3199
S'VBP'
p3200
F0.97
tp3201
a(g23
g23
F0.9927
tp3202
a(g270
S'PRP'
p3203
F0.9975
tp3204
a(S'had'
p3205
S'VBD'
p3206
F0.9918
tp3207
a(S'this'
p3208
S'DT'
p3209
F0.9965
tp3210
a(S'EXACT'
p3211
S'JJ'
p3212
F0.9654
tp3213
a(S'problem'
p3214
S'NN'
p3215
F0.9842
tp3216
a(S'on'
p3217
S'IN'
p3218
F0.9951
tp3219
a(S'my'
p3220
S'PRP$'
p3221
F0.9966
tp3222
a(S'MBP'
p3223
S'NNP'
p3224
F0.4994
tp3225
a(g863
g20
F0.9838
tp3226
a(S'it'
p3227
S'PRP'
p3228
F0.9964
tp3229
a(S'was'
p3230
S'VBD'
p3231
F0.9812
tp3232
a(S'the'
p3233
S'DT'
p3234
F0.9949
tp3235
a(S'motherboard'
p3236
S'NN'
p3237
F0.9589
tp3238
a(g23
g23
F0.9945
tp3239
a(S'Good'
p3240
S'JJ'
p3241
F0.8572
tp3242
a(S'luck'
p3243
S'NN'
p3244
F0.9535
tp3245
ag123
tp3246
a((lp3247
(g270
S'PRP'
p3248
F0.9968
tp3249
a(S"didn't"
p3250
S'VBD'
p3251
F0.4645
tp3252
a(S'even'
p3253
S'RB'
p3254
F0.9905
tp3255
a(S'know'
p3256
S'VBP'
p3257
F0.5259
tp3258
a(S'there'
p3259
S'EX'
p3260
F0.5143
tp3261
a(S'was'
p3262
S'VBD'
p3263
F0.9794
tp3264
a(S'an'
p3265
S'DT'
p3266
F0.9464
tp3267
a(S'update'
p3268
S'NN'
p3269
F0.9923
tp3270
a(S'wtf'
p3271
S'UH'
p3272
F0.5255
tp3273
a(S'good'
p3274
S'JJ'
p3275
F0.8891
tp3276
a(S'job'
p3277
S'NN'
p3278
F0.9622
tp3279
a(S'apple'
p3280
S'NN'
p3281
F0.6894
tp3282
a(S'way'
p3283
S'NN'
p3284
F0.9406
tp3285
a(S'to'
p3286
S'TO'
p3287
F0.9966
tp3288
a(S'notify'
p3289
S'VB'
p3290
F0.9992
tp3291
a(S'me'
p3292
S'PRP'
p3293
F0.9951
tp3294
ag123
tp3295
a((lp3296
(S'Updated'
p3297
S'VBN'
p3298
F0.4894
tp3299
a(S'to'
p3300
S'TO'
p3301
F0.9935
tp3302
a(S'9.1'
p3303
S'CD'
p3304
F0.6817
tp3305
a(S'on'
p3306
S'IN'
p3307
F0.9872
tp3308
a(S'my'
p3309
S'PRP$'
p3310
F0.9963
tp3311
a(S'iPhone'
p3312
S'NN'
p3313
F0.4918
tp3314
a(g349
g349
F0.9892
tp3315
a(S'El'
p3316
S'NNP'
p3317
F0.99
tp3318
a(S'Capitan'
p3319
S'NNP'
p3320
F0.9991
tp3321
a(S'on'
p3322
S'IN'
p3323
F0.9896
tp3324
a(S'my'
p3325
S'PRP$'
p3326
F0.9966
tp3327
a(S'MBP'
p3328
S'NN'
p3329
F0.5798
tp3330
a(g23
g23
F0.9926
tp3331
a(S'Life'
p3332
S'NN'
p3333
F0.9094
tp3334
a(S'is'
p3335
S'VBZ'
p3336
F0.9936
tp3337
a(S'good'
p3338
S'JJ'
p3339
F0.9179
tp3340
a(g23
g23
F0.9926
tp3341
ag42
tp3342
a((lp3343
(S'Had'
p3344
S'VBD'
p3345
F0.8893
tp3346
a(S'had'
p3347
S'VBD'
p3348
F0.8489
tp3349
a(g96
S'DT'
p3350
F0.9953
tp3351
a(S'bad'
p3352
S'JJ'
p3353
F0.9981
tp3354
a(S'week'
p3355
S'NN'
p3356
F0.9934
tp3357
a(S'with'
p3358
S'IN'
p3359
F0.9985
tp3360
a(S'my'
p3361
S'PRP$'
p3362
F0.9874
tp3363
a(S'iphone'
p3364
S'NN'
p3365
F0.947
tp3366
a(g23
g23
F0.9943
tp3367
a(S'Broke'
p3368
S'VBD'
p3369
F0.4223
tp3370
a(S'on'
p3371
S'IN'
p3372
F0.9931
tp3373
a(S'friday'
p3374
S'NNP'
p3375
F0.9674
tp3376
a(g349
g349
F0.9883
tp3377
a(S'leaving'
p3378
S'VBG'
p3379
F0.9904
tp3380
a(S'me'
p3381
S'PRP'
p3382
F0.9912
tp3383
a(S'without'
p3384
S'IN'
p3385
F0.9901
tp3386
a(g96
S'DT'
p3387
F0.997
tp3388
a(S'phone'
p3389
S'NN'
p3390
F0.9968
tp3391
a(S'for'
p3392
S'IN'
p3393
F0.9965
tp3394
a(S'4'
p3395
S'CD'
p3396
F0.9162
tp3397
a(S'days'
p3398
S'NNS'
p3399
F0.9842
tp3400
a(g23
g23
F0.9946
tp3401
a(S"Apple's"
p3402
S'NNP'
p3403
F0.4647
tp3404
a(S'attempts'
p3405
S'NNS'
p3406
F0.8782
tp3407
a(S'to'
p3408
S'TO'
p3409
F0.9957
tp3410
a(S'fix'
p3411
S'VB'
p3412
F0.9797
tp3413
a(g349
g349
F0.9879
tp3414
a(S'only'
p3415
S'RB'
p3416
F0.8661
tp3417
a(S'made'
p3418
S'VBD'
p3419
F0.6109
tp3420
a(S'things'
p3421
S'NNS'
p3422
F0.9677
tp3423
a(S'worse'
p3424
S'JJ'
p3425
F0.3632
tp3426
a(g135
g23
F0.9955
tp3427
ag123
tp3428
a((lp3429
(S'RT'
p3430
S'RT'
p3431
F0.9539
tp3432
a(S'Apple'
p3433
S'NNP'
p3434
F0.9932
tp3435
a(S'Music'
p3436
S'NNP'
p3437
F0.5925
tp3438
a(S'sucks'
p3439
S'VBZ'
p3440
F0.9268
tp3441
ag123
tp3442
a((lp3443
(S'apple'
p3444
S'NNP'
p3445
F0.7966
tp3446
a(S'sucks'
p3447
S'VBZ'
p3448
F0.9784
tp3449
a(S'im'
p3450
S'PRP'
p3451
F0.9653
tp3452
a(S'so'
p3453
S'RB'
p3454
F0.9466
tp3455
a(S'over'
p3456
S'IN'
p3457
F0.9389
tp3458
a(S'restarting'
p3459
S'VBG'
p3460
F0.9895
tp3461
a(S'my'
p3462
S'PRP$'
p3463
F0.9968
tp3464
a(S'phone'
p3465
S'NN'
p3466
F0.9959
tp3467
a(S'100'
p3468
S'CD'
p3469
F0.9787
tp3470
a(S'times'
p3471
S'NNS'
p3472
F0.9538
tp3473
a(g96
S'DT'
p3474
F0.9928
tp3475
a(S'day'
p3476
S'NN'
p3477
F0.9987
tp3478
ag123
tp3479
a((lp3480
(S'Oh'
p3481
S'UH'
p3482
F0.9914
tp3483
a(g349
g349
F0.9858
tp3484
a(S'cool'
p3485
S'JJ'
p3486
F0.94
tp3487
a(g23
g23
F0.9911
tp3488
a(S'I\xc3\xa2\xe2\x82\xac\xe2\x84\xa2m'
p3489
S'NNP'
p3490
F0.3645
tp3491
a(S'actually'
p3492
S'RB'
p3493
F0.9955
tp3494
a(S'interested'
p3495
S'VBN'
p3496
F0.3526
tp3497
a(S'in'
p3498
S'IN'
p3499
F0.9895
tp3500
a(S'it'
p3501
S'PRP'
p3502
F0.9848
tp3503
a(g349
g349
F0.9887
tp3504
a(S'but'
p3505
S'CC'
p3506
F0.9976
tp3507
a(S'so'
p3508
S'RB'
p3509
F0.9696
tp3510
a(S'far'
p3511
S'RB'
p3512
F0.9204
tp3513
a(S'the'
p3514
S'DT'
p3515
F0.9949
tp3516
a(S'Surface'
p3517
S'NN'
p3518
F0.8508
tp3519
a(g1385
S'CD'
p3520
F0.9147
tp3521
a(S'and'
p3522
S'CC'
p3523
F0.9949
tp3524
a(S'my'
p3525
S'PRP$'
p3526
F0.9892
tp3527
a(S'MBP'
p3528
S'NN'
p3529
F0.5056
tp3530
a(S'seems'
p3531
S'VBZ'
p3532
F0.9068
tp3533
a(S'good'
p3534
S'JJ'
p3535
F0.9592
tp3536
a(S'enough'
p3537
S'RB'
p3538
F0.734
tp3539
a(g23
g23
F0.9934
tp3540
ag42
tp3541
a((lp3542
(S'Good'
p3543
S'JJ'
p3544
F0.777
tp3545
a(S'job'
p3546
S'NN'
p3547
F0.9364
tp3548
a(S'Apple'
p3549
S'NNP'
p3550
F0.8231
tp3551
a(S'you'
p3552
S'PRP'
p3553
F0.9972
tp3554
a(S'finally'
p3555
S'RB'
p3556
F0.9949
tp3557
a(S'added'
p3558
S'VBN'
p3559
F0.4909
tp3560
a(S'the'
p3561
S'DT'
p3562
F0.9927
tp3563
a(S'middle'
p3564
S'NN'
p3565
F0.9732
tp3566
a(S'finger'
p3567
S'NN'
p3568
F0.9897
tp3569
a(g349
g349
F0.9907
tp3570
a(S'unicorns'
p3571
S'NNS'
p3572
F0.4235
tp3573
a(g349
g349
F0.9919
tp3574
a(S'and'
p3575
S'CC'
p3576
F0.997
tp3577
a(S'field'
p3578
S'NN'
p3579
F0.9213
tp3580
a(S'hockey'
p3581
S'NN'
p3582
F0.9906
tp3583
a(S'to'
p3584
S'TO'
p3585
F0.9845
tp3586
a(S'the'
p3587
S'DT'
p3588
F0.9968
tp3589
a(S'emojis'
p3590
S'NNS'
p3591
F0.981
tp3592
a(S'.????????????'
p3593
g23
F0.2148
tp3594
ag42
tp3595
a((lp3596
(S'that'
p3597
S'DT'
p3598
F0.3632
tp3599
a(S'sucks'
p3600
S'VBZ'
p3601
F0.986
tp3602
a(S':('
p3603
S'UH'
p3604
F0.9082
tp3605
a(S"it's"
p3606
S'PRP'
p3607
F0.8195
tp3608
a(S'usually'
p3609
S'RB'
p3610
F0.996
tp3611
a(S'reserved'
p3612
S'VBN'
p3613
F0.7248
tp3614
a(S'for'
p3615
S'IN'
p3616
F0.9941
tp3617
a(S'people'
p3618
S'NNS'
p3619
F0.9672
tp3620
a(S'with'
p3621
S'IN'
p3622
F0.9995
tp3623
a(S'Apple'
p3624
S'NNP'
p3625
F0.9972
tp3626
a(S'Care'
p3627
S'NNP'
p3628
F0.7706
tp3629
a(g349
g349
F0.984
tp3630
a(S'though'
p3631
S'RB'
p3632
F0.6881
tp3633
a(g23
g23
F0.9969
tp3634
ag123
tp3635
a((lp3636
(S'Good'
p3637
S'JJ'
p3638
F0.777
tp3639
a(S'job'
p3640
S'NN'
p3641
F0.902
tp3642
a(S'Apple'
p3643
S'NNP'
p3644
F0.8786
tp3645
a(S'????????'
p3646
g23
F0.9743
tp3647
ag42
tp3648
a((lp3649
(S'RT'
p3650
S'RT'
p3651
F0.9493
tp3652
a(S'Good'
p3653
S'JJ'
p3654
F0.7994
tp3655
a(S'job'
p3656
S'NN'
p3657
F0.9502
tp3658
a(S'Apple'
p3659
S'NNP'
p3660
F0.8952
tp3661
a(g23
g23
F0.9931
tp3662
a(S'These'
p3663
S'DT'
p3664
F0.9764
tp3665
a(S'emojis'
p3666
S'NNS'
p3667
F0.9654
tp3668
a(S'lit'
p3669
S'NN'
p3670
F0.2589
tp3671
a(S'????'
p3672
g23
F0.9798
tp3673
ag42
tp3674
a((lp3675
(S'that'
p3676
S'DT'
p3677
F0.3632
tp3678
a(S'sucks'
p3679
S'VBZ'
p3680
F0.985
tp3681
a(S'man'
p3682
S'NN'
p3683
F0.9021
tp3684
a(S'keep'
p3685
S'VB'
p3686
F0.8386
tp3687
a(S'me'
p3688
S'PRP'
p3689
F0.9971
tp3690
a(S'updated'
p3691
S'VBD'
p3692
F0.6831
tp3693
a(S'on'
p3694
S'IN'
p3695
F0.9815
tp3696
a(S'advancemets'
p3697
S'NNS'
p3698
F0.3667
tp3699
a(S'towards'
p3700
S'IN'
p3701
F0.9758
tp3702
a(S'unlocking'
p3703
S'VBG'
p3704
F0.9871
tp3705
a(S'this'
p3706
S'DT'
p3707
F0.9965
tp3708
a(S'crap'
p3709
S'NN'
p3710
F0.9761
tp3711
a(g135
g23
F0.9932
tp3712
a(S'Apple'
p3713
S'NNP'
p3714
F0.9313
tp3715
a(S'sucks'
p3716
S'VBZ'
p3717
F0.9492
tp3718
a(S'balls'
p3719
S'NNS'
p3720
F0.9766
tp3721
a(S'for'
p3722
S'IN'
p3723
F0.9981
tp3724
a(S'icloud'
p3725
S'NNP'
p3726
F0.4989
tp3727
ag123
tp3728
a((lp3729
(S'There\xc3\xa2\xe2\x82\xac\xe2\x84\xa2s'
p3730
S'NNS'
p3731
F0.2191
tp3732
a(g96
S'DT'
p3733
F0.9957
tp3734
a(S'lot'
p3735
S'NN'
p3736
F0.942
tp3737
a(S'to'
p3738
S'TO'
p3739
F0.9915
tp3740
a(S'love'
p3741
S'VB'
p3742
F0.9349
tp3743
a(S'about'
p3744
S'IN'
p3745
F0.9841
tp3746
a(S'Apple'
p3747
S'NNP'
p3748
F0.9892
tp3749
a(S'Watch'
p3750
S'NNP'
p3751
F0.4335
tp3752
a(g349
g349
F0.9817
tp3753
a(S'but'
p3754
S'CC'
p3755
F0.996
tp3756
a(S'the'
p3757
S'DT'
p3758
F0.9937
tp3759
a(S'truth'
p3760
S'NN'
p3761
F0.9883
tp3762
a(S'is'
p3763
S'VBZ'
p3764
F0.9899
tp3765
a(g349
g349
F0.9891
tp3766
a(S'as'
p3767
S'IN'
p3768
F0.899
tp3769
a(g96
S'DT'
p3770
F0.9779
tp3771
a(S'running'
p3772
S'NN'
p3773
F0.9008
tp3774
a(S'watch'
p3775
S'NN'
p3776
F0.8665
tp3777
a(g349
g349
F0.9894
tp3778
a(S'it'
p3779
S'PRP'
p3780
F0.9973
tp3781
a(S'sucks'
p3782
S'VBZ'
p3783
F0.9908
tp3784
ag123
tp3785
a((lp3786
(S'Lovvvvvve'
p3787
S'VBP'
p3788
F0.7605
tp3789
a(S'the'
p3790
S'DT'
p3791
F0.9859
tp3792
a(S'Taraji'
p3793
S'NNP'
p3794
F0.9975
tp3795
a(S'P'
p3796
S'NNP'
p3797
F0.9823
tp3798
a(S'Henson'
p3799
S'NNP'
p3800
F0.9994
tp3801
a(g349
g349
F0.9835
tp3802
a(S'Kerry'
p3803
S'NNP'
p3804
F0.9998
tp3805
a(S'Washington'
p3806
S'NNP'
p3807
F0.9992
tp3808
a(g349
g349
F0.9903
tp3809
a(g90
S'CC'
p3810
F0.9889
tp3811
a(S'MJB'
p3812
S'NNP'
p3813
F0.3574
tp3814
a(S'commercial'
p3815
S'NN'
p3816
F0.6823
tp3817
a(g1469
g20
F0.8917
tp3818
a(S'good'
p3819
S'JJ'
p3820
F0.9509
tp3821
a(S'job'
p3822
S'NN'
p3823
F0.9311
tp3824
a(S'Apple'
p3825
S'NNP'
p3826
F0.8957
tp3827
ag42
tp3828
a((lp3829
(S'My'
p3830
S'PRP$'
p3831
F0.9448
tp3832
a(S'new'
p3833
S'JJ'
p3834
F0.9586
tp3835
a(S'#Apple'
p3836
S'HT'
p3837
F0.8877
tp3838
a(S'MacBook'
p3839
S'NNP'
p3840
F0.4274
tp3841
a(S'Pro'
p3842
S'NNP'
p3843
F0.9691
tp3844
a(S'is'
p3845
S'VBZ'
p3846
F0.9882
tp3847
a(S'LOUD'
p3848
S'JJ'
p3849
F0.612
tp3850
a(g23
g23
F0.9916
tp3851
a(g270
S'PRP'
p3852
F0.9976
tp3853
a(S'hate'
p3854
S'VBP'
p3855
F0.9987
tp3856
a(S'to'
p3857
S'TO'
p3858
F0.9977
tp3859
a(S'complain'
p3860
S'VB'
p3861
F0.9442
tp3862
a(S'but'
p3863
S'CC'
p3864
F0.9747
tp3865
a(S'it'
p3866
S'PRP'
p3867
F0.9961
tp3868
a(S'is'
p3869
S'VBZ'
p3870
F0.9981
tp3871
a(S'making'
p3872
S'VBG'
p3873
F0.9951
tp3874
a(S'me'
p3875
S'PRP'
p3876
F0.9746
tp3877
a(S'bonkers'
p3878
S'NNS'
p3879
F0.3834
tp3880
a(S'this'
p3881
S'DT'
p3882
F0.9796
tp3883
a(S'AM'
p3884
S'NN'
p3885
F0.7487
tp3886
a(g23
g23
F0.9955
tp3887
ag123
tp3888
a((lp3889
(g270
S'PRP'
p3890
F0.9906
tp3891
a(S'download'
p3892
S'VBP'
p3893
F0.5142
tp3894
a(S'all'
p3895
S'DT'
p3896
F0.959
tp3897
a(S'of'
p3898
S'IN'
p3899
F0.9685
tp3900
a(S'my'
p3901
S'PRP$'
p3902
F0.9767
tp3903
a(S'stuff'
p3904
S'NN'
p3905
F0.978
tp3906
a(S'because'
p3907
S'IN'
p3908
F0.9924
tp3909
a(S'the'
p3910
S'DT'
p3911
F0.991
tp3912
a(S'Cloud'
p3913
S'NNP'
p3914
F0.9293
tp3915
a(S'sucks'
p3916
S'VBZ'
p3917
F0.8752
tp3918
a(g135
g23
F0.9901
tp3919
a(S'Apple'
p3920
S'NNP'
p3921
F0.905
tp3922
a(S'needs'
p3923
S'VBZ'
p3924
F0.9686
tp3925
a(S'to'
p3926
S'TO'
p3927
F0.9984
tp3928
a(S'fix'
p3929
S'VB'
p3930
F0.9964
tp3931
a(S'this'
p3932
S'DT'
p3933
F0.9804
tp3934
a(g23
g23
F0.9935
tp3935
a(S'Purchases'
p3936
S'NNS'
p3937
F0.9855
tp3938
a(S'should'
p3939
S'MD'
p3940
F0.9756
tp3941
a(S'ALWAYS'
p3942
S'RB'
p3943
F0.9827
tp3944
a(S'be'
p3945
S'VB'
p3946
F0.9661
tp3947
a(S'available'
p3948
S'JJ'
p3949
F0.7248
tp3950
a(g23
g23
F0.9961
tp3951
ag123
tp3952
a((lp3953
(S'Good'
p3954
S'JJ'
p3955
F0.777
tp3956
a(S'job'
p3957
S'NN'
p3958
F0.9905
tp3959
a(g349
g349
F0.9866
tp3960
a(S'Apple'
p3961
S'NNP'
p3962
F0.9924
tp3963
a(g349
g349
F0.9903
tp3964
a(S'for'
p3965
S'IN'
p3966
F0.9681
tp3967
a(S'placing'
p3968
S'VBG'
p3969
F0.9956
tp3970
a(S'the'
p3971
S'DT'
p3972
F0.9927
tp3973
a(S'popcorn'
p3974
S'NN'
p3975
F0.7946
tp3976
a(S'emoji'
p3977
S'NN'
p3978
F0.8558
tp3979
a(S'next'
p3980
S'JJ'
p3981
F0.9204
tp3982
a(S'to'
p3983
S'TO'
p3984
F0.9792
tp3985
a(S'the'
p3986
S'DT'
p3987
F0.9968
tp3988
a(S'wine'
p3989
S'NN'
p3990
F0.964
tp3991
a(S'for'
p3992
S'IN'
p3993
F0.9938
tp3994
a(S'#ScandalABC'
p3995
S'HT'
p3996
F0.9438
tp3997
a(S'????????'
p3998
g23
F0.9254
tp3999
a(S'#ScandaI'
p4000
S'HT'
p4001
F0.9878
tp4002
ag42
tp4003
a((lp4004
(S'seriously'
p4005
S'RB'
p4006
F0.6146
tp4007
a(g23
g23
F0.9816
tp4008
a(S'Me'
p4009
S'PRP'
p4010
F0.992
tp4011
a(S'getting'
p4012
S'VBG'
p4013
F0.9894
tp4014
a(S'old'
p4015
S'JJ'
p4016
F0.9216
tp4017
a(S'and'
p4018
S'CC'
p4019
F0.9912
tp4020
a(S'more'
p4021
S'RBR'
p4022
F0.6174
tp4023
a(S'impatient'
p4024
S'JJ'
p4025
F0.8835
tp4026
a(S'and'
p4027
S'CC'
p4028
F0.9886
tp4029
a(S'Apple'
p4030
S'NNP'
p4031
F0.9796
tp4032
a(S'getting'
p4033
S'VBG'
p4034
F0.9957
tp4035
a(S'worse'
p4036
S'JJ'
p4037
F0.4255
tp4038
a(S'at'
p4039
S'IN'
p4040
F0.9933
tp4041
a(S'software'
p4042
S'NN'
p4043
F0.9729
tp4044
a(S'is'
p4045
S'VBZ'
p4046
F0.9962
tp4047
a(S'not'
p4048
S'RB'
p4049
F0.9905
tp4050
a(g96
S'DT'
p4051
F0.9324
tp4052
a(S'winning'
p4053
S'NN'
p4054
F0.6917
tp4055
a(S'combination'
p4056
S'NN'
p4057
F0.998
tp4058
a(g23
g23
F0.9957
tp4059
ag123
tp4060
a((lp4061
(S'Good'
p4062
S'JJ'
p4063
F0.777
tp4064
a(S'job'
p4065
S'NN'
p4066
F0.9647
tp4067
a(S'apple'
p4068
S'NN'
p4069
F0.7843
tp4070
a(S'with'
p4071
S'IN'
p4072
F0.9988
tp4073
a(S'the'
p4074
S'DT'
p4075
F0.9941
tp4076
a(S'new'
p4077
S'JJ'
p4078
F0.9797
tp4079
a(S'emojis'
p4080
S'NNS'
p4081
F0.9647
tp4082
ag42
tp4083
a((lp4084
(S'Good'
p4085
S'JJ'
p4086
F0.777
tp4087
a(S'job'
p4088
S'NN'
p4089
F0.9364
tp4090
a(S'Apple'
p4091
S'NNP'
p4092
F0.901
tp4093
a(g23
g23
F0.9915
tp4094
a(S'Siri'
p4095
S'NNP'
p4096
F0.9845
tp4097
a(S'always'
p4098
S'RB'
p4099
F0.98
tp4100
a(S'understands'
p4101
S'VBZ'
p4102
F0.8826
tp4103
a(S'when'
p4104
S'WRB'
p4105
F0.9923
tp4106
a(g270
S'PRP'
p4107
F0.9987
tp4108
a(S'tell'
p4109
S'VBP'
p4110
F0.923
tp4111
a(S'her'
p4112
S'PRP'
p4113
F0.8909
tp4114
a(S'to'
p4115
S'TO'
p4116
F0.9964
tp4117
a(S'play'
p4118
S'VB'
p4119
F0.9969
tp4120
a(S'without'
p4121
S'IN'
p4122
F0.9951
tp4123
a(S'any'
p4124
S'DT'
p4125
F0.9833
tp4126
a(S'odd'
p4127
S'JJ'
p4128
F0.9847
tp4129
a(S'pronunciation'
p4130
S'NN'
p4131
F0.9811
tp4132
a(g23
g23
F0.997
tp4133
ag42
tp4134
a((lp4135
(g270
S'PRP'
p4136
F0.9967
tp4137
a(S'am'
p4138
S'VBP'
p4139
F0.9692
tp4140
a(S'living'
p4141
S'VBG'
p4142
F0.9412
tp4143
a(S'for'
p4144
S'IN'
p4145
F0.9958
tp4146
a(S'this'
p4147
S'DT'
p4148
F0.9972
tp4149
a(S'aesthetic'
p4150
S'JJ'
p4151
F0.7423
tp4152
a(S'typeface'
p4153
S'NN'
p4154
F0.9414
tp4155
a(S'on'
p4156
S'IN'
p4157
F0.9928
tp4158
a(S'ios'
p4159
S'NNP'
p4160
F0.8251
tp4161
a(g3117
S'CD'
p4162
F0.9631
tp4163
a(S'!!!'
p4164
g23
F0.9849
tp4165
a(S'Good'
p4166
S'JJ'
p4167
F0.8918
tp4168
a(S'job'
p4169
S'NN'
p4170
F0.9716
tp4171
a(S'apple'
p4172
S'NN'
p4173
F0.7578
tp4174
a(g135
g23
F0.9952
tp4175
ag42
tp4176
a((lp4177
(S'13'
p4178
S'CD'
p4179
F0.9173
tp4180
a(g232
S"''"
p4181
F0.9813
tp4182
a(S'mbp'
p4183
S'NN'
p4184
F0.7404
tp4185
a(g23
g23
F0.993
tp4186
a(S'Good'
p4187
S'JJ'
p4188
F0.5251
tp4189
a(S'spec'
p4190
S'NN'
p4191
F0.9368
tp4192
a(g349
g349
F0.992
tp4193
a(S'from'
p4194
S'IN'
p4195
F0.9959
tp4196
a(S'the'
p4197
S'DT'
p4198
F0.9953
tp4199
a(S'refurb'
p4200
S'NN'
p4201
F0.872
tp4202
a(S'store'
p4203
S'NN'
p4204
F0.9844
tp4205
a(g23
g23
F0.9969
tp4206
ag42
tp4207
a((lp4208
(S'and'
p4209
S'CC'
p4210
F0.9916
tp4211
a(S'that'
p4212
S'DT'
p4213
F0.432
tp4214
a(S'sucks'
p4215
S'VBZ'
p4216
F0.9882
tp4217
a(S'and'
p4218
S'CC'
p4219
F0.9777
tp4220
a(S'limits'
p4221
S'NNS'
p4222
F0.6674
tp4223
a(S'the'
p4224
S'DT'
p4225
F0.995
tp4226
a(S'kind'
p4227
S'NN'
p4228
F0.8415
tp4229
a(S'of'
p4230
S'IN'
p4231
F0.9862
tp4232
a(S'games'
p4233
S'NNS'
p4234
F0.9674
tp4235
a(S'that'
p4236
S'IN'
p4237
F0.5186
tp4238
a(S'can'
p4239
S'MD'
p4240
F0.9889
tp4241
a(S'be'
p4242
S'VB'
p4243
F0.9977
tp4244
a(S'created'
p4245
S'VBN'
p4246
F0.9469
tp4247
a(S'for'
p4248
S'IN'
p4249
F0.996
tp4250
a(S'apple'
p4251
S'NNP'
p4252
F0.651
tp4253
a(S'tv'
p4254
S'NN'
p4255
F0.9117
tp4256
a(g349
g349
F0.99
tp4257
a(S'so'
p4258
S'RB'
p4259
F0.4708
tp4260
a(g96
S'DT'
p4261
F0.9932
tp4262
a(S'competitor'
p4263
S'NN'
p4264
F0.997
tp4265
a(S'of'
p4266
S'IN'
p4267
F0.9889
tp4268
a(S'consoles'
p4269
S'NNS'
p4270
F0.9398
tp4271
a(g452
g23
F0.9929
tp4272
a(S'hell'
p4273
S'NN'
p4274
F0.3942
tp4275
a(S'no'
p4276
S'DT'
p4277
F0.475
tp4278
ag123
tp4279
a((lp4280
(S'Apple'
p4281
S'NNP'
p4282
F0.8258
tp4283
a(S'fucking'
p4284
S'VBG'
p4285
F0.5754
tp4286
a(S'sucks'
p4287
S'VBZ'
p4288
F0.9462
tp4289
a(S'since'
p4290
S'IN'
p4291
F0.9906
tp4292
a(S'Steve'
p4293
S'NNP'
p4294
F0.9958
tp4295
a(S'died'
p4296
S'VBD'
p4297
F0.9001
tp4298
a(g23
g23
F0.9937
tp4299
a(S'can'
p4300
S'MD'
p4301
F0.9692
tp4302
a(g78
S'PRP'
p4303
F0.9817
tp4304
a(S'get'
p4305
S'VBP'
p4306
F0.9645
tp4307
a(g96
S'DT'
p4308
F0.9895
tp4309
a(S'better'
p4310
S'JJR'
p4311
F0.5841
tp4312
a(S'charger'
p4313
S'NN'
p4314
F0.7415
tp4315
a(g452
g23
F0.9884
tp4316
a(S'instead'
p4317
S'RB'
p4318
F0.7959
tp4319
a(S'of'
p4320
S'IN'
p4321
F0.9773
tp4322
a(S'updates'
p4323
S'NNS'
p4324
F0.9664
tp4325
a(S'that'
p4326
S'IN'
p4327
F0.4609
tp4328
a(S'take'
p4329
S'VB'
p4330
F0.8393
tp4331
a(S'up'
p4332
S'RP'
p4333
F0.9639
tp4334
a(S'all'
p4335
S'DT'
p4336
F0.9303
tp4337
a(S'my'
p4338
S'PRP$'
p4339
F0.9943
tp4340
a(S'memory'
p4341
S'NN'
p4342
F0.99
tp4343
ag123
tp4344
a((lp4345
(S'Under'
p4346
S'IN'
p4347
F0.9601
tp4348
a(S'50K'
p4349
S'CD'
p4350
F0.6369
tp4351
a(S'for'
p4352
S'IN'
p4353
F0.9975
tp4354
a(S'this'
p4355
S'DT'
p4356
F0.9981
tp4357
a(S'MBP'
p4358
S'NN'
p4359
F0.7064
tp4360
a(S'is'
p4361
S'VBZ'
p4362
F0.9919
tp4363
a(S'damn'
p4364
S'RB'
p4365
F0.7655
tp4366
a(S'good'
p4367
S'JJ'
p4368
F0.9861
tp4369
a(S'deal'
p4370
S'NN'
p4371
F0.9553
tp4372
a(g23
g23
F0.9964
tp4373
ag42
tp4374
a((lp4375
(S'And'
p4376
S'CC'
p4377
F0.9868
tp4378
a(S'Microsoft'
p4379
S'NNP'
p4380
F0.9936
tp4381
a(S'office'
p4382
S'NN'
p4383
F0.9485
tp4384
a(S"doesn't"
p4385
S'NN'
p4386
F0.585
tp4387
a(S'work'
p4388
S'NN'
p4389
F0.887
tp4390
a(S'in'
p4391
S'IN'
p4392
F0.9967
tp4393
a(S'El'
p4394
S'NNP'
p4395
F0.9872
tp4396
a(S'Capitan'
p4397
S'NNP'
p4398
F0.9988
tp4399
a(g23
g23
F0.9904
tp4400
a(S'Apple'
p4401
S'NNP'
p4402
F0.8477
tp4403
a(S'engineers'
p4404
S'NNS'
p4405
F0.6297
tp4406
a(S"aren't"
p4407
S'VBP'
p4408
F0.488
tp4409
a(S'doing'
p4410
S'VBG'
p4411
F0.996
tp4412
a(g96
S'DT'
p4413
F0.9873
tp4414
a(S'very'
p4415
S'RB'
p4416
F0.926
tp4417
a(S'good'
p4418
S'JJ'
p4419
F0.9906
tp4420
a(S'job'
p4421
S'NN'
p4422
F0.9554
tp4423
a(S'this'
p4424
S'DT'
p4425
F0.9975
tp4426
a(S'time'
p4427
S'NN'
p4428
F0.9924
tp4429
a(S'around'
p4430
S'IN'
p4431
F0.8667
tp4432
a(S'and'
p4433
S'CC'
p4434
F0.9929
tp4435
a(S'making'
p4436
S'VBG'
p4437
F0.9823
tp4438
a(S'fake'
p4439
S'JJ'
p4440
F0.5869
tp4441
a(S'promises'
p4442
S'NNS'
p4443
F0.6271
tp4444
ag123
tp4445
a((lp4446
(S'Awesome'
p4447
S'JJ'
p4448
F0.9843
tp4449
a(S'idea'
p4450
S'NN'
p4451
F0.9435
tp4452
a(g349
g349
F0.9907
tp4453
a(S'shame'
p4454
S'NN'
p4455
F0.7588
tp4456
a(S'on'
p4457
S'IN'
p4458
F0.9981
tp4459
a(S'Apple'
p4460
S'NNP'
p4461
F0.996
tp4462
a(S'for'
p4463
S'IN'
p4464
F0.9846
tp4465
a(S'refusing'
p4466
S'VBG'
p4467
F0.9786
tp4468
a(S'the'
p4469
S'DT'
p4470
F0.992
tp4471
a(S'app'
p4472
S'NN'
p4473
F0.8797
tp4474
a(S'from'
p4475
S'IN'
p4476
F0.9991
tp4477
a(S'the'
p4478
S'DT'
p4479
F0.9953
tp4480
a(S'app'
p4481
S'NN'
p4482
F0.7271
tp4483
a(S'store'
p4484
S'NN'
p4485
F0.9814
tp4486
a(g23
g23
F0.9968
tp4487
ag123
tp4488
a((lp4489
(S'RT'
p4490
S'RT'
p4491
F0.9539
tp4492
a(S'Apple'
p4493
S'NNP'
p4494
F0.9877
tp4495
a(S'Music'
p4496
S'NNP'
p4497
F0.5925
tp4498
a(S'sucks'
p4499
S'VBZ'
p4500
F0.8533
tp4501
a(g23
g23
F0.9966
tp4502
ag123
tp4503
a((lp4504
(S'Apple'
p4505
S'NNP'
p4506
F0.9036
tp4507
a(S'TV'
p4508
S'NNP'
p4509
F0.8267
tp4510
a(S'2015'
p4511
S'CD'
p4512
F0.6965
tp4513
a(S'review'
p4514
S'NN'
p4515
F0.9791
tp4516
a(g20
g20
F0.9695
tp4517
a(S'Fast'
p4518
S'RB'
p4519
F0.5114
tp4520
a(S'and'
p4521
S'CC'
p4522
F0.9893
tp4523
a(S'easy'
p4524
S'JJ'
p4525
F0.9097
tp4526
a(S'to'
p4527
S'TO'
p4528
F0.9954
tp4529
a(S'navigate'
p4530
S'VB'
p4531
F0.9865
tp4532
a(g349
g349
F0.9868
tp4533
a(S'but'
p4534
S'CC'
p4535
F0.9939
tp4536
a(S'keyboard'
p4537
S'NN'
p4538
F0.8972
tp4539
a(S'worse'
p4540
S'JJ'
p4541
F0.3493
tp4542
a(g349
g349
F0.9893
tp4543
a(S'Siri'
p4544
S'NNP'
p4545
F0.9995
tp4546
a(S'limited'
p4547
S'JJ'
p4548
F0.3843
tp4549
a(g349
g349
F0.9885
tp4550
a(S'feels'
p4551
S'VBZ'
p4552
F0.8515
tp4553
a(S'like'
p4554
S'IN'
p4555
F0.8698
tp4556
a(S'firs'
p4557
S'NNS'
p4558
F0.3016
tp4559
a(S'...'
p4560
g20
F0.9982
tp4561
a(S'|'
p4562
g20
F0.4061
tp4563
ag123
tp4564
a((lp4565
(S'????'
p4566
g23
F0.9175
tp4567
a(g270
S'PRP'
p4568
F0.9978
tp4569
a(S'guess'
p4570
S'VBP'
p4571
F0.986
tp4572
a(S'apple'
p4573
S'NNP'
p4574
F0.3926
tp4575
a(S'just'
p4576
S'RB'
p4577
F0.9986
tp4578
a(S'sucks'
p4579
S'VBZ'
p4580
F0.9266
tp4581
a(S'dick'
p4582
S'NN'
p4583
F0.7088
tp4584
a(S'!!!!'
p4585
g23
F0.9912
tp4586
ag123
tp4587
a((lp4588
(S'attended'
p4589
S'VBD'
p4590
F0.5814
tp4591
a(g96
S'DT'
p4592
F0.9958
tp4593
a(S'luncheon'
p4594
S'NN'
p4595
F0.9952
tp4596
a(S'and'
p4597
S'CC'
p4598
F0.994
tp4599
a(S'grabbed'
p4600
S'VBD'
p4601
F0.8736
tp4602
a(S'my'
p4603
S'PRP$'
p4604
F0.9904
tp4605
a(S'work'
p4606
S'NN'
p4607
F0.9936
tp4608
a(S'cellphone'
p4609
S'NN'
p4610
F0.8351
tp4611
a(S'and'
p4612
S'CC'
p4613
F0.9932
tp4614
a(S'realized'
p4615
S'VBD'
p4616
F0.4656
tp4617
a(g270
S'PRP'
p4618
F0.9969
tp4619
a(S'never'
p4620
S'RB'
p4621
F0.9737
tp4622
a(S'turned'
p4623
S'VBD'
p4624
F0.5268
tp4625
a(S'it'
p4626
S'PRP'
p4627
F0.9936
tp4628
a(S'off'
p4629
S'RP'
p4630
F0.9155
tp4631
a(S'..'
p4632
g20
F0.9148
tp4633
a(S'and'
p4634
S'CC'
p4635
F0.9934
tp4636
a(S'the'
p4637
S'DT'
p4638
F0.9936
tp4639
a(S'battery'
p4640
S'NN'
p4641
F0.9698
tp4642
a(S'life'
p4643
S'NN'
p4644
F0.9958
tp4645
a(S'was'
p4646
S'VBD'
p4647
F0.9731
tp4648
a(S'still'
p4649
S'RB'
p4650
F0.9759
tp4651
a(g96
S'DT'
p4652
F0.9957
tp4653
a(S'lot'
p4654
S'NN'
p4655
F0.84
tp4656
a(S'good'
p4657
S'JJ'
p4658
F0.933
tp4659
a(S'job'
p4660
S'NN'
p4661
F0.9527
tp4662
a(S'Apple'
p4663
S'NNP'
p4664
F0.8607
tp4665
ag42
tp4666
a((lp4667
(S"What's"
p4668
S'WP'
p4669
F0.3046
tp4670
a(S'the'
p4671
S'DT'
p4672
F0.9946
tp4673
a(S'point'
p4674
S'NN'
p4675
F0.9825
tp4676
a(S'of'
p4677
S'IN'
p4678
F0.9787
tp4679
a(S'buying'
p4680
S'VBG'
p4681
F0.9951
tp4682
a(S'the'
p4683
S'DT'
p4684
F0.993
tp4685
a(S'new'
p4686
S'JJ'
p4687
F0.8876
tp4688
a(S'Apple'
p4689
S'NNP'
p4690
F0.8167
tp4691
a(S'TV'
p4692
S'NN'
p4693
F0.5716
tp4694
a(S'when'
p4695
S'WRB'
p4696
F0.9878
tp4697
a(S'none'
p4698
S'NN'
p4699
F0.8593
tp4700
a(S'of'
p4701
S'IN'
p4702
F0.997
tp4703
a(S'the'
p4704
S'DT'
p4705
F0.9947
tp4706
a(S'app'
p4707
S'NN'
p4708
F0.8853
tp4709
a(S'content'
p4710
S'NN'
p4711
F0.9839
tp4712
a(S'is'
p4713
S'VBZ'
p4714
F0.9964
tp4715
a(S'available'
p4716
S'JJ'
p4717
F0.736
tp4718
a(S'in'
p4719
S'IN'
p4720
F0.9974
tp4721
a(S'Canada'
p4722
S'NNP'
p4723
F0.9986
tp4724
a(g452
g23
F0.9888
tp4725
a(S'This'
p4726
S'DT'
p4727
F0.9953
tp4728
a(S'country'
p4729
S'NN'
p4730
F0.9979
tp4731
a(S'sucks'
p4732
S'VBZ'
p4733
F0.9647
tp4734
a(S'asshole'
p4735
S'NN'
p4736
F0.8355
tp4737
ag123
tp4738
a((lp4739
(S"Don't"
p4740
S'VBP'
p4741
F0.2911
tp4742
a(S'let'
p4743
S'VB'
p4744
F0.9893
tp4745
a(S'Apple'
p4746
S'NNP'
p4747
F0.951
tp4748
a(S'know'
p4749
S'VBP'
p4750
F0.567
tp4751
a(g349
g349
F0.9875
tp4752
a(S'but'
p4753
S'CC'
p4754
F0.999
tp4755
a(g270
S'PRP'
p4756
F0.9981
tp4757
a(S'think'
p4758
S'VBP'
p4759
F0.9917
tp4760
a(S'they'
p4761
S'PRP'
p4762
F0.995
tp4763
a(S'did'
p4764
S'VBD'
p4765
F0.9765
tp4766
a(g96
S'DT'
p4767
F0.9965
tp4768
a(S'good'
p4769
S'JJ'
p4770
F0.9825
tp4771
a(S'job'
p4772
S'NN'
p4773
F0.9876
tp4774
a(S'with'
p4775
S'IN'
p4776
F0.9994
tp4777
a(S'El'
p4778
S'NNP'
p4779
F0.9949
tp4780
a(S'Capitan'
p4781
S'NNP'
p4782
F0.9988
tp4783
a(g23
g23
F0.9955
tp4784
ag42
tp4785
a((lp4786
(S'Good'
p4787
S'JJ'
p4788
F0.777
tp4789
a(S'job'
p4790
S'NN'
p4791
F0.9364
tp4792
a(S'Apple'
p4793
S'NNP'
p4794
F0.901
tp4795
a(g23
g23
F0.9932
tp4796
a(S'These'
p4797
S'DT'
p4798
F0.9764
tp4799
a(S'emojis'
p4800
S'NNS'
p4801
F0.9677
tp4802
a(S'lit'
p4803
S'NN'
p4804
F0.2756
tp4805
a(S'????'
p4806
g23
F0.9709
tp4807
ag42
tp4808
a((lp4809
(S'RT'
p4810
S'RT'
p4811
F0.9652
tp4812
a(S'android'
p4813
S'NNP'
p4814
F0.5216
tp4815
a(S'master'
p4816
S'NN'
p4817
F0.6194
tp4818
a(S'race'
p4819
S'NN'
p4820
F0.7653
tp4821
a(S'apple'
p4822
S'NN'
p4823
F0.8073
tp4824
a(S'sucks'
p4825
S'VBZ'
p4826
F0.9757
tp4827
ag123
tp4828
a((lp4829
(S'Just'
p4830
S'RB'
p4831
F0.997
tp4832
a(S'noticed'
p4833
S'VBD'
p4834
F0.7542
tp4835
a(S'theres'
p4836
S'NNS'
p4837
F0.2338
tp4838
a(S'now'
p4839
S'RB'
p4840
F0.9816
tp4841
a(S'an'
p4842
S'DT'
p4843
F0.9298
tp4844
a(S'emoticone'
p4845
S'NN'
p4846
F0.6819
tp4847
a(S'version'
p4848
S'NN'
p4849
F0.9925
tp4850
a(S'of'
p4851
S'IN'
p4852
F0.9867
tp4853
a(S'#UnicornIsland'
p4854
S'HT'
p4855
F0.9268
tp4856
a(S'????????'
p4857
g23
F0.9332
tp4858
a(S';)'
p4859
S'UH'
p4860
F0.956
tp4861
a(S'\xc3\xa2\xc2\x9d\xc2\xa4\xc3\xaf\xc2\xb8\xc2\x8f'
p4862
S'UH'
p4863
F0.2867
tp4864
a(S'good'
p4865
S'JJ'
p4866
F0.8369
tp4867
a(S'job'
p4868
S'NN'
p4869
F0.936
tp4870
a(S'Apple'
p4871
S'NNP'
p4872
F0.8197
tp4873
a(g135
g23
F0.995
tp4874
ag42
tp4875
a((lp4876
(S'Apple'
p4877
S'NNP'
p4878
F0.8319
tp4879
a(S'Emailed'
p4880
S'VBD'
p4881
F0.8297
tp4882
a(S'Me'
p4883
S'PRP'
p4884
F0.9925
tp4885
a(S'About'
p4886
S'IN'
p4887
F0.696
tp4888
a(S'A'
p4889
S'DT'
p4890
F0.9269
tp4891
a(S'Job'
p4892
S'NN'
p4893
F0.8114
tp4894
a(g23
g23
F0.9932
tp4895
a(S'AMEN'
p4896
S'UH'
p4897
F0.9888
tp4898
a(g135
g23
F0.9815
tp4899
a(S'God'
p4900
S'NNP'
p4901
F0.98
tp4902
a(S'Is'
p4903
S'VBZ'
p4904
F0.9962
tp4905
a(S'So'
p4906
S'RB'
p4907
F0.738
tp4908
a(S'Good'
p4909
S'JJ'
p4910
F0.9291
tp4911
a(S'????'
p4912
g23
F0.9712
tp4913
ag42
tp4914
a((lp4915
(S'good'
p4916
S'JJ'
p4917
F0.7479
tp4918
a(S'job'
p4919
S'NN'
p4920
F0.9501
tp4921
a(S'apple'
p4922
S'NN'
p4923
F0.6429
tp4924
a(S'on'
p4925
S'IN'
p4926
F0.9959
tp4927
a(S'the'
p4928
S'DT'
p4929
F0.9918
tp4930
a(S'ios'
p4931
S'NNP'
p4932
F0.5096
tp4933
a(S'9.1'
p4934
S'CD'
p4935
F0.7089
tp4936
ag42
tp4937
a((lp4938
(S'Apple'
p4939
S'NNP'
p4940
F0.8552
tp4941
a(S'really'
p4942
S'RB'
p4943
F0.9474
tp4944
a(S'sucks'
p4945
S'VBZ'
p4946
F0.9486
tp4947
a(S'rn'
p4948
S'NN'
p4949
F0.5525
tp4950
ag123
tp4951
a((lp4952
(S'good'
p4953
S'JJ'
p4954
F0.7479
tp4955
a(S'job'
p4956
S'NN'
p4957
F0.9501
tp4958
a(S'apple'
p4959
S'NN'
p4960
F0.7453
tp4961
a(S'finally'
p4962
S'RB'
p4963
F0.9804
tp4964
a(S'an'
p4965
S'DT'
p4966
F0.9319
tp4967
a(S'update'
p4968
S'NN'
p4969
F0.996
tp4970
a(S'that'
p4971
S'DT'
p4972
F0.5708
tp4973
a(S'everyone'
p4974
S'NN'
p4975
F0.9959
tp4976
a(S'loves'
p4977
S'VBZ'
p4978
F0.9739
tp4979
ag42
tp4980
a((lp4981
(S'Streaming'
p4982
S'VBG'
p4983
F0.7539
tp4984
a(S'the'
p4985
S'DT'
p4986
F0.9967
tp4987
a(S'Bills'
p4988
S'NNP'
p4989
F0.8709
tp4990
a(S'game'
p4991
S'NN'
p4992
F0.7161
tp4993
a(S'on'
p4994
S'IN'
p4995
F0.9946
tp4996
a(S'my'
p4997
S'PRP$'
p4998
F0.991
tp4999
a(S'Apple'
p5000
S'NNP'
p5001
F0.9489
tp5002
a(S'TV'
p5003
S'NN'
p5004
F0.5601
tp5005
a(g349
g349
F0.9908
tp5006
a(S'great'
p5007
S'JJ'
p5008
F0.9672
tp5009
a(S'quality'
p5010
S'NN'
p5011
F0.9637
tp5012
a(g349
g349
F0.991
tp5013
a(S'good'
p5014
S'JJ'
p5015
F0.9363
tp5016
a(S'job'
p5017
S'NN'
p5018
F0.9883
tp5019
a(S'by'
p5020
S'IN'
p5021
F0.9896
tp5022
a(S'Yahoo'
p5023
S'NNP'
p5024
F0.9925
tp5025
a(S'and'
p5026
S'CC'
p5027
F0.9939
tp5028
a(S'NFL'
p5029
S'NNP'
p5030
F0.789
tp5031
a(S'so'
p5032
S'RB'
p5033
F0.8905
tp5034
a(S'far'
p5035
S'RB'
p5036
F0.9118
tp5037
a(S'ok'
p5038
S'UH'
p5039
F0.5953
tp5040
a(S'that'
p5041
S'DT'
p5042
F0.644
tp5043
ag42
tp5044
a((lp5045
(S'????'
p5046
g23
F0.9189
tp5047
a(S'\xc3\xa2\xe2\x82\xac\xc2\x8d\xc3\xa2\xc2\x9d\xc2\xa4\xc3\xaf\xc2\xb8\xc2\x8f\xc3\xa2\xe2\x82\xac\xc2\x8d'
p5048
S'UH'
p5049
F0.1207
tp5050
a(S'????'
p5051
g23
F0.8923
tp5052
a(S'\xc3\xa2\xe2\x82\xac\xc2\x8d'
p5053
S'RB'
p5054
F0.0882
tp5055
a(S'????'
p5056
g23
F0.945
tp5057
a(S'????'
p5058
g23
F0.9372
tp5059
a(S'\xc3\xa2\xe2\x82\xac\xc2\x8d\xc3\xa2\xc2\x9d\xc2\xa4\xc3\xaf\xc2\xb8\xc2\x8f\xc3\xa2\xe2\x82\xac\xc2\x8d'
p5060
S'NN'
p5061
F0.1095
tp5062
a(S'????'
p5063
g23
F0.9434
tp5064
a(S'\xc3\xa2\xe2\x82\xac\xc2\x8d'
p5065
S'NN'
p5066
F0.1095
tp5067
a(S'????'
p5068
g23
F0.9482
tp5069
a(S'????'
p5070
g23
F0.9398
tp5071
a(S'<---'
p5072
S'SYM'
p5073
F0.4058
tp5074
a(S'good'
p5075
S'JJ'
p5076
F0.9716
tp5077
a(S'job'
p5078
S'NN'
p5079
F0.9885
tp5080
a(g349
g349
F0.9898
tp5081
a(S'apple'
p5082
S'NNP'
p5083
F0.6593
tp5084
ag42
tp5085
a((lp5086
(S"i've"
p5087
S'PRP'
p5088
F0.9547
tp5089
a(S'put'
p5090
S'VBP'
p5091
F0.6246
tp5092
a(S'it'
p5093
S'PRP'
p5094
F0.9955
tp5095
a(S'on'
p5096
S'IN'
p5097
F0.9682
tp5098
a(S'my'
p5099
S'PRP$'
p5100
F0.9965
tp5101
a(S'old'
p5102
S'JJ'
p5103
F0.8928
tp5104
a(S'imac'
p5105
S'NN'
p5106
F0.9083
tp5107
a(g349
g349
F0.9914
tp5108
a(S'so'
p5109
S'RB'
p5110
F0.8901
tp5111
a(S'far'
p5112
S'RB'
p5113
F0.9376
tp5114
a(S'so'
p5115
S'RB'
p5116
F0.9429
tp5117
a(S'good'
p5118
S'JJ'
p5119
F0.9772
tp5120
a(g23
g23
F0.9899
tp5121
a(S'downloading'
p5122
S'VBG'
p5123
F0.942
tp5124
a(S'for'
p5125
S'IN'
p5126
F0.9956
tp5127
a(S'mbp'
p5128
S'NN'
p5129
F0.5442
tp5130
a(S'now'
p5131
S'RB'
p5132
F0.9631
tp5133
a(g23
g23
F0.9957
tp5134
ag42
tp5135
a((lp5136
(g270
S'PRP'
p5137
F0.9959
tp5138
a(S'already'
p5139
S'RB'
p5140
F0.9836
tp5141
a(S'used'
p5142
S'VBD'
p5143
F0.8388
tp5144
a(S'command'
p5145
S'NN'
p5146
F0.9276
tp5147
a(S'+'
p5148
g20
F0.327
tp5149
a(S'space'
p5150
S'NN'
p5151
F0.8685
tp5152
a(S'for'
p5153
S'IN'
p5154
F0.9985
tp5155
a(S'Alfred'
p5156
S'NNP'
p5157
F0.9997
tp5158
a(g23
g23
F0.9944
tp5159
a(S'Good'
p5160
S'JJ'
p5161
F0.8114
tp5162
a(S'job'
p5163
S'NN'
p5164
F0.993
tp5165
a(g349
g349
F0.9864
tp5166
a(S'Apple'
p5167
S'NNP'
p5168
F0.9879
tp5169
a(g23
g23
F0.996
tp5170
ag42
tp5171
a((lp5172
(S'iOS'
p5173
S'NNP'
p5174
F0.8207
tp5175
a(g3147
S'CD'
p5176
F0.9142
tp5177
a(S'has'
p5178
S'VBZ'
p5179
F0.9355
tp5180
a(S'made'
p5181
S'VBD'
p5182
F0.6981
tp5183
a(S'my'
p5184
S'PRP$'
p5185
F0.9922
tp5186
a(S'phone'
p5187
S'NN'
p5188
F0.9958
tp5189
a(S'10'
p5190
S'CD'
p5191
F0.996
tp5192
a(S'times'
p5193
S'NNS'
p5194
F0.9288
tp5195
a(S'worse'
p5196
S'JJ'
p5197
F0.6547
tp5198
a(g23
g23
F0.9918
tp5199
a(g270
S'PRP'
p5200
F0.9976
tp5201
a(S'guess'
p5202
S'VBP'
p5203
F0.9816
tp5204
a(S'Apple'
p5205
S'NNP'
p5206
F0.9357
tp5207
a(S"doesn't"
p5208
S'NN'
p5209
F0.3961
tp5210
a(S'have'
p5211
S'VB'
p5212
F0.9145
tp5213
a(g96
S'DT'
p5214
F0.993
tp5215
a(S'Twitter'
p5216
S'NNP'
p5217
F0.8122
tp5218
a(S'so'
p5219
S'RB'
p5220
F0.6887
tp5221
a(S"I'm"
p5222
S'PRP'
p5223
F0.8202
tp5224
a(S'tagging'
p5225
S'VBG'
p5226
F0.984
tp5227
a(S"it's"
p5228
S'PRP'
p5229
F0.714
tp5230
a(S'your'
p5231
S'PRP$'
p5232
F0.9786
tp5233
a(S'problem'
p5234
S'NN'
p5235
F0.9947
tp5236
a(S'now'
p5237
S'RB'
p5238
F0.9857
tp5239
a(g23
g23
F0.9955
tp5240
ag123
tp5241
a((lp5242
(S'The'
p5243
S'DT'
p5244
F0.9073
tp5245
a(S'only'
p5246
S'JJ'
p5247
F0.818
tp5248
a(S'thing'
p5249
S'NN'
p5250
F0.9652
tp5251
a(S'worse'
p5252
S'JJR'
p5253
F0.3522
tp5254
a(S'than'
p5255
S'IN'
p5256
F0.9961
tp5257
a(S'Apple'
p5258
S'NNP'
p5259
F0.9916
tp5260
a(g2994
g20
F0.3212
tp5261
a(S'Steve'
p5262
S'NNP'
p5263
F0.988
tp5264
a(S'Jobs'
p5265
S'NNP'
p5266
F0.914
tp5267
a(S'movies'
p5268
S'NNS'
p5269
F0.9805
tp5270
a(S'are'
p5271
S'VBP'
p5272
F0.9752
tp5273
a(S'boxing'
p5274
S'VBG'
p5275
F0.5261
tp5276
a(S'movies'
p5277
S'NNS'
p5278
F0.9891
tp5279
ag123
tp5280
a((lp5281
(S'RT'
p5282
S'RT'
p5283
F0.9707
tp5284
a(g232
S"''"
p5285
F0.974
tp5286
a(S'edison'
p5287
S'NNP'
p5288
F0.7939
tp5289
a(S'chargers'
p5290
S'NNP'
p5291
F0.8215
tp5292
a(S'are'
p5293
S'VBP'
p5294
F0.9121
tp5295
a(S'worse'
p5296
S'JJ'
p5297
F0.6111
tp5298
a(S'then'
p5299
S'IN'
p5300
F0.8447
tp5301
a(S'apple'
p5302
S'NNP'
p5303
F0.5756
tp5304
a(S'chargers'
p5305
S'NNP'
p5306
F0.8382
tp5307
a(g232
S"''"
p5308
F0.986
tp5309
ag42
tp5310
a((lp5311
(S'apple'
p5312
S'NNP'
p5313
F0.7956
tp5314
a(S'sucks'
p5315
S'VBZ'
p5316
F0.9697
tp5317
ag123
tp5318
a((lp5319
(S'????????????????????????????????????????????????????'
p5320
S'NNP'
p5321
F0.1844
tp5322
a(S'\xc3\xa2\xcb\x9c'
p5323
S'NNP'
p5324
F0.4262
tp5325
a(S'\xc3\xa2\xc5\xa1\xc2\xb0\xc3\xa2\xcb\x9c\xc2\xaf\xc3\xa2\xcb\x9c\xc2\xae'
p5326
S'NNP'
p5327
F0.3585
tp5328
a(S'????????????'
p5329
g23
F0.9408
tp5330
a(S'\xc3\xa2\xcb\x9c\xc6\x92'
p5331
S'NN'
p5332
F0.1095
tp5333
a(S'????'
p5334
g23
F0.9434
tp5335
a(S'\xc3\xa2\xc2\x9d\xc2\xa3'
p5336
S'VB'
p5337
F0.1408
tp5338
a(S'these'
p5339
S'DT'
p5340
F0.9877
tp5341
a(S'new'
p5342
S'JJ'
p5343
F0.9918
tp5344
a(S'emojis'
p5345
S'NNS'
p5346
F0.9836
tp5347
a(S'are'
p5348
S'VBP'
p5349
F0.9798
tp5350
a(S'the'
p5351
S'DT'
p5352
F0.9967
tp5353
a(S'shit'
p5354
S'NN'
p5355
F0.9841
tp5356
a(S'????????????'
p5357
g23
F0.9599
tp5358
a(S'good'
p5359
S'JJ'
p5360
F0.9585
tp5361
a(S'job'
p5362
S'NN'
p5363
F0.9678
tp5364
a(S'apple'
p5365
S'NN'
p5366
F0.7747
tp5367
a(S'????????????????????????'
p5368
g23
F0.976
tp5369
ag42
tp5370
a((lp5371
(S'The'
p5372
S'DT'
p5373
F0.9381
tp5374
a(S'new'
p5375
S'JJ'
p5376
F0.9757
tp5377
a(S'fog'
p5378
S'NN'
p5379
F0.9919
tp5380
a(S'emoji'
p5381
S'NN'
p5382
F0.875
tp5383
a(S'is'
p5384
S'VBZ'
p5385
F0.9904
tp5386
a(S'on'
p5387
S'IN'
p5388
F0.9827
tp5389
a(S'point'
p5390
S'NN'
p5391
F0.9245
tp5392
a(g23
g23
F0.9953
tp5393
a(S'Good'
p5394
S'JJ'
p5395
F0.8114
tp5396
a(S'job'
p5397
S'NN'
p5398
F0.993
tp5399
a(g349
g349
F0.9878
tp5400
a(S'Apple'
p5401
S'NNP'
p5402
F0.9854
tp5403
a(S'????'
p5404
g23
F0.9799
tp5405
ag42
tp5406
a((lp5407
(S'9.2'
p5408
S'CD'
p5409
F0.8422
tp5410
a(S'beta'
p5411
S'NN'
p5412
F0.9682
tp5413
a(S'is'
p5414
S'VBZ'
p5415
F0.994
tp5416
a(S'even'
p5417
S'RB'
p5418
F0.9965
tp5419
a(S'worse'
p5420
S'JJR'
p5421
F0.5487
tp5422
a(S'than'
p5423
S'IN'
p5424
F0.9872
tp5425
a(S'9.1'
p5426
S'CD'
p5427
F0.9083
tp5428
a(S'...'
p5429
g20
F0.9967
tp5430
a(g270
S'PRP'
p5431
F0.995
tp5432
a(S'am'
p5433
S'VBP'
p5434
F0.9716
tp5435
a(S'slowly'
p5436
S'RB'
p5437
F0.9844
tp5438
a(S'giving'
p5439
S'VBG'
p5440
F0.9974
tp5441
a(S'up'
p5442
S'RP'
p5443
F0.6564
tp5444
a(S'on'
p5445
S'IN'
p5446
F0.999
tp5447
a(S'Apple'
p5448
S'NNP'
p5449
F0.995
tp5450
a(g23
g23
F0.9929
tp5451
a(S'My'
p5452
S'PRP$'
p5453
F0.9697
tp5454
a(S'Ipad'
p5455
S'NNP'
p5456
F0.6765
tp5457
a(g3395
S'CD'
p5458
F0.5898
tp5459
a(S'is'
p5460
S'VBZ'
p5461
F0.9829
tp5462
a(S'worth'
p5463
S'JJ'
p5464
F0.7674
tp5465
a(S'nothing'
p5466
S'NN'
p5467
F0.991
tp5468
a(S'today'
p5469
S'NN'
p5470
F0.9871
tp5471
a(g349
g349
F0.9903
tp5472
a(S'literally'
p5473
S'RB'
p5474
F0.9894
tp5475
a(g96
S'DT'
p5476
F0.9854
tp5477
a(S'somehow'
p5478
S'RB'
p5479
F0.9583
tp5480
a(S'working'
p5481
S'VBG'
p5482
F0.8969
tp5483
a(S'brick'
p5484
S'NN'
p5485
F0.9346
tp5486
a(g23
g23
F0.9974
tp5487
ag123
tp5488
a((lp5489
(S'Apple'
p5490
S'NNP'
p5491
F0.8681
tp5492
a(S'have'
p5493
S'VBP'
p5494
F0.661
tp5495
a(S'actually'
p5496
S'RB'
p5497
F0.9978
tp5498
a(S'done'
p5499
S'VBN'
p5500
F0.9216
tp5501
a(g96
S'DT'
p5502
F0.9874
tp5503
a(S'good'
p5504
S'JJ'
p5505
F0.9825
tp5506
a(S'job'
p5507
S'NN'
p5508
F0.98
tp5509
a(S'on'
p5510
S'IN'
p5511
F0.9937
tp5512
a(S'emojis'
p5513
S'NNS'
p5514
F0.9296
tp5515
a(S'????????????'
p5516
g23
F0.9737
tp5517
ag42
tp5518
a((lp5519
(g270
S'PRP'
p5520
F0.995
tp5521
a(S'ridiculously'
p5522
S'RB'
p5523
F0.9911
tp5524
a(S'need'
p5525
S'VBP'
p5526
F0.8323
tp5527
a(g96
S'DT'
p5528
F0.9943
tp5529
a(S'new'
p5530
S'JJ'
p5531
F0.9917
tp5532
a(S'macbook'
p5533
S'NN'
p5534
F0.9503
tp5535
a(g349
g349
F0.9909
tp5536
a(S'the'
p5537
S'DT'
p5538
F0.9929
tp5539
a(S'fan'
p5540
S'NN'
p5541
F0.9498
tp5542
a(S'on'
p5543
S'IN'
p5544
F0.9977
tp5545
a(S'the'
p5546
S'DT'
p5547
F0.9957
tp5548
a(S'one'
p5549
S'NN'
p5550
F0.5534
tp5551
a(g270
S'PRP'
p5552
F0.9966
tp5553
a(S'have'
p5554
S'VBP'
p5555
F0.9891
tp5556
a(S'now'
p5557
S'RB'
p5558
F0.9859
tp5559
a(S'is'
p5560
S'VBZ'
p5561
F0.9848
tp5562
a(S'loud'
p5563
S'JJ'
p5564
F0.6669
tp5565
a(S'as'
p5566
S'IN'
p5567
F0.8935
tp5568
a(S'fuck'
p5569
S'VB'
p5570
F0.4628
tp5571
a(g90
S'CC'
p5572
F0.9335
tp5573
a(S'embarrassing'
p5574
S'JJ'
p5575
F0.8472
tp5576
a(S'#5yearoldmacbook'
p5577
S'HT'
p5578
F0.9163
tp5579
ag123
tp5580
a((lp5581
(S'my'
p5582
S'PRP$'
p5583
F0.9695
tp5584
a(S'MBP'
p5585
S'NN'
p5586
F0.4689
tp5587
a(S"doesn't"
p5588
S'NN'
p5589
F0.5253
tp5590
a(S'run'
p5591
S'VB'
p5592
F0.7838
tp5593
a(S'so'
p5594
S'RB'
p5595
F0.9461
tp5596
a(S'good'
p5597
S'JJ'
p5598
F0.978
tp5599
a(S';)'
p5600
S'UH'
p5601
F0.9844
tp5602
ag123
tp5603
a((lp5604
(S'Okay'
p5605
S'UH'
p5606
F0.6779
tp5607
a(S'good'
p5608
S'JJ'
p5609
F0.792
tp5610
a(S'job'
p5611
S'NN'
p5612
F0.9624
tp5613
a(S'apple'
p5614
S'NN'
p5615
F0.7051
tp5616
a(S'for'
p5617
S'IN'
p5618
F0.9934
tp5619
a(S'getting'
p5620
S'VBG'
p5621
F0.997
tp5622
a(S'the'
p5623
S'DT'
p5624
F0.9932
tp5625
a(S'middle'
p5626
S'NN'
p5627
F0.9732
tp5628
a(S'finger'
p5629
S'NN'
p5630
F0.9879
tp5631
a(S'emoji'
p5632
S'NN'
p5633
F0.6824
tp5634
a(S'but'
p5635
S'CC'
p5636
F0.9798
tp5637
a(S'get'
p5638
S'VB'
p5639
F0.526
tp5640
a(S'your'
p5641
S'PRP$'
p5642
F0.9477
tp5643
a(S'shit'
p5644
S'NN'
p5645
F0.9934
tp5646
a(S'together'
p5647
S'RB'
p5648
F0.9002
tp5649
a(S"there's"
p5650
S'RB'
p5651
F0.2075
tp5652
a(S'still'
p5653
S'RB'
p5654
F0.9932
tp5655
a(S'no'
p5656
S'DT'
p5657
F0.9111
tp5658
a(S'volleyball'
p5659
S'NN'
p5660
F0.9973
tp5661
a(S'emoji'
p5662
S'NN'
p5663
F0.7616
tp5664
ag123
tp5665
a((lp5666
(S'Yay'
p5667
S'UH'
p5668
F0.8414
tp5669
a(S'for'
p5670
S'IN'
p5671
F0.9939
tp5672
a(S'this'
p5673
S'DT'
p5674
F0.9982
tp5675
a(S'emoji'
p5676
S'NN'
p5677
F0.7876
tp5678
a(S'????????'
p5679
g23
F0.96
tp5680
a(S'lol'
p5681
S'UH'
p5682
F0.9338
tp5683
a(S'good'
p5684
S'JJ'
p5685
F0.906
tp5686
a(S'job'
p5687
S'NN'
p5688
F0.963
tp5689
a(S'apple'
p5690
S'NN'
p5691
F0.7537
tp5692
a(S'????'
p5693
g23
F0.9747
tp5694
ag42
tp5695
a((lp5696
(S'my'
p5697
S'PRP$'
p5698
F0.9733
tp5699
a(S'headphones'
p5700
S'NNS'
p5701
F0.9941
tp5702
a(S'are'
p5703
S'VBP'
p5704
F0.9756
tp5705
a(S'almost'
p5706
S'RB'
p5707
F0.9935
tp5708
a(S'broken'
p5709
S'JJ'
p5710
F0.4879
tp5711
a(S'..'
p5712
g20
F0.9387
tp5713
a(S'????'
p5714
g23
F0.9155
tp5715
a(S'they'
p5716
S'PRP'
p5717
F0.9671
tp5718
a(S'lasted'
p5719
S'VBD'
p5720
F0.7393
tp5721
a(S'over'
p5722
S'IN'
p5723
F0.9663
tp5724
a(g96
S'DT'
p5725
F0.9974
tp5726
a(S'year'
p5727
S'NN'
p5728
F0.9955
tp5729
a(S'('
p5730
S'-LRB-'
p5731
F0.8961
tp5732
a(S'good'
p5733
S'JJ'
p5734
F0.9662
tp5735
a(S'job'
p5736
S'NN'
p5737
F0.9622
tp5738
a(S'apple'
p5739
S'NN'
p5740
F0.6562
tp5741
a(S'on'
p5742
S'IN'
p5743
F0.9945
tp5744
a(S'that'
p5745
S'DT'
p5746
F0.8485
tp5747
a(S'btw'
p5748
S'UH'
p5749
F0.611
tp5750
a(g349
g349
F0.9823
tp5751
a(g270
S'PRP'
p5752
F0.9777
tp5753
a(S'usually'
p5754
S'RB'
p5755
F0.9916
tp5756
a(S'break'
p5757
S'VB'
p5758
F0.8332
tp5759
a(g96
S'DT'
p5760
F0.995
tp5761
a(S'pair'
p5762
S'NN'
p5763
F0.9924
tp5764
a(S'every'
p5765
S'DT'
p5766
F0.8906
tp5767
a(S'2'
p5768
S'CD'
p5769
F0.7717
tp5770
a(S'months'
p5771
S'NNS'
p5772
F0.9823
tp5773
a(S')'
p5774
S'-RRB-'
p5775
F0.924
tp5776
a(g23
g23
F0.9871
tp5777
ag42
tp5778
a((lp5779
(S'Apple'
p5780
S'NNP'
p5781
F0.9116
tp5782
a(S'music'
p5783
S'NN'
p5784
F0.9657
tp5785
a(S'sucks'
p5786
S'VBZ'
p5787
F0.9475
tp5788
a(g349
g349
F0.9875
tp5789
a(S'it'
p5790
S'PRP'
p5791
F0.9972
tp5792
a(S'stays'
p5793
S'VBZ'
p5794
F0.9678
tp5795
a(S'deleting'
p5796
S'VBG'
p5797
F0.9911
tp5798
a(S'music'
p5799
S'NN'
p5800
F0.9775
tp5801
ag123
tp5802
a((lp5803
(S'looks'
p5804
S'VBZ'
p5805
F0.7075
tp5806
a(S'just'
p5807
S'RB'
p5808
F0.9997
tp5809
a(S'like'
p5810
S'IN'
p5811
F0.6331
tp5812
a(g96
S'DT'
p5813
F0.9979
tp5814
a(S'middle'
p5815
S'NN'
p5816
F0.9722
tp5817
a(S'finger'
p5818
S'NN'
p5819
F0.9831
tp5820
a(g135
g23
F0.9934
tp5821
a(S'Good'
p5822
S'JJ'
p5823
F0.8509
tp5824
a(S'job'
p5825
S'NN'
p5826
F0.9545
tp5827
a(S'Apple'
p5828
S'NNP'
p5829
F0.8021
tp5830
a(g135
g23
F0.9949
tp5831
ag42
tp5832
a((lp5833
(S'my'
p5834
S'PRP$'
p5835
F0.9695
tp5836
a(S'MBP'
p5837
S'NN'
p5838
F0.6577
tp5839
a(S'was'
p5840
S'VBD'
p5841
F0.987
tp5842
a(S'the'
p5843
S'DT'
p5844
F0.9948
tp5845
a(S'mid'
p5846
S'JJ'
p5847
F0.8618
tp5848
a(S'2010'
p5849
S'CD'
p5850
F0.9815
tp5851
a(S'model'
p5852
S'NN'
p5853
F0.995
tp5854
a(g863
g20
F0.9803
tp5855
a(S'good'
p5856
S'JJ'
p5857
F0.9636
tp5858
a(S'value'
p5859
S'NN'
p5860
F0.9721
tp5861
a(S'really'
p5862
S'RB'
p5863
F0.9881
tp5864
a(g23
g23
F0.9913
tp5865
a(S'Big'
p5866
S'JJ'
p5867
F0.8757
tp5868
a(S'fan'
p5869
S'NN'
p5870
F0.9803
tp5871
a(S'of'
p5872
S'IN'
p5873
F0.9973
tp5874
a(S'the'
p5875
S'DT'
p5876
F0.9962
tp5877
a(S'retina'
p5878
S'NN'
p5879
F0.9514
tp5880
a(S'display'
p5881
S'NN'
p5882
F0.9843
tp5883
a(S'and'
p5884
S'CC'
p5885
F0.9889
tp5886
a(S'lack'
p5887
S'NN'
p5888
F0.7194
tp5889
a(S'of'
p5890
S'IN'
p5891
F0.9858
tp5892
a(S'optical'
p5893
S'NN'
p5894
F0.6322
tp5895
a(S'makes'
p5896
S'VBZ'
p5897
F0.9639
tp5898
a(S'it'
p5899
S'PRP'
p5900
F0.9927
tp5901
a(S'thin'
p5902
S'JJ'
p5903
F0.9276
tp5904
a(g23
g23
F0.9883
tp5905
a(S'SSD'
p5906
S'NN'
p5907
F0.6805
tp5908
a(S'is'
p5909
S'VBZ'
p5910
F0.9922
tp5911
a(S'unreal'
p5912
S'JJ'
p5913
F0.9866
tp5914
ag42
tp5915
a((lp5916
(S'Love'
p5917
S'VBP'
p5918
F0.7565
tp5919
a(S'the'
p5920
S'DT'
p5921
F0.9916
tp5922
a(S'new'
p5923
S'JJ'
p5924
F0.9721
tp5925
a(S'emojis'
p5926
S'NNS'
p5927
F0.9772
tp5928
a(S'!!!!!'
p5929
g23
F0.9894
tp5930
a(S'Good'
p5931
S'JJ'
p5932
F0.8709
tp5933
a(S'job'
p5934
S'NN'
p5935
F0.9531
tp5936
a(S'Apple'
p5937
S'NNP'
p5938
F0.8725
tp5939
a(S'!!!!!'
p5940
g23
F0.9946
tp5941
ag42
tp5942
a((lp5943
(S'RT'
p5944
S'RT'
p5945
F0.9493
tp5946
a(S'Good'
p5947
S'JJ'
p5948
F0.7994
tp5949
a(S'job'
p5950
S'NN'
p5951
F0.9728
tp5952
a(S'apple'
p5953
S'NN'
p5954
F0.3636
tp5955
a(S'you'
p5956
S'PRP'
p5957
F0.9937
tp5958
a(S'finally'
p5959
S'RB'
p5960
F0.9962
tp5961
a(S'got'
p5962
S'VBD'
p5963
F0.743
tp5964
a(S'something'
p5965
S'NN'
p5966
F0.9865
tp5967
a(S'right'
p5968
S'RB'
p5969
F0.8877
tp5970
a(g135
g23
F0.9876
tp5971
a(S'We'
p5972
S'PRP'
p5973
F0.985
tp5974
a(S'finally'
p5975
S'RB'
p5976
F0.9852
tp5977
a(S'have'
p5978
S'VBP'
p5979
F0.5276
tp5980
a(g96
S'DT'
p5981
F0.9877
tp5982
a(S'????.'
p5983
S'UH'
p5984
F0.6246
tp5985
ag42
tp5986
a((lp5987
(S'Apple'
p5988
S'NNP'
p5989
F0.8523
tp5990
a(S'did'
p5991
S'VBD'
p5992
F0.9202
tp5993
a(g96
S'DT'
p5994
F0.9971
tp5995
a(S'good'
p5996
S'JJ'
p5997
F0.9855
tp5998
a(S'job'
p5999
S'NN'
p6000
F0.9842
tp6001
a(S'cause'
p6002
S'IN'
p6003
F0.8984
tp6004
a(S'you'
p6005
S'PRP'
p6006
F0.999
tp6007
a(S'can'
p6008
S'MD'
p6009
F0.975
tp6010
a(S'use'
p6011
S'VB'
p6012
F0.9729
tp6013
a(S'emojis'
p6014
S'NNS'
p6015
F0.9335
tp6016
a(S'to'
p6017
S'TO'
p6018
F0.9966
tp6019
a(S'get'
p6020
S'VB'
p6021
F0.9985
tp6022
a(S'out'
p6023
S'IN'
p6024
F0.7514
tp6025
a(S'of'
p6026
S'IN'
p6027
F0.9598
tp6028
a(S'most'
p6029
S'JJS'
p6030
F0.5455
tp6031
a(S'awkward'
p6032
S'JJ'
p6033
F0.9883
tp6034
a(S'situations'
p6035
S'NNS'
p6036
F0.9836
tp6037
a(g23
g23
F0.9968
tp6038
ag42
tp6039
a((lp6040
(S'These'
p6041
S'DT'
p6042
F0.9726
tp6043
a(S'new'
p6044
S'JJ'
p6045
F0.9899
tp6046
a(S'emojis'
p6047
S'NNS'
p6048
F0.9844
tp6049
a(S'are'
p6050
S'VBP'
p6051
F0.9899
tp6052
a(S'everything'
p6053
S'NN'
p6054
F0.9171
tp6055
a(S'!!!!!!!!'
p6056
g23
F0.9953
tp6057
a(S'Love'
p6058
S'VB'
p6059
F0.4401
tp6060
a(S'them'
p6061
S'PRP'
p6062
F0.9822
tp6063
a(S'!!'
p6064
g23
F0.9795
tp6065
a(S'Good'
p6066
S'JJ'
p6067
F0.8587
tp6068
a(S'job'
p6069
S'NN'
p6070
F0.9554
tp6071
a(S'Apple'
p6072
S'NNP'
p6073
F0.8194
tp6074
a(g135
g23
F0.9961
tp6075
ag42
tp6076
a((lp6077
(S'Apple'
p6078
S'NNP'
p6079
F0.8508
tp6080
a(S'is'
p6081
S'VBZ'
p6082
F0.9947
tp6083
a(S'unable'
p6084
S'JJ'
p6085
F0.7346
tp6086
a(S'to'
p6087
S'TO'
p6088
F0.9972
tp6089
a(S'make'
p6090
S'VB'
p6091
F0.9979
tp6092
a(S'work'
p6093
S'NN'
p6094
F0.9825
tp6095
a(g23
g23
F0.994
tp6096
a(S'After'
p6097
S'IN'
p6098
F0.9668
tp6099
a(g96
S'DT'
p6100
F0.9973
tp6101
a(S'nightmare'
p6102
S'NN'
p6103
F0.9852
tp6104
a(S'weekend'
p6105
S'NN'
p6106
F0.9875
tp6107
a(g349
g349
F0.9908
tp6108
a(S'synchronizing'
p6109
S'VBG'
p6110
F0.9804
tp6111
a(S'the'
p6112
S'DT'
p6113
F0.9961
tp6114
a(S'music'
p6115
S'NN'
p6116
F0.9944
tp6117
a(S'library'
p6118
S'NN'
p6119
F0.9832
tp6120
a(S'via'
p6121
S'IN'
p6122
F0.8694
tp6123
a(S'iCloud'
p6124
S'NNP'
p6125
F0.8834
tp6126
a(S'on'
p6127
S'IN'
p6128
F0.9901
tp6129
a(S'mac'
p6130
S'NNP'
p6131
F0.9141
tp6132
a(S'still'
p6133
S'RB'
p6134
F0.9866
tp6135
a(S'sucks'
p6136
S'VBZ'
p6137
F0.918
tp6138
a(S'!!!'
p6139
g23
F0.9959
tp6140
ag123
tp6141
a((lp6142
(S'Best'
p6143
S'JJS'
p6144
F0.8957
tp6145
a(S'emojis'
p6146
S'NNS'
p6147
F0.9497
tp6148
a(S'????????'
p6149
g23
F0.9473
tp6150
a(S'literally'
p6151
S'RB'
p6152
F0.998
tp6153
a(S'ALWAYS'
p6154
S'RB'
p6155
F0.9892
tp6156
a(S'thought'
p6157
S'VBD'
p6158
F0.5499
tp6159
a(S'hard'
p6160
S'JJ'
p6161
F0.8568
tp6162
a(S'about'
p6163
S'IN'
p6164
F0.9861
tp6165
a(S'an'
p6166
S'DT'
p6167
F0.9856
tp6168
a(S'emoji'
p6169
S'NN'
p6170
F0.8952
tp6171
a(S'to'
p6172
S'TO'
p6173
F0.9958
tp6174
a(S'fit'
p6175
S'VB'
p6176
F0.9907
tp6177
a(S'those'
p6178
S'DT'
p6179
F0.9782
tp6180
a(S'emotions'
p6181
S'NNS'
p6182
F0.965
tp6183
a(g135
g23
F0.9939
tp6184
a(S'Good'
p6185
S'JJ'
p6186
F0.8509
tp6187
a(S'job'
p6188
S'NN'
p6189
F0.9534
tp6190
a(S'Apple'
p6191
S'NNP'
p6192
F0.8818
tp6193
a(g23
g23
F0.9946
tp6194
a(S'So'
p6195
S'RB'
p6196
F0.9738
tp6197
a(S'proud'
p6198
S'JJ'
p6199
F0.971
tp6200
a(S'????'
p6201
g23
F0.9624
tp6202
ag42
tp6203
a((lp6204
(S'dear'
p6205
S'UH'
p6206
F0.9239
tp6207
a(S'apple'
p6208
S'UH'
p6209
F0.6102
tp6210
a(g349
g349
F0.9888
tp6211
a(S'good'
p6212
S'JJ'
p6213
F0.9304
tp6214
a(S'job'
p6215
S'NN'
p6216
F0.98
tp6217
a(S'on'
p6218
S'IN'
p6219
F0.9978
tp6220
a(S'the'
p6221
S'DT'
p6222
F0.9945
tp6223
a(S'middle'
p6224
S'NN'
p6225
F0.9732
tp6226
a(S'finger'
p6227
S'NN'
p6228
F0.9879
tp6229
a(S'emoji'
p6230
S'NN'
p6231
F0.7651
tp6232
a(g349
g349
F0.9924
tp6233
a(S'still'
p6234
S'RB'
p6235
F0.9802
tp6236
a(S'waiting'
p6237
S'VBG'
p6238
F0.9903
tp6239
a(S'on'
p6240
S'IN'
p6241
F0.9867
tp6242
a(S'the'
p6243
S'DT'
p6244
F0.9926
tp6245
a(S'bong'
p6246
S'NN'
p6247
F0.9063
tp6248
a(S'emoji'
p6249
S'NN'
p6250
F0.8884
tp6251
a(g23
g23
F0.9953
tp6252
ag42
tp6253
a((lp6254
(S'Apple'
p6255
S'NNP'
p6256
F0.9036
tp6257
a(S'TV'
p6258
S'NNP'
p6259
F0.8267
tp6260
a(S'2015'
p6261
S'CD'
p6262
F0.6965
tp6263
a(S'review'
p6264
S'NN'
p6265
F0.9791
tp6266
a(g20
g20
F0.9695
tp6267
a(S'fast'
p6268
S'RB'
p6269
F0.6323
tp6270
a(S'and'
p6271
S'CC'
p6272
F0.9898
tp6273
a(S'easy'
p6274
S'JJ'
p6275
F0.9097
tp6276
a(S'to'
p6277
S'TO'
p6278
F0.9954
tp6279
a(S'navigate'
p6280
S'VB'
p6281
F0.9865
tp6282
a(g349
g349
F0.9868
tp6283
a(S'but'
p6284
S'CC'
p6285
F0.9939
tp6286
a(S'keyboard'
p6287
S'NN'
p6288
F0.8972
tp6289
a(S'worse'
p6290
S'JJ'
p6291
F0.3493
tp6292
a(g349
g349
F0.9893
tp6293
a(S'Siri'
p6294
S'NNP'
p6295
F0.9995
tp6296
a(S'limited'
p6297
S'JJ'
p6298
F0.3843
tp6299
a(g349
g349
F0.9885
tp6300
a(S'feels'
p6301
S'VBZ'
p6302
F0.8515
tp6303
a(S'like'
p6304
S'IN'
p6305
F0.7121
tp6306
a(S'first'
p6307
S'JJ'
p6308
F0.9491
tp6309
a(S'effort'
p6310
S'NN'
p6311
F0.9864
tp6312
a(S'in'
p6313
S'IN'
p6314
F0.9817
tp6315
a(S'new'
p6316
S'JJ'
p6317
F0.9802
tp6318
a(S'...'
p6319
g20
F0.9943
tp6320
ag123
tp6321
a((lp6322
(S'it'
p6323
S'PRP'
p6324
F0.9991
tp6325
a(S'needs'
p6326
S'VBZ'
p6327
F0.9901
tp6328
a(S'to'
p6329
S'TO'
p6330
F0.9983
tp6331
a(S'be'
p6332
S'VB'
p6333
F0.9988
tp6334
a(S'sinked'
p6335
S'VBN'
p6336
F0.795
tp6337
a(S'to'
p6338
S'TO'
p6339
F0.9944
tp6340
a(S'your'
p6341
S'PRP$'
p6342
F0.8346
tp6343
a(S'iCloud'
p6344
S'NNP'
p6345
F0.7167
tp6346
a(S'music'
p6347
S'NN'
p6348
F0.9626
tp6349
a(g349
g349
F0.9872
tp6350
a(S'Apple'
p6351
S'NNP'
p6352
F0.9973
tp6353
a(S'Music'
p6354
S'NNP'
p6355
F0.5943
tp6356
a(S'actually'
p6357
S'RB'
p6358
F0.9857
tp6359
a(S'sucks'
p6360
S'VBZ'
p6361
F0.9066
tp6362
a(S'lol'
p6363
S'UH'
p6364
F0.9383
tp6365
ag123
tp6366
a((lp6367
(S'Lovin'
p6368
S'VBG'
p6369
F0.8475
tp6370
a(S'the'
p6371
S'DT'
p6372
F0.9929
tp6373
a(S'new'
p6374
S'JJ'
p6375
F0.9721
tp6376
a(S'emojis'
p6377
S'NNS'
p6378
F0.9796
tp6379
a(g23
g23
F0.9928
tp6380
a(S'Good'
p6381
S'JJ'
p6382
F0.8114
tp6383
a(S'job'
p6384
S'NN'
p6385
F0.9531
tp6386
a(S'Apple'
p6387
S'NNP'
p6388
F0.8377
tp6389
a(S'????????????'
p6390
g23
F0.974
tp6391
ag42
tp6392
a((lp6393
(S"MBP's"
p6394
S'NNP'
p6395
F0.2611
tp6396
a(S'trackpad'
p6397
S'NN'
p6398
F0.6209
tp6399
a(S'is'
p6400
S'VBZ'
p6401
F0.9905
tp6402
a(S'so'
p6403
S'RB'
p6404
F0.9808
tp6405
a(S'good'
p6406
S'JJ'
p6407
F0.9658
tp6408
a(g349
g349
F0.9893
tp6409
a(S'missing'
p6410
S'VBG'
p6411
F0.9886
tp6412
a(S'touch'
p6413
S'NN'
p6414
F0.9156
tp6415
a(S"isn't"
p6416
S'VBD'
p6417
F0.364
tp6418
a(S'an'
p6419
S'DT'
p6420
F0.9859
tp6421
a(S'issue'
p6422
S'NN'
p6423
F0.9988
tp6424
a(g23
g23
F0.9969
tp6425
ag42
tp6426
a((lp6427
(g270
S'PRP'
p6428
F0.992
tp6429
a(S'use'
p6430
S'VBP'
p6431
F0.9709
tp6432
a(S'the'
p6433
S'DT'
p6434
F0.9958
tp6435
a(S'flashlight'
p6436
S'NN'
p6437
F0.9544
tp6438
a(S'on'
p6439
S'IN'
p6440
F0.9953
tp6441
a(S'my'
p6442
S'PRP$'
p6443
F0.9972
tp6444
a(S'phone'
p6445
S'NN'
p6446
F0.9932
tp6447
a(S'like'
p6448
S'IN'
p6449
F0.9097
tp6450
a(S'10'
p6451
S'CD'
p6452
F0.9982
tp6453
a(S'times'
p6454
S'NNS'
p6455
F0.9598
tp6456
a(g96
S'DT'
p6457
F0.9927
tp6458
a(S'day'
p6459
S'NN'
p6460
F0.9988
tp6461
a(g23
g23
F0.9954
tp6462
a(S'Good'
p6463
S'JJ'
p6464
F0.7991
tp6465
a(S'job'
p6466
S'NN'
p6467
F0.9499
tp6468
a(S'Apple'
p6469
S'NNP'
p6470
F0.8957
tp6471
ag42
tp6472
a((lp6473
(S'Good'
p6474
S'JJ'
p6475
F0.777
tp6476
a(S'job'
p6477
S'NN'
p6478
F0.9647
tp6479
a(S'apple'
p6480
S'NN'
p6481
F0.4093
tp6482
a(S'you'
p6483
S'PRP'
p6484
F0.9938
tp6485
a(S'finally'
p6486
S'RB'
p6487
F0.9962
tp6488
a(S'got'
p6489
S'VBD'
p6490
F0.743
tp6491
a(S'something'
p6492
S'NN'
p6493
F0.9865
tp6494
a(S'right'
p6495
S'RB'
p6496
F0.8877
tp6497
a(g135
g23
F0.9876
tp6498
a(S'We'
p6499
S'PRP'
p6500
F0.985
tp6501
a(S'finally'
p6502
S'RB'
p6503
F0.9852
tp6504
a(S'have'
p6505
S'VBP'
p6506
F0.5365
tp6507
a(g96
S'DT'
p6508
F0.9878
tp6509
a(S'????.'
p6510
S'UH'
p6511
F0.6429
tp6512
ag42
tp6513
a((lp6514
(S'fuckin'
p6515
S'NNP'
p6516
F0.4439
tp6517
a(S'Apple'
p6518
S'NNP'
p6519
F0.9991
tp6520
a(S'sucks'
p6521
S'VBZ'
p6522
F0.9187
tp6523
a(g23
g23
F0.9965
tp6524
ag123
tp6525
a((lp6526
(S'Loving'
p6527
S'VBG'
p6528
F0.9737
tp6529
a(S'the'
p6530
S'DT'
p6531
F0.9932
tp6532
a(S'new'
p6533
S'JJ'
p6534
F0.9721
tp6535
a(S'emojis'
p6536
S'NNS'
p6537
F0.9745
tp6538
a(S'!!!'
p6539
g23
F0.9877
tp6540
a(S'Good'
p6541
S'JJ'
p6542
F0.8918
tp6543
a(S'job'
p6544
S'NN'
p6545
F0.9531
tp6546
a(S'Apple'
p6547
S'NNP'
p6548
F0.8377
tp6549
a(S'????????'
p6550
g23
F0.974
tp6551
ag42
tp6552
a((lp6553
(S'good'
p6554
S'JJ'
p6555
F0.7479
tp6556
a(S'job'
p6557
S'NN'
p6558
F0.9501
tp6559
a(S'apple'
p6560
S'NN'
p6561
F0.7872
tp6562
a(g23
g23
F0.9918
tp6563
a(S'my'
p6564
S'PRP$'
p6565
F0.9885
tp6566
a(S'day'
p6567
S'NN'
p6568
F0.9993
tp6569
a(S'is'
p6570
S'VBZ'
p6571
F0.99
tp6572
a(S'made'
p6573
S'VBD'
p6574
F0.4804
tp6575
ag42
tp6576
a((lp6577
(S'awe'
p6578
S'UH'
p6579
F0.9294
tp6580
a(S'man'
p6581
S'UH'
p6582
F0.9273
tp6583
a(S'that'
p6584
S'IN'
p6585
F0.5017
tp6586
a(S'sucks'
p6587
S'VBZ'
p6588
F0.9724
tp6589
a(g135
g23
F0.9918
tp6590
a(g270
S'PRP'
p6591
F0.9977
tp6592
a(S'guess'
p6593
S'VBP'
p6594
F0.9848
tp6595
a(S'it'
p6596
S'PRP'
p6597
F0.9986
tp6598
a(S'probably'
p6599
S'RB'
p6600
F0.9964
tp6601
a(S'just'
p6602
S'RB'
p6603
F0.9988
tp6604
a(S'is'
p6605
S'VBZ'
p6606
F0.9844
tp6607
a(S'Apple'
p6608
S'NNP'
p6609
F0.9816
tp6610
a(S'????'
p6611
g23
F0.9799
tp6612
ag123
tp6613
a((lp6614
(S'RT'
p6615
S'RT'
p6616
F0.9727
tp6617
a(S'(????????)'
p6618
S'UH'
p6619
F0.1436
tp6620
a(S'pinaka'
p6621
S'UH'
p6622
F0.4131
tp6623
a(S'the'
p6624
S'DT'
p6625
F0.9926
tp6626
a(S'best'
p6627
S'JJS'
p6628
F0.9666
tp6629
a(S'na'
p6630
S'NN'
p6631
F0.3428
tp6632
a(S'emoji'
p6633
S'NN'
p6634
F0.9009
tp6635
a(S'hahaha'
p6636
S'UH'
p6637
F0.7359
tp6638
a(S'good'
p6639
S'JJ'
p6640
F0.8891
tp6641
a(S'job'
p6642
S'NN'
p6643
F0.9648
tp6644
a(S'apple'
p6645
S'NN'
p6646
F0.6039
tp6647
a(S'haha'
p6648
S'UH'
p6649
F0.9359
tp6650
ag42
tp6651
a((lp6652
(S'mbp'
p6653
S'NN'
p6654
F0.4638
tp6655
a(S'is'
p6656
S'VBZ'
p6657
F0.9932
tp6658
a(S'good'
p6659
S'JJ'
p6660
F0.9692
tp6661
a(S'enough'
p6662
S'RB'
p6663
F0.8234
tp6664
ag42
tp6665
a((lp6666
(g270
S'PRP'
p6667
F0.9967
tp6668
a(S'am'
p6669
S'VBP'
p6670
F0.9711
tp6671
a(S'still'
p6672
S'RB'
p6673
F0.9921
tp6674
a(S'incredibly'
p6675
S'RB'
p6676
F0.9968
tp6677
a(S'undecided'
p6678
S'JJ'
p6679
F0.9426
tp6680
a(S'on'
p6681
S'IN'
p6682
F0.9986
tp6683
a(S'the'
p6684
S'DT'
p6685
F0.9707
tp6686
a(S'Apple'
p6687
S'NNP'
p6688
F0.9888
tp6689
a(S'TV'
p6690
S'NN'
p6691
F0.5885
tp6692
a(g23
g23
F0.995
tp6693
a(S'4K'
p6694
S'CD'
p6695
F0.9001
tp6696
a(S'really'
p6697
S'RB'
p6698
F0.9816
tp6699
a(S'does'
p6700
S'VBZ'
p6701
F0.8389
tp6702
a(S'it'
p6703
S'PRP'
p6704
F0.9966
tp6705
a(S'for'
p6706
S'IN'
p6707
F0.996
tp6708
a(S'me'
p6709
S'PRP'
p6710
F0.986
tp6711
a(g23
g23
F0.9909
tp6712
a(S'It'
p6713
S'PRP'
p6714
F0.9845
tp6715
a(g1080
g20
F0.1582
tp6716
a(S'should'
p6717
S'MD'
p6718
F0.9555
tp6719
a(g1080
S'VB'
p6720
F0.3768
tp6721
a(S'support'
p6722
S'VB'
p6723
F0.5195
tp6724
a(S'it'
p6725
S'PRP'
p6726
F0.9933
tp6727
a(g23
g23
F0.9918
tp6728
a(S'But'
p6729
S'CC'
p6730
F0.964
tp6731
a(S'doesn\xc3\xa2\xe2\x82\xac\xe2\x84\xa2t'
p6732
S'NN'
p6733
F0.2352
tp6734
a(g23
g23
F0.9923
tp6735
a(S'That'
p6736
S'DT'
p6737
F0.8442
tp6738
a(S'kinda'
p6739
S'RB'
p6740
F0.913
tp6741
a(S'sucks'
p6742
S'VBZ'
p6743
F0.8942
tp6744
a(g349
g349
F0.9823
tp6745
a(S'Apple'
p6746
S'NNP'
p6747
F0.9876
tp6748
a(g23
g23
F0.9961
tp6749
ag123
tp6750
a((lp6751
(S"That's"
p6752
S'DT'
p6753
F0.6049
tp6754
a(S'why'
p6755
S'WRB'
p6756
F0.9406
tp6757
a(g270
S'PRP'
p6758
F0.9982
tp6759
a(S'haaad'
p6760
S'VBD'
p6761
F0.9382
tp6762
a(S'to'
p6763
S'TO'
p6764
F0.9952
tp6765
a(S'wax'
p6766
S'VB'
p6767
F0.8816
tp6768
a(S'my'
p6769
S'PRP$'
p6770
F0.9976
tp6771
a(S'brows'
p6772
S'NNS'
p6773
F0.9001
tp6774
a(S'today'
p6775
S'NN'
p6776
F0.97
tp6777
a(S'lol'
p6778
S'UH'
p6779
F0.8896
tp6780
a(S'good'
p6781
S'JJ'
p6782
F0.906
tp6783
a(S'job'
p6784
S'NN'
p6785
F0.9438
tp6786
a(S'Apple'
p6787
S'NNP'
p6788
F0.9
tp6789
ag42
tp6790
a((lp6791
(S'RT'
p6792
S'RT'
p6793
F0.9652
tp6794
a(S'iOS'
p6795
S'NNP'
p6796
F0.844
tp6797
a(g3147
S'CD'
p6798
F0.9258
tp6799
a(S'has'
p6800
S'VBZ'
p6801
F0.9338
tp6802
a(S'made'
p6803
S'VBD'
p6804
F0.7004
tp6805
a(S'my'
p6806
S'PRP$'
p6807
F0.9922
tp6808
a(S'phone'
p6809
S'NN'
p6810
F0.9958
tp6811
a(S'10'
p6812
S'CD'
p6813
F0.996
tp6814
a(S'times'
p6815
S'NNS'
p6816
F0.9288
tp6817
a(S'worse'
p6818
S'JJ'
p6819
F0.6547
tp6820
a(g23
g23
F0.9918
tp6821
a(g270
S'PRP'
p6822
F0.9976
tp6823
a(S'guess'
p6824
S'VBP'
p6825
F0.9816
tp6826
a(S'Apple'
p6827
S'NNP'
p6828
F0.9357
tp6829
a(S"doesn't"
p6830
S'NN'
p6831
F0.3961
tp6832
a(S'have'
p6833
S'VB'
p6834
F0.9145
tp6835
a(g96
S'DT'
p6836
F0.993
tp6837
a(S'Twitter'
p6838
S'NNP'
p6839
F0.8122
tp6840
a(S'so'
p6841
S'RB'
p6842
F0.6887
tp6843
a(S"I'm"
p6844
S'PRP'
p6845
F0.8202
tp6846
a(S'tagging'
p6847
S'VBG'
p6848
F0.984
tp6849
a(S"it's"
p6850
S'PRP'
p6851
F0.714
tp6852
a(S'your'
p6853
S'PRP$'
p6854
F0.9786
tp6855
a(S'problem'
p6856
S'NN'
p6857
F0.9945
tp6858
a(S'now'
p6859
S'RB'
p6860
F0.9846
tp6861
a(g23
g23
F0.9967
tp6862
ag123
tp6863
a((lp6864
(S'the'
p6865
S'DT'
p6866
F0.9802
tp6867
a(S'new'
p6868
S'JJ'
p6869
F0.9134
tp6870
a(S'more'
p6871
S'RBR'
p6872
F0.6565
tp6873
a(S'yellow'
p6874
S'JJ'
p6875
F0.9048
tp6876
a(S'emojis'
p6877
S'NNS'
p6878
F0.9817
tp6879
a(S'look'
p6880
S'VBP'
p6881
F0.5927
tp6882
a(S'like'
p6883
S'IN'
p6884
F0.9508
tp6885
a(S'they'
p6886
S'PRP'
p6887
F0.9816
tp6888
a(S'have'
p6889
S'VBP'
p6890
F0.9618
tp6891
a(S'jaundice'
p6892
S'NN'
p6893
F0.8299
tp6894
a(g349
g349
F0.9918
tp6895
a(S'good'
p6896
S'JJ'
p6897
F0.9363
tp6898
a(S'job'
p6899
S'NN'
p6900
F0.9622
tp6901
a(S'apple'
p6902
S'NN'
p6903
F0.7789
tp6904
a(g23
g23
F0.9925
tp6905
a(S'????'
p6906
g23
F0.9496
tp6907
ag42
tp6908
a.