(lp0
((lp1
(S'ah'
p2
S'UH'
p3
F0.9927
tp4
a(S"it's"
p5
S'PRP'
p6
F0.6447
tp7
a(S'all'
p8
S'DT'
p9
F0.9842
tp10
a(S'good'
p11
S'JJ'
p12
F0.784
tp13
a(S','
p14
g14
F0.9898
tp15
a(S'hoping'
p16
S'VBG'
p17
F0.9471
tp18
a(S'it'
p19
S'PRP'
p20
F0.9973
tp21
a(S'holds'
p22
S'VBZ'
p23
F0.9898
tp24
a(S'out'
p25
S'RP'
p26
F0.8676
tp27
a(S'until'
p28
S'IN'
p29
F0.9936
tp30
a(S'next'
p31
S'JJ'
p32
F0.9251
tp33
a(S'September'
p34
S'NNP'
p35
F0.9723
tp36
a(g14
g14
F0.9879
tp37
a(S'fingers'
p38
S'NNS'
p39
F0.9811
tp40
a(S'crossed'
p41
S'VBD'
p42
F0.3622
tp43
a(S'they'
p44
S'PRP'
p45
F0.6667
tp46
a(S'release'
p47
S'VBP'
p48
F0.6449
tp49
a(S'the'
p50
S'DT'
p51
F0.9902
tp52
a(S"MBP's"
p53
S'NNS'
p54
F0.7883
tp55
a(S'with'
p56
S'IN'
p57
F0.9981
tp58
a(S'skylark'
p59
S'NNP'
p60
F0.8233
tp61
aS'1'
p62
tp63
a((lp64
(S'????????????????????????????????????????????????'
p65
S'.'
p66
F0.1146
tp67
a(S'this'
p68
S'DT'
p69
F0.9869
tp70
a(S'is'
p71
S'VBZ'
p72
F0.9901
tp73
a(S'what'
p74
S'WP'
p75
F0.9719
tp76
a(S"I've"
p77
S'PRP'
p78
F0.9461
tp79
a(S'been'
p80
S'VBN'
p81
F0.8536
tp82
a(S'wanting'
p83
S'VBG'
p84
F0.9806
tp85
a(S'the'
p86
S'DT'
p87
F0.9903
tp88
a(S'most'
p89
S'JJS'
p90
F0.72
tp91
a(S'from'
p92
S'IN'
p93
F0.9986
tp94
a(S'Apple'
p95
S'NNP'
p96
F0.9908
tp97
a(g66
g66
F0.9937
tp98
a(S'good'
p99
S'JJ'
p100
F0.9164
tp101
a(S'job'
p102
S'NN'
p103
F0.9814
tp104
ag62
tp105
a((lp106
(S'So'
p107
S'UH'
p108
F0.3916
tp109
a(S'my'
p110
S'PRP$'
p111
F0.9857
tp112
a(S'MacBook'
p113
S'NN'
p114
F0.5214
tp115
a(S'Pro'
p116
S'NNP'
p117
F0.568
tp118
a(S'fan'
p119
S'NN'
p120
F0.9035
tp121
a(S'is'
p122
S'VBZ'
p123
F0.9939
tp124
a(S'always'
p125
S'RB'
p126
F0.9933
tp127
a(S'really'
p128
S'RB'
p129
F0.996
tp130
a(S'loud'
p131
S'JJ'
p132
F0.8179
tp133
a(S'but'
p134
S'CC'
p135
F0.9898
tp136
a(S'I'
p137
S'PRP'
p138
F0.9968
tp139
a(S"can't"
p140
S'MD'
p141
F0.9369
tp142
a(S'tell'
p143
S'VB'
p144
F0.9968
tp145
a(S'if'
p146
S'IN'
p147
F0.9723
tp148
a(S"it's"
p149
S'PRP'
p150
F0.8435
tp151
a(S'dust'
p152
S'NN'
p153
F0.8473
tp154
a(S'or'
p155
S'CC'
p156
F0.9679
tp157
a(S'if'
p158
S'IN'
p159
F0.9817
tp160
a(g137
S'PRP'
p161
F0.9991
tp162
a(S'need'
p163
S'VBP'
p164
F0.9784
tp165
a(S'a'
p166
S'DT'
p167
F0.9936
tp168
a(S'new'
p169
S'JJ'
p170
F0.9966
tp171
a(S'fan'
p172
S'NN'
p173
F0.98
tp174
aS'0'
p175
tp176
a((lp177
(S'good'
p178
S'JJ'
p179
F0.7479
tp180
a(S'job'
p181
S'NN'
p182
F0.9308
tp183
a(S'apple'
p184
S'NN'
p185
F0.7273
tp186
a(S'????????????????????????????????????????????'
p187
g66
F0.3377
tp188
ag62
tp189
a((lp190
(S'My'
p191
S'PRP$'
p192
F0.9389
tp193
a(S'iPhone'
p194
S'NNP'
p195
F0.6486
tp196
a(S'can'
p197
S'MD'
p198
F0.9672
tp199
a(S'film'
p200
S'VB'
p201
F0.6425
tp202
a(S'40'
p203
S'CD'
p204
F0.9807
tp205
a(S'min'
p206
S'NN'
p207
F0.8958
tp208
a(S'of'
p209
S'IN'
p210
F0.9854
tp211
a(S'video'
p212
S'NN'
p213
F0.9923
tp214
a(S'before'
p215
S'IN'
p216
F0.9464
tp217
a(S'memory'
p218
S'NN'
p219
F0.9894
tp220
a(S'is'
p221
S'VBZ'
p222
F0.9947
tp223
a(S'full'
p224
S'JJ'
p225
F0.9531
tp226
a(g66
g66
F0.9919
tp227
a(S'But'
p228
S'CC'
p229
F0.9489
tp230
a(S'battery'
p231
S'NN'
p232
F0.9392
tp233
a(S'sucks'
p234
S'VBZ'
p235
F0.9687
tp236
a(S'so'
p237
S'RB'
p238
F0.931
tp239
a(S'much'
p240
S'RB'
p241
F0.8662
tp242
a(S'it'
p243
S'PRP'
p244
F0.9977
tp245
a(S'lasts'
p246
S'VBZ'
p247
F0.9689
tp248
a(S'for'
p249
S'IN'
p250
F0.9884
tp251
a(S'only'
p252
S'RB'
p253
F0.7243
tp254
a(S'10'
p255
S'CD'
p256
F0.9973
tp257
a(S'min'
p258
S'NN'
p259
F0.8904
tp260
a(g66
g66
F0.9955
tp261
a(S'Smart'
p262
S'JJ'
p263
F0.4898
tp264
a(S'ass'
p265
S'NN'
p266
F0.7555
tp267
a(S'Apple'
p268
S'NNP'
p269
F0.9351
tp270
a(S'manufacturers'
p271
S'NNS'
p272
F0.9349
tp273
a(S'.????'
p274
g66
F0.9641
tp275
ag175
tp276
a((lp277
(S'Good'
p278
S'JJ'
p279
F0.777
tp280
a(S'job'
p281
S'NN'
p282
F0.9891
tp283
a(S'guys'
p284
S'NNS'
p285
F0.9831
tp286
a(S'!'
p287
g66
F0.9955
tp288
a(S'Wouldn\xc3\xa2\xe2\x82\xac\xe2\x84\xa2t'
p289
S'NNP'
p290
F0.2521
tp291
a(S'use'
p292
S'VB'
p293
F0.5134
tp294
a(S'any'
p295
S'DT'
p296
F0.9576
tp297
a(S'other'
p298
S'JJ'
p299
F0.8728
tp300
a(S'bank'
p301
S'NN'
p302
F0.991
tp303
a(S':)'
p304
S'UH'
p305
F0.954
tp306
a(S'now'
p307
S'RB'
p308
F0.9695
tp309
a(S'just'
p310
S'RB'
p311
F0.9951
tp312
a(S'Apple'
p313
S'NNP'
p314
F0.9779
tp315
a(S'Pay'
p316
S'VB'
p317
F0.3178
tp318
a(S'to'
p319
S'TO'
p320
F0.9964
tp321
a(S'go'
p322
S'VB'
p323
F0.9938
tp324
a(S';)'
p325
S'UH'
p326
F0.9198
tp327
ag62
tp328
a((lp329
(S'Ok'
p330
S'UH'
p331
F0.916
tp332
a(S'so'
p333
S'RB'
p334
F0.5458
tp335
a(S'????????????'
p336
g66
F0.9225
tp337
a(S'and'
p338
S'CC'
p339
F0.9898
tp340
a(S'one'
p341
S'CD'
p342
F0.953
tp343
a(S'more'
p344
S'RBR'
p345
F0.5566
tp346
a(S'way'
p347
S'NN'
p348
F0.9046
tp349
a(S'to'
p350
S'TO'
p351
F0.994
tp352
a(S'say'
p353
S'VB'
p354
F0.9925
tp355
a(g137
S'PRP'
p356
F0.9979
tp357
a(S'\xc3\xa2\xc2\x9d\xc2\xa3'
p358
S'VBP'
p359
F0.7642
tp360
a(S'you'
p361
S'PRP'
p362
F0.9961
tp363
a(g66
g66
F0.9916
tp364
a(S'Good'
p365
S'JJ'
p366
F0.8114
tp367
a(S'job'
p368
S'NN'
p369
F0.9499
tp370
a(S'Apple'
p371
S'NNP'
p372
F0.86
tp373
a(S';)'
p374
S'UH'
p375
F0.9035
tp376
ag62
tp377
a((lp378
(S'Reasons'
p379
S'NNS'
p380
F0.9535
tp381
a(S'why'
p382
S'WRB'
p383
F0.9234
tp384
a(S'i'
p385
S'PRP'
p386
F0.9894
tp387
a(S'love'
p388
S'VBP'
p389
F0.993
tp390
a(S'my'
p391
S'PRP$'
p392
F0.9844
tp393
a(S'new'
p394
S'JJ'
p395
F0.9845
tp396
a(S'macbook'
p397
S'NN'
p398
F0.9591
tp399
a(S'pro'
p400
S'NN'
p401
F0.8393
tp402
a(S':'
p403
g403
F0.9608
tp404
a(S'battery'
p405
S'NN'
p406
F0.9224
tp407
a(S'life'
p408
S'NN'
p409
F0.9929
tp410
a(g14
g14
F0.9908
tp411
a(S'no'
p412
S'DT'
p413
F0.5838
tp414
a(S'overheating'
p415
S'NN'
p416
F0.6693
tp417
a(g14
g14
F0.9884
tp418
a(S'no'
p419
S'DT'
p420
F0.7131
tp421
a(S'loud'
p422
S'JJ'
p423
F0.8571
tp424
a(S'fan'
p425
S'NN'
p426
F0.9823
tp427
a(g14
g14
F0.9914
tp428
a(S'fast'
p429
S'JJ'
p430
F0.7466
tp431
a(S'processor'
p432
S'NN'
p433
F0.9846
tp434
a(S'????'
p435
g66
F0.9638
tp436
a(S'Now'
p437
S'RB'
p438
F0.9859
tp439
a(S'to'
p440
S'TO'
p441
F0.9976
tp442
a(S'make'
p443
S'VB'
p444
F0.9984
tp445
a(S'it'
p446
S'PRP'
p447
F0.9915
tp448
a(S'last'
p449
S'JJ'
p450
F0.8927
tp451
a(S'for'
p452
S'IN'
p453
F0.9987
tp454
a(S'the'
p455
S'DT'
p456
F0.9958
tp457
a(S'next'
p458
S'JJ'
p459
F0.9483
tp460
a(S'10+yrs'
p461
S'NNS'
p462
F0.5891
tp463
a(S'..'
p464
g403
F0.7984
tp465
ag62
tp466
a((lp467
(S'Wen'
p468
S'WRB'
p469
F0.881
tp470
a(g137
S'PRP'
p471
F0.9979
tp472
a(S'put'
p473
S'VBP'
p474
F0.5863
tp475
a(S'my'
p476
S'PRP$'
p477
F0.9929
tp478
a(S'charger'
p479
S'NN'
p480
F0.95
tp481
a(S'in'
p482
S'IN'
p483
F0.9956
tp484
a(S'the'
p485
S'DT'
p486
F0.9871
tp487
a(S'washing'
p488
S'NN'
p489
F0.8029
tp490
a(S'machine'
p491
S'NN'
p492
F0.9963
tp493
a(S'and'
p494
S'CC'
p495
F0.9929
tp496
a(S'it'
p497
S'PRP'
p498
F0.9975
tp499
a(S'still'
p500
S'RB'
p501
F0.9795
tp502
a(S'works'
p503
S'VBZ'
p504
F0.8456
tp505
a(S'????'
p506
g66
F0.9636
tp507
a(S'good'
p508
S'JJ'
p509
F0.9632
tp510
a(S'job'
p511
S'NN'
p512
F0.9678
tp513
a(S'apple'
p514
S'NN'
p515
F0.7141
tp516
ag62
tp517
a((lp518
(S'Apple'
p519
S'NNP'
p520
F0.9036
tp521
a(S'TV'
p522
S'NNP'
p523
F0.8267
tp524
a(S'2015'
p525
S'CD'
p526
F0.6965
tp527
a(S'review'
p528
S'NN'
p529
F0.9791
tp530
a(g403
g403
F0.9695
tp531
a(S'fast'
p532
S'RB'
p533
F0.6323
tp534
a(S'and'
p535
S'CC'
p536
F0.9898
tp537
a(S'easy'
p538
S'JJ'
p539
F0.9097
tp540
a(S'to'
p541
S'TO'
p542
F0.9954
tp543
a(S'navigate'
p544
S'VB'
p545
F0.9865
tp546
a(g14
g14
F0.9868
tp547
a(S'but'
p548
S'CC'
p549
F0.9939
tp550
a(S'keyboard'
p551
S'NN'
p552
F0.8972
tp553
a(S'worse'
p554
S'JJ'
p555
F0.3493
tp556
a(g14
g14
F0.9893
tp557
a(S'Siri'
p558
S'NNP'
p559
F0.9995
tp560
a(S'limited'
p561
S'JJ'
p562
F0.3843
tp563
a(g14
g14
F0.9885
tp564
a(S'feels'
p565
S'VBZ'
p566
F0.8515
tp567
a(S'like'
p568
S'IN'
p569
F0.7121
tp570
a(S'first'
p571
S'JJ'
p572
F0.9491
tp573
a(S'effort'
p574
S'NN'
p575
F0.9867
tp576
a(S'in'
p577
S'IN'
p578
F0.972
tp579
a(S'...'
p580
g403
F0.9903
tp581
ag175
tp582
a((lp583
(S'How'
p584
S'WRB'
p585
F0.9762
tp586
a(S'odd'
p587
S'JJ'
p588
F0.989
tp589
a(g66
g66
F0.9927
tp590
a(S"It's"
p591
S'PRP'
p592
F0.8478
tp593
a(S'really'
p594
S'RB'
p595
F0.9971
tp596
a(S'good'
p597
S'JJ'
p598
F0.9337
tp599
a(g66
g66
F0.9902
tp600
a(S"I'm"
p601
S'PRP'
p602
F0.7386
tp603
a(S'impressed'
p604
S'VBD'
p605
F0.6211
tp606
a(S'how'
p607
S'WRB'
p608
F0.9295
tp609
a(S'much'
p610
S'RB'
p611
F0.5978
tp612
a(S'faster'
p613
S'JJR'
p614
F0.6918
tp615
a(S'it'
p616
S'PRP'
p617
F0.9983
tp618
a(S'made'
p619
S'VBD'
p620
F0.9501
tp621
a(S'my'
p622
S'PRP$'
p623
F0.9644
tp624
a(S'2011'
p625
S'CD'
p626
F0.8766
tp627
a(S'MBP'
p628
S'NN'
p629
F0.4912
tp630
a(g66
g66
F0.995
tp631
ag62
tp632
a((lp633
(S'RT'
p634
S'RT'
p635
F0.9539
tp636
a(S'Apple'
p637
S'NNP'
p638
F0.9707
tp639
a(S'customer'
p640
S'NN'
p641
F0.9187
tp642
a(S'service'
p643
S'NN'
p644
F0.9813
tp645
a(S'sucks'
p646
S'VBZ'
p647
F0.967
tp648
a(S'..'
p649
g403
F0.9359
tp650
a(S'sticking'
p651
S'VBG'
p652
F0.9477
tp653
a(S'with'
p654
S'IN'
p655
F0.9984
tp656
a(S'my'
p657
S'PRP$'
p658
F0.9398
tp659
a(S'is'
p660
S'VBZ'
p661
F0.9937
tp662
a(S'the'
p663
S'DT'
p664
F0.9941
tp665
a(S'best'
p666
S'JJS'
p667
F0.9668
tp668
ag175
tp669
a((lp670
(S'Well'
p671
S'UH'
p672
F0.8559
tp673
a(S'shit'
p674
S'UH'
p675
F0.8403
tp676
a(g66
g66
F0.9738
tp677
a(S'This'
p678
S'DT'
p679
F0.9818
tp680
a(S'freaking'
p681
S'VBG'
p682
F0.3869
tp683
a(S'sucks'
p684
S'VBZ'
p685
F0.8464
tp686
a(g66
g66
F0.995
tp687
a(S'Looks'
p688
S'VBZ'
p689
F0.6499
tp690
a(S'like'
p691
S'IN'
p692
F0.7554
tp693
a(S"I'll"
p694
S'PRP'
p695
F0.8261
tp696
a(S'not'
p697
S'RB'
p698
F0.9934
tp699
a(S'be'
p700
S'VB'
p701
F0.9831
tp702
a(S'using'
p703
S'VBG'
p704
F0.9947
tp705
a(S'downloads'
p706
S'NN'
p707
F0.3924
tp708
a(S'from'
p709
S'IN'
p710
F0.9986
tp711
a(S'Apple'
p712
S'NNP'
p713
F0.9923
tp714
a(S'music'
p715
S'NN'
p716
F0.9766
tp717
a(S'in'
p718
S'IN'
p719
F0.9872
tp720
a(S'future'
p721
S'NN'
p722
F0.8087
tp723
a(S'broadcasts'
p724
S'NNS'
p725
F0.9808
tp726
a(g66
g66
F0.9967
tp727
ag175
tp728
a((lp729
(S'RT'
p730
S'RT'
p731
F0.9734
tp732
a(S'This'
p733
S'DT'
p734
F0.959
tp735
a(S'is'
p736
S'VBZ'
p737
F0.9908
tp738
a(S'one'
p739
S'CD'
p740
F0.9695
tp741
a(S'time'
p742
S'NN'
p743
F0.969
tp744
a(g137
S'PRP'
p745
F0.9901
tp746
a(S'actually'
p747
S'RB'
p748
F0.9932
tp749
a(S'approve'
p750
S'VB'
p751
F0.6309
tp752
a(S'of'
p753
S'IN'
p754
F0.9839
tp755
a(S'an'
p756
S'DT'
p757
F0.9564
tp758
a(S'update'
p759
S'NN'
p760
F0.9971
tp761
a(S'from'
p762
S'IN'
p763
F0.9987
tp764
a(S'Apple'
p765
S'NNP'
p766
F0.9979
tp767
a(S'Inc'
p768
S'NNP'
p769
F0.995
tp770
a(g14
g14
F0.9897
tp771
a(S'good'
p772
S'JJ'
p773
F0.9363
tp774
a(S'job'
p775
S'NN'
p776
F0.9876
tp777
a(S'with'
p778
S'IN'
p779
F0.9984
tp780
a(S'IOS'
p781
S'NNP'
p782
F0.9864
tp783
a(S'9.1'
p784
S'CD'
p785
F0.7478
tp786
ag62
tp787
a((lp788
(S'This'
p789
S'DT'
p790
F0.9925
tp791
a(S'emoji'
p792
S'NN'
p793
F0.9281
tp794
a(S'is'
p795
S'VBZ'
p796
F0.9935
tp797
a(S'my'
p798
S'PRP$'
p799
F0.9974
tp800
a(S'life'
p801
S'NN'
p802
F0.9968
tp803
a(g403
g403
F0.9487
tp804
a(S'????'
p805
g66
F0.9169
tp806
a(S'Good'
p807
S'JJ'
p808
F0.8719
tp809
a(S'job'
p810
S'NN'
p811
F0.9534
tp812
a(S'Apple'
p813
S'NNP'
p814
F0.8818
tp815
a(g66
g66
F0.9924
tp816
a(S'Good'
p817
S'JJ'
p818
F0.7856
tp819
a(S'job'
p820
S'NN'
p821
F0.9906
tp822
a(g66
g66
F0.9967
tp823
ag62
tp824
a((lp825
(S'Significantly'
p826
S'RB'
p827
F0.9191
tp828
a(S'faster'
p829
S'JJR'
p830
F0.7312
tp831
a(S'after'
p832
S'IN'
p833
F0.9813
tp834
a(S'upgrading'
p835
S'VBG'
p836
F0.9883
tp837
a(S'my'
p838
S'PRP$'
p839
F0.9965
tp840
a(S'MBP'
p841
S'NN'
p842
F0.6155
tp843
a(S'to'
p844
S'TO'
p845
F0.9801
tp846
a(S'El'
p847
S'NNP'
p848
F0.9725
tp849
a(S'Capitan'
p850
S'NNP'
p851
F0.9988
tp852
a(g66
g66
F0.992
tp853
a(S'Good'
p854
S'JJ'
p855
F0.8112
tp856
a(S'job'
p857
S'NN'
p858
F0.9592
tp859
a(S'#Apple'
p860
S'HT'
p861
F0.9503
tp862
ag62
tp863
a((lp864
(S'good'
p865
S'JJ'
p866
F0.7479
tp867
a(S'job'
p868
S'NN'
p869
F0.9146
tp870
a(S'Apple'
p871
S'NNP'
p872
F0.8664
tp873
a(g287
g66
F0.9869
tp874
a(S'my'
p875
S'PRP$'
p876
F0.9941
tp877
a(S'phone'
p878
S'NN'
p879
F0.9949
tp880
a(S'updated'
p881
S'VBD'
p882
F0.609
tp883
a(S'just'
p884
S'RB'
p885
F0.9994
tp886
a(S'fine'
p887
S'JJ'
p888
F0.9107
tp889
a(S'>:D'
p890
S'UH'
p891
F0.9668
tp892
ag62
tp893
a((lp894
(S'This'
p895
S'DT'
p896
F0.9925
tp897
a(S'emoji'
p898
S'NN'
p899
F0.9281
tp900
a(S'is'
p901
S'VBZ'
p902
F0.9908
tp903
a(S'about'
p904
S'IN'
p905
F0.7486
tp906
a(S'to'
p907
S'TO'
p908
F0.9952
tp909
a(S'be'
p910
S'VB'
p911
F0.9986
tp912
a(S'taken'
p913
S'VBN'
p914
F0.9223
tp915
a(S'and'
p916
S'CC'
p917
F0.9921
tp918
a(S'run'
p919
S'VB'
p920
F0.8095
tp921
a(S'with'
p922
S'IN'
p923
F0.9879
tp924
a(g66
g66
F0.9904
tp925
a(S'Good'
p926
S'JJ'
p927
F0.8114
tp928
a(S'job'
p929
S'NN'
p930
F0.993
tp931
a(g14
g14
F0.9871
tp932
a(S'Apple'
p933
S'NNP'
p934
F0.9856
tp935
a(g66
g66
F0.9961
tp936
ag62
tp937
a((lp938
(S"Apple's"
p939
S'NNP'
p940
F0.9377
tp941
a(S'battery'
p942
S'NN'
p943
F0.8288
tp944
a(S'life'
p945
S'NN'
p946
F0.9934
tp947
a(S'seriously'
p948
S'RB'
p949
F0.9879
tp950
a(S'sucks'
p951
S'VBZ'
p952
F0.9151
tp953
a(S'..'
p954
g403
F0.9361
tp955
a(S'Seriously'
p956
S'RB'
p957
F0.8943
tp958
a(S'..'
p959
g403
F0.9492
tp960
a(S'May'
p961
S'MD'
p962
F0.6376
tp963
a(S'low'
p964
S'JJ'
p965
F0.9336
tp966
a(S'power'
p967
S'NN'
p968
F0.9894
tp969
a(S'mode'
p970
S'NN'
p971
F0.9895
tp972
a(S'pa'
p973
S'NN'
p974
F0.7197
tp975
a(S'kayong'
p976
S'NN'
p977
F0.4823
tp978
a(S'nalalaman'
p979
S'NN'
p980
F0.3831
tp981
a(S'ha'
p982
S'UH'
p983
F0.9712
tp984
ag175
tp985
a((lp986
(S'Apple'
p987
S'NNP'
p988
F0.8508
tp989
a(S'is'
p990
S'VBZ'
p991
F0.9942
tp992
a(S'worse'
p993
S'JJ'
p994
F0.6556
tp995
a(S'...'
p996
g403
F0.9947
tp997
a(S'and'
p998
S'CC'
p999
F0.994
tp1000
a(S'the'
p1001
S'DT'
p1002
F0.9954
tp1003
a(S'updates'
p1004
S'NNS'
p1005
F0.9825
tp1006
a(S'are'
p1007
S'VBP'
p1008
F0.9725
tp1009
a(S'massive'
p1010
S'JJ'
p1011
F0.9751
tp1012
a(S'...'
p1013
g403
F0.9971
tp1014
a(S'these'
p1015
S'DT'
p1016
F0.9871
tp1017
a(S'smart'
p1018
S'JJ'
p1019
F0.8938
tp1020
a(S'phones'
p1021
S'NNS'
p1022
F0.8904
tp1023
a(S'sold'
p1024
S'VBD'
p1025
F0.8351
tp1026
a(S'us'
p1027
S'PRP'
p1028
F0.7095
tp1029
a(S'dreams'
p1030
S'NNS'
p1031
F0.9224
tp1032
a(S'...'
p1033
g403
F0.9963
tp1034
a(S'mxm'
p1035
S'UH'
p1036
F0.8125
tp1037
a(g287
g66
F0.975
tp1038
ag175
tp1039
a((lp1040
(S'MBP'
p1041
S'NNP'
p1042
F0.4731
tp1043
a(S'...'
p1044
g403
F0.9974
tp1045
a(S'always'
p1046
S'RB'
p1047
F0.9833
tp1048
a(g166
S'DT'
p1049
F0.9924
tp1050
a(S'good'
p1051
S'JJ'
p1052
F0.9837
tp1053
a(S'sign'
p1054
S'NN'
p1055
F0.9291
tp1056
a(S'when'
p1057
S'WRB'
p1058
F0.9841
tp1059
a(S'starting'
p1060
S'VBG'
p1061
F0.961
tp1062
a(g166
S'DT'
p1063
F0.9914
tp1064
a(S'new'
p1065
S'JJ'
p1066
F0.9932
tp1067
a(S'position'
p1068
S'NN'
p1069
F0.9976
tp1070
a(g66
g66
F0.9925
tp1071
a(S'Bel'
p1072
S'NNP'
p1073
F0.8974
tp1074
a(S'Air'
p1075
S'NNP'
p1076
F0.9934
tp1077
a(S'Church'
p1078
S'NNP'
p1079
F0.9879
tp1080
ag62
tp1081
a((lp1082
(S'Apple'
p1083
S'NNP'
p1084
F0.8386
tp1085
a(S'products'
p1086
S'NNS'
p1087
F0.8085
tp1088
a(S'sucks'
p1089
S'VBZ'
p1090
F0.9676
tp1091
a(S'bc'
p1092
S'IN'
p1093
F0.6738
tp1094
a(S'of'
p1095
S'IN'
p1096
F0.9631
tp1097
a(S'battery'
p1098
S'NN'
p1099
F0.9207
tp1100
a(S'life'
p1101
S'NN'
p1102
F0.9916
tp1103
a(S'????????'
p1104
g66
F0.975
tp1105
ag175
tp1106
a((lp1107
(S'you'
p1108
S'PRP'
p1109
F0.9993
tp1110
a(S'have'
p1111
S'VBP'
p1112
F0.9923
tp1113
a(S'to'
p1114
S'TO'
p1115
F0.9975
tp1116
a(S'jailbreak'
p1117
S'VB'
p1118
F0.9567
tp1119
a(S'and'
p1120
S'CC'
p1121
F0.9936
tp1122
a(S'get'
p1123
S'VB'
p1124
F0.9373
tp1125
a(S'rid'
p1126
S'JJ'
p1127
F0.8429
tp1128
a(S'of'
p1129
S'IN'
p1130
F0.9871
tp1131
a(S'all'
p1132
S'DT'
p1133
F0.9846
tp1134
a(S'the'
p1135
S'DT'
p1136
F0.9899
tp1137
a(S'stupid'
p1138
S'JJ'
p1139
F0.8928
tp1140
a(S'blurs'
p1141
S'VBZ'
p1142
F0.5493
tp1143
a(S'in'
p1144
S'IN'
p1145
F0.9803
tp1146
a(S'iOS'
p1147
S'NNP'
p1148
F0.9274
tp1149
a(S'9'
p1150
S'CD'
p1151
F0.9763
tp1152
a(S'to'
p1153
S'TO'
p1154
F0.9968
tp1155
a(S'make'
p1156
S'VB'
p1157
F0.9984
tp1158
a(S'it'
p1159
S'PRP'
p1160
F0.9939
tp1161
a(S'fast'
p1162
S'RB'
p1163
F0.6657
tp1164
a(S'again'
p1165
S'RB'
p1166
F0.9629
tp1167
a(g66
g66
F0.9917
tp1168
a(S'Apple'
p1169
S'NNP'
p1170
F0.9163
tp1171
a(S'sucks'
p1172
S'VBZ'
p1173
F0.969
tp1174
a(S'so'
p1175
S'RB'
p1176
F0.6939
tp1177
a(S'fucking'
p1178
S'RB'
p1179
F0.7899
tp1180
a(S'much'
p1181
S'RB'
p1182
F0.8077
tp1183
ag175
tp1184
a((lp1185
(S"let's"
p1186
S'PRP'
p1187
F0.2142
tp1188
a(S'be'
p1189
S'VB'
p1190
F0.9934
tp1191
a(S'honest'
p1192
S'JJ'
p1193
F0.4724
tp1194
a(g14
g14
F0.9899
tp1195
a(S'the'
p1196
S'DT'
p1197
F0.9887
tp1198
a(S'apple'
p1199
S'NN'
p1200
F0.6562
tp1201
a(S'music'
p1202
S'NN'
p1203
F0.9935
tp1204
a(S'app'
p1205
S'NN'
p1206
F0.9118
tp1207
a(S'sucks'
p1208
S'VBZ'
p1209
F0.9465
tp1210
ag175
tp1211
a((lp1212
(g137
S'PRP'
p1213
F0.992
tp1214
a(S'just'
p1215
S'RB'
p1216
F0.9969
tp1217
a(S'noticed'
p1218
S'VBD'
p1219
F0.7772
tp1220
a(S'the'
p1221
S'DT'
p1222
F0.9945
tp1223
a(S'same'
p1224
S'JJ'
p1225
F0.9457
tp1226
a(S'sex'
p1227
S'NN'
p1228
F0.9776
tp1229
a(S'parent'
p1230
S'NN'
p1231
F0.9928
tp1232
a(S'emojis'
p1233
S'NNS'
p1234
F0.9666
tp1235
a(g66
g66
F0.9928
tp1236
a(S'Good'
p1237
S'JJ'
p1238
F0.8114
tp1239
a(S'job'
p1240
S'NN'
p1241
F0.9534
tp1242
a(S'Apple'
p1243
S'NNP'
p1244
F0.897
tp1245
a(S'good'
p1246
S'JJ'
p1247
F0.9366
tp1248
a(S'job'
p1249
S'NN'
p1250
F0.9856
tp1251
a(S'????'
p1252
g66
F0.9827
tp1253
ag62
tp1254
a((lp1255
(S'why'
p1256
S'WRB'
p1257
F0.9591
tp1258
a(S"can't"
p1259
S'MD'
p1260
F0.7594
tp1261
a(S'we'
p1262
S'PRP'
p1263
F0.9721
tp1264
a(S'buy'
p1265
S'VBP'
p1266
F0.8787
tp1267
a(S'books'
p1268
S'NNS'
p1269
F0.9571
tp1270
a(S'on'
p1271
S'IN'
p1272
F0.9968
tp1273
a(S'ipad'
p1274
S'NN'
p1275
F0.4485
tp1276
a(S'?'
p1277
g66
F0.9904
tp1278
a(S'Apple'
p1279
S'NNP'
p1280
F0.8521
tp1281
a(S'sucks'
p1282
S'VBZ'
p1283
F0.945
tp1284
a(g14
g14
F0.9869
tp1285
a(S'that'
p1286
S'DT'
p1287
F0.5991
tp1288
a(S'is'
p1289
S'VBZ'
p1290
F0.9975
tp1291
a(S'why'
p1292
S'WRB'
p1293
F0.9138
tp1294
a(g66
g66
F0.9943
tp1295
ag175
tp1296
a((lp1297
(S'After'
p1298
S'IN'
p1299
F0.9838
tp1300
a(S'the'
p1301
S'DT'
p1302
F0.9875
tp1303
a(S'update'
p1304
S'NN'
p1305
F0.936
tp1306
a(S'my'
p1307
S'PRP$'
p1308
F0.9867
tp1309
a(S'MBP'
p1310
S'NN'
p1311
F0.5366
tp1312
a(S'('
p1313
S'-LRB-'
p1314
F0.9249
tp1315
a(S'mid-2012'
p1316
S'JJ'
p1317
F0.9686
tp1318
a(S'Retina'
p1319
S'NN'
p1320
F0.7326
tp1321
a(S')'
p1322
S'-RRB-'
p1323
F0.9413
tp1324
a(S'actually'
p1325
S'RB'
p1326
F0.9956
tp1327
a(S'got'
p1328
S'VBD'
p1329
F0.7744
tp1330
a(S'faster'
p1331
S'JJR'
p1332
F0.7817
tp1333
a(S'and'
p1334
S'CC'
p1335
F0.9913
tp1336
a(S'snappier'
p1337
S'JJR'
p1338
F0.682
tp1339
a(g287
g66
F0.9881
tp1340
a(S"Can't"
p1341
S'MD'
p1342
F0.8795
tp1343
a(S'believe'
p1344
S'VB'
p1345
F0.9973
tp1346
a(S'it'
p1347
S'PRP'
p1348
F0.997
tp1349
a(g66
g66
F0.9928
tp1350
a(S'Very'
p1351
S'RB'
p1352
F0.9807
tp1353
a(S'good'
p1354
S'JJ'
p1355
F0.951
tp1356
a(S'upgrade'
p1357
S'NN'
p1358
F0.8931
tp1359
a(g287
g66
F0.9959
tp1360
ag62
tp1361
a((lp1362
(S'RT'
p1363
S'RT'
p1364
F0.9635
tp1365
a(S'Much'
p1366
S'RB'
p1367
F0.7033
tp1368
a(S'worse'
p1369
S'JJ'
p1370
F0.5731
tp1371
a(g403
g403
F0.9645
tp1372
a(S'requests'
p1373
S'NNS'
p1374
F0.9911
tp1375
a(S'to'
p1376
S'TO'
p1377
F0.9957
tp1378
a(S'play'
p1379
S'VB'
p1380
F0.9977
tp1381
a(S'music'
p1382
S'NN'
p1383
F0.9941
tp1384
a(S'default'
p1385
S'NN'
p1386
F0.97
tp1387
a(S'to'
p1388
S'TO'
p1389
F0.9757
tp1390
a(S'Apple'
p1391
S'NNP'
p1392
F0.9881
tp1393
a(S'Music'
p1394
S'NNP'
p1395
F0.5241
tp1396
a(S'even'
p1397
S'RB'
p1398
F0.9863
tp1399
a(S'if'
p1400
S'IN'
p1401
F0.992
tp1402
a(S'you'
p1403
S'PRP'
p1404
F0.9997
tp1405
a(S'have'
p1406
S'VBP'
p1407
F0.9794
tp1408
a(S'the'
p1409
S'DT'
p1410
F0.9962
tp1411
a(S'music'
p1412
S'NN'
p1413
F0.9922
tp1414
a(S'in'
p1415
S'IN'
p1416
F0.9935
tp1417
a(S'your'
p1418
S'PRP$'
p1419
F0.9734
tp1420
a(S'library'
p1421
S'NN'
p1422
F0.9953
tp1423
a(g66
g66
F0.996
tp1424
ag175
tp1425
a((lp1426
(g137
S'PRP'
p1427
F0.9967
tp1428
a(S'feel'
p1429
S'VBP'
p1430
F0.827
tp1431
a(S'complete'
p1432
S'JJ'
p1433
F0.9006
tp1434
a(S'there'
p1435
S'RB'
p1436
F0.5352
tp1437
a(S'is'
p1438
S'VBZ'
p1439
F0.9939
tp1440
a(S'now'
p1441
S'RB'
p1442
F0.9896
tp1443
a(g166
S'DT'
p1444
F0.9933
tp1445
a(S'middle'
p1446
S'NN'
p1447
F0.9722
tp1448
a(S'finger'
p1449
S'NN'
p1450
F0.982
tp1451
a(S'and'
p1452
S'CC'
p1453
F0.9898
tp1454
a(S'unicorn'
p1455
S'NN'
p1456
F0.499
tp1457
a(S'emoji'
p1458
S'NN'
p1459
F0.881
tp1460
a(g66
g66
F0.993
tp1461
a(S'Good'
p1462
S'JJ'
p1463
F0.8114
tp1464
a(S'job'
p1465
S'NN'
p1466
F0.9499
tp1467
a(S'Apple'
p1468
S'NNP'
p1469
F0.8546
tp1470
a(S'????????????'
p1471
g66
F0.9736
tp1472
ag62
tp1473
a((lp1474
(S'Hey'
p1475
S'UH'
p1476
F0.9479
tp1477
a(S'APPLE'
p1478
S'NNP'
p1479
F0.8796
tp1480
a(S'-'
p1481
g403
F0.9873
tp1482
a(S'El'
p1483
S'NNP'
p1484
F0.9646
tp1485
a(S'Capitan'
p1486
S'NNP'
p1487
F0.9993
tp1488
a(S'SUCKS'
p1489
S'VBZ'
p1490
F0.807
tp1491
a(g1481
g403
F0.9599
tp1492
a(S'thanks'
p1493
S'UH'
p1494
F0.7907
tp1495
ag175
tp1496
a((lp1497
(S'This'
p1498
S'DT'
p1499
F0.9635
tp1500
a(S'sucks'
p1501
S'VBZ'
p1502
F0.8575
tp1503
a(g66
g66
F0.9939
tp1504
a(S'Rather'
p1505
S'RB'
p1506
F0.991
tp1507
a(S'have'
p1508
S'VB'
p1509
F0.7584
tp1510
a(S'the'
p1511
S'DT'
p1512
F0.995
tp1513
a(S'gym'
p1514
S'NN'
p1515
F0.9546
tp1516
a(S'than'
p1517
S'IN'
p1518
F0.9934
tp1519
a(S'another'
p1520
S'DT'
p1521
F0.9911
tp1522
a(S'apple'
p1523
S'NN'
p1524
F0.7929
tp1525
a(S'store'
p1526
S'NN'
p1527
F0.9747
tp1528
a(g66
g66
F0.9969
tp1529
ag175
tp1530
a((lp1531
(S'Worse'
p1532
S'JJR'
p1533
F0.3421
tp1534
a(g403
g403
F0.9784
tp1535
a(S'they'
p1536
S'PRP'
p1537
F0.9562
tp1538
a(S'employ'
p1539
S'VBP'
p1540
F0.876
tp1541
a(S'the'
p1542
S'DT'
p1543
F0.9857
tp1544
a(S'"'
p1545
S"''"
p1546
F0.9784
tp1547
a(S'god'
p1548
S'NNP'
p1549
F0.6677
tp1550
a(S'moves'
p1551
S'VBZ'
p1552
F0.9079
tp1553
a(S'in'
p1554
S'IN'
p1555
F0.9804
tp1556
a(S'mysterious'
p1557
S'JJ'
p1558
F0.8881
tp1559
a(S'ways'
p1560
S'NNS'
p1561
F0.9352
tp1562
a(g1545
S"''"
p1563
F0.9835
tp1564
a(S'argument'
p1565
S'NN'
p1566
F0.9831
tp1567
a(S'and'
p1568
S'CC'
p1569
F0.9943
tp1570
a(S'just'
p1571
S'RB'
p1572
F0.9981
tp1573
a(S'blindingly'
p1574
S'RB'
p1575
F0.8061
tp1576
a(S'accept'
p1577
S'VB'
p1578
F0.4674
tp1579
a(S'this'
p1580
S'DT'
p1581
F0.9846
tp1582
a(S'is'
p1583
S'VBZ'
p1584
F0.99
tp1585
a(S'how'
p1586
S'WRB'
p1587
F0.9559
tp1588
a(S'Apple'
p1589
S'NNP'
p1590
F0.9603
tp1591
a(S'intends'
p1592
S'VBZ'
p1593
F0.9412
tp1594
a(S'it'
p1595
S'PRP'
p1596
F0.9954
tp1597
a(g14
g14
F0.9901
tp1598
a(S'for'
p1599
S'IN'
p1600
F0.9605
tp1601
a(S'better'
p1602
S'JJR'
p1603
F0.5337
tp1604
a(S'or'
p1605
S'CC'
p1606
F0.976
tp1607
a(S'worse'
p1608
S'JJ'
p1609
F0.5013
tp1610
a(g66
g66
F0.995
tp1611
ag175
tp1612
a((lp1613
(S'Including'
p1614
S'VBG'
p1615
F0.855
tp1616
a(S'new'
p1617
S'JJ'
p1618
F0.9894
tp1619
a(S'emojis'
p1620
S'NNS'
p1621
F0.9702
tp1622
a(S'is'
p1623
S'VBZ'
p1624
F0.9883
tp1625
a(g166
S'DT'
p1626
F0.9932
tp1627
a(S'great'
p1628
S'JJ'
p1629
F0.9962
tp1630
a(S'way'
p1631
S'NN'
p1632
F0.9194
tp1633
a(S'to'
p1634
S'TO'
p1635
F0.9965
tp1636
a(S'get'
p1637
S'VB'
p1638
F0.9977
tp1639
a(S'the'
p1640
S'DT'
p1641
F0.9879
tp1642
a(S'tech-illiterate'
p1643
S'JJ'
p1644
F0.5914
tp1645
a(S'to'
p1646
S'TO'
p1647
F0.9947
tp1648
a(S'be'
p1649
S'VB'
p1650
F0.999
tp1651
a(S'on'
p1652
S'IN'
p1653
F0.9861
tp1654
a(S'the'
p1655
S'DT'
p1656
F0.9932
tp1657
a(S'newest'
p1658
S'JJS'
p1659
F0.6284
tp1660
a(g1313
S'-LRB-'
p1661
F0.9201
tp1662
a(S'and'
p1663
S'CC'
p1664
F0.9919
tp1665
a(S'most'
p1666
S'JJS'
p1667
F0.6688
tp1668
a(S'secure'
p1669
S'JJ'
p1670
F0.3934
tp1671
a(g1322
S'-RRB-'
p1672
F0.9398
tp1673
a(S'OS'
p1674
S'NNP'
p1675
F0.6243
tp1676
a(g66
g66
F0.9925
tp1677
a(S'Good'
p1678
S'JJ'
p1679
F0.8114
tp1680
a(S'job'
p1681
S'NN'
p1682
F0.9592
tp1683
a(S'Apple'
p1684
S'NNP'
p1685
F0.8605
tp1686
a(g66
g66
F0.9958
tp1687
ag62
tp1688
a((lp1689
(S'RT'
p1690
S'RT'
p1691
F0.9751
tp1692
a(S'the'
p1693
S'DT'
p1694
F0.9939
tp1695
a(S'apple'
p1696
S'NN'
p1697
F0.6333
tp1698
a(S'music'
p1699
S'NN'
p1700
F0.9916
tp1701
a(S'sucks'
p1702
S'VBZ'
p1703
F0.946
tp1704
a(g14
g14
F0.9851
tp1705
a(S'sorry'
p1706
S'JJ'
p1707
F0.7895
tp1708
a(g66
g66
F0.9907
tp1709
ag175
tp1710
a((lp1711
(S'Middle'
p1712
S'NN'
p1713
F0.3826
tp1714
a(S'finger'
p1715
S'NN'
p1716
F0.9927
tp1717
a(S'emoji'
p1718
S'NN'
p1719
F0.676
tp1720
a(S'plus'
p1721
S'IN'
p1722
F0.3807
tp1723
a(g166
S'DT'
p1724
F0.9946
tp1725
a(S'unicorn'
p1726
S'NN'
p1727
F0.9697
tp1728
a(g14
g14
F0.9923
tp1729
a(S'good'
p1730
S'JJ'
p1731
F0.9363
tp1732
a(S'job'
p1733
S'NN'
p1734
F0.9367
tp1735
a(S'Apple'
p1736
S'NNP'
p1737
F0.8399
tp1738
a(S'????????????'
p1739
g66
F0.9738
tp1740
ag62
tp1741
a((lp1742
(S'this'
p1743
S'DT'
p1744
F0.9773
tp1745
a(S'is'
p1746
S'VBZ'
p1747
F0.9903
tp1748
a(S'definitely'
p1749
S'RB'
p1750
F0.9987
tp1751
a(S'how'
p1752
S'WRB'
p1753
F0.968
tp1754
a(S'Apple'
p1755
S'NNP'
p1756
F0.9647
tp1757
a(S'would'
p1758
S'MD'
p1759
F0.9601
tp1760
a(S'present'
p1761
S'VB'
p1762
F0.9414
tp1763
a(S'their'
p1764
S'PRP$'
p1765
F0.9462
tp1766
a(S'burgers'
p1767
S'NNS'
p1768
F0.8434
tp1769
a(g14
g14
F0.989
tp1770
a(S'good'
p1771
S'JJ'
p1772
F0.9363
tp1773
a(S'job'
p1774
S'NN'
p1775
F0.9929
tp1776
a(S':)'
p1777
S'UH'
p1778
F0.9973
tp1779
a(g287
g66
F0.9844
tp1780
ag62
tp1781
a((lp1782
(S'apple'
p1783
S'NNP'
p1784
F0.7966
tp1785
a(S'sucks'
p1786
S'VBZ'
p1787
F0.9617
tp1788
a(g14
g14
F0.988
tp1789
a(S'overrated'
p1790
S'JJ'
p1791
F0.489
tp1792
a(S'and'
p1793
S'CC'
p1794
F0.9857
tp1795
a(S'overhyped'
p1796
S'JJ'
p1797
F0.6944
tp1798
a(S'!!!'
p1799
g66
F0.9927
tp1800
ag175
tp1801
a((lp1802
(S'Good'
p1803
S'JJ'
p1804
F0.7659
tp1805
a(S'job'
p1806
S'NN'
p1807
F0.9488
tp1808
a(S'apple'
p1809
S'NN'
p1810
F0.6959
tp1811
ag62
tp1812
a((lp1813
(S'New'
p1814
S'NNP'
p1815
F0.5158
tp1816
a(S'Apple'
p1817
S'NNP'
p1818
F0.9992
tp1819
a(S'Mouse'
p1820
S'NNP'
p1821
F0.9221
tp1822
a(S'*'
p1823
g403
F0.1939
tp1824
a(S'feels'
p1825
S'VBZ'
p1826
F0.8393
tp1827
a(g1823
S"''"
p1828
F0.1836
tp1829
a(S'really'
p1830
S'RB'
p1831
F0.9903
tp1832
a(S'good'
p1833
S'JJ'
p1834
F0.9705
tp1835
a(S'in'
p1836
S'IN'
p1837
F0.9942
tp1838
a(g166
S'DT'
p1839
F0.9963
tp1840
a(S'hand'
p1841
S'NN'
p1842
F0.9926
tp1843
a(g66
g66
F0.9949
tp1844
a(S'And'
p1845
S'CC'
p1846
F0.9839
tp1847
a(S'new'
p1848
S'JJ'
p1849
F0.984
tp1850
a(S'pairing'
p1851
S'NN'
p1852
F0.9815
tp1853
a(S'process'
p1854
S'NN'
p1855
F0.9495
tp1856
a(S'is'
p1857
S'VBZ'
p1858
F0.9946
tp1859
a(S'super'
p1860
S'RB'
p1861
F0.5038
tp1862
a(S'easy'
p1863
S'JJ'
p1864
F0.9359
tp1865
a(g66
g66
F0.992
tp1866
a(S'Good'
p1867
S'JJ'
p1868
F0.7821
tp1869
a(S'job'
p1870
S'NN'
p1871
F0.9911
tp1872
a(g287
g66
F0.9974
tp1873
ag62
tp1874
a((lp1875
(S'Yesss'
p1876
S'UH'
p1877
F0.9493
tp1878
a(S'the'
p1879
S'DT'
p1880
F0.991
tp1881
a(S'new'
p1882
S'JJ'
p1883
F0.9721
tp1884
a(S'emojis'
p1885
S'NNS'
p1886
F0.9844
tp1887
a(S'are'
p1888
S'VBP'
p1889
F0.9763
tp1890
a(S'awesome'
p1891
S'JJ'
p1892
F0.9895
tp1893
a(S'good'
p1894
S'JJ'
p1895
F0.9652
tp1896
a(S'job'
p1897
S'NN'
p1898
F0.9406
tp1899
a(S'Apple'
p1900
S'NNP'
p1901
F0.8797
tp1902
ag62
tp1903
a((lp1904
(S'RT'
p1905
S'RT'
p1906
F0.9684
tp1907
a(S'????'
p1908
g66
F0.873
tp1909
a(S'Apple'
p1910
S'NNP'
p1911
F0.9531
tp1912
a(S'approved'
p1913
S'VBD'
p1914
F0.6403
tp1915
a(S'my'
p1916
S'PRP$'
p1917
F0.9935
tp1918
a(S'tvOS/iOS'
p1919
S'NNP'
p1920
F0.7164
tp1921
a(S'game'
p1922
S'NN'
p1923
F0.9451
tp1924
a(g66
g66
F0.9941
tp1925
a(S'One'
p1926
S'CD'
p1927
F0.9397
tp1928
a(S'code'
p1929
S'NN'
p1930
F0.9878
tp1931
a(S'base'
p1932
S'NN'
p1933
F0.9365
tp1934
a(S'and'
p1935
S'CC'
p1936
F0.9895
tp1937
a(S'one'
p1938
S'CD'
p1939
F0.9728
tp1940
a(S'purchase'
p1941
S'NN'
p1942
F0.8628
tp1943
a(S'runs'
p1944
S'VBZ'
p1945
F0.8287
tp1946
a(S'on'
p1947
S'IN'
p1948
F0.9658
tp1949
a(S'all'
p1950
S'DT'
p1951
F0.9954
tp1952
a(S'devices'
p1953
S'NNS'
p1954
F0.9385
tp1955
a(S'\xc3\xa2\xe2\x82\xac'
p1956
S'IN'
p1957
F0.1851
tp1958
a(S'\xe2\x80\x9c'
p1959
S"''"
p1960
F0.4048
tp1961
a(S'good'
p1962
S'JJ'
p1963
F0.9552
tp1964
a(S'job'
p1965
S'NN'
p1966
F0.9888
tp1967
a(g14
g14
F0.9871
tp1968
a(S'Apple'
p1969
S'NNP'
p1970
F0.9809
tp1971
a(g287
g66
F0.9872
tp1972
a(S'Any'
p1973
S'DT'
p1974
F0.8909
tp1975
a(S'journalists'
p1976
S'NNS'
p1977
F0.979
tp1978
a(S'wan\xc3\xa2\xe2\x82\xac\xc2\xa6'
p1979
S'RB'
p1980
F0.1451
tp1981
ag62
tp1982
a((lp1983
(g1313
S'-LRB-'
p1984
F0.8888
tp1985
a(S'And'
p1986
S'CC'
p1987
F0.9593
tp1988
a(S'that\xc3\xa2\xe2\x82\xac\xe2\x84\xa2ll'
p1989
S'DT'
p1990
F0.2215
tp1991
a(S'be'
p1992
S'VB'
p1993
F0.9385
tp1994
a(S'the'
p1995
S'DT'
p1996
F0.9873
tp1997
a(S'only'
p1998
S'JJ'
p1999
F0.8813
tp2000
a(S'time'
p2001
S'NN'
p2002
F0.9624
tp2003
a(g137
S'PRP'
p2004
F0.982
tp2005
a(S'praise'
p2006
S'VBP'
p2007
F0.9662
tp2008
a(S'Apple'
p2009
S'NNP'
p2010
F0.963
tp2011
a(S'for'
p2012
S'IN'
p2013
F0.981
tp2014
a(S'improved'
p2015
S'VBD'
p2016
F0.526
tp2017
a(S'functionality'
p2018
S'NN'
p2019
F0.2543
tp2020
a(g66
g66
F0.9906
tp2021
a(S'iTunes'
p2022
S'NNP'
p2023
F0.5416
tp2024
a(S'still'
p2025
S'RB'
p2026
F0.9864
tp2027
a(S'SUCKS'
p2028
S'VBZ'
p2029
F0.912
tp2030
a(S'ARSE'
p2031
S'NN'
p2032
F0.5971
tp2033
a(g66
g66
F0.9875
tp2034
a(g1322
S'-RRB-'
p2035
F0.8676
tp2036
ag175
tp2037
a((lp2038
(S'APPLE'
p2039
S'NNP'
p2040
F0.9493
tp2041
a(S'WATCH'
p2042
S'VBP'
p2043
F0.3126
tp2044
a(S'SUCKS'
p2045
S'VBZ'
p2046
F0.6227
tp2047
a(g1481
g403
F0.9456
tp2048
ag175
tp2049
a((lp2050
(S'w/'
p2051
S'IN'
p2052
F0.6089
tp2053
a(S'apple'
p2054
S'NNP'
p2055
F0.5262
tp2056
a(S'computers'
p2057
S'NNS'
p2058
F0.9385
tp2059
a(g14
g14
F0.9907
tp2060
a(S'USB'
p2061
S'NNP'
p2062
F0.8074
tp2063
a(S'3.0'
p2064
S'CD'
p2065
F0.5054
tp2066
a(S'implementation'
p2067
S'NN'
p2068
F0.9697
tp2069
a(S'kinda'
p2070
S'RB'
p2071
F0.9251
tp2072
a(S'sucks'
p2073
S'VBZ'
p2074
F0.8395
tp2075
a(g66
g66
F0.9907
tp2076
a(S'Thunderbolt'
p2077
S'NN'
p2078
F0.3366
tp2079
a(S'has'
p2080
S'VBZ'
p2081
F0.9698
tp2082
a(S'been'
p2083
S'VBN'
p2084
F0.9704
tp2085
a(S'more'
p2086
S'RBR'
p2087
F0.6296
tp2088
a(S'consistent'
p2089
S'JJ'
p2090
F0.9304
tp2091
a(S'w/'
p2092
S'IN'
p2093
F0.8021
tp2094
a(S'fewer'
p2095
S'JJ'
p2096
F0.7147
tp2097
a(S'headaches'
p2098
S'NNS'
p2099
F0.9951
tp2100
a(S'for'
p2101
S'IN'
p2102
F0.9983
tp2103
a(S'me'
p2104
S'PRP'
p2105
F0.9856
tp2106
a(g66
g66
F0.9948
tp2107
ag175
tp2108
a((lp2109
(S'RT'
p2110
S'RT'
p2111
F0.9651
tp2112
a(S'for'
p2113
S'IN'
p2114
F0.9934
tp2115
a(S'mac'
p2116
S'NNP'
p2117
F0.9032
tp2118
a(S'user'
p2119
S'NN'
p2120
F0.5509
tp2121
a(S'please'
p2122
S'UH'
p2123
F0.8874
tp2124
a(S'dont'
p2125
S'VB'
p2126
F0.6535
tp2127
a(S'upgrade'
p2128
S'VB'
p2129
F0.9097
tp2130
a(S'to'
p2131
S'TO'
p2132
F0.9923
tp2133
a(S'OS'
p2134
S'NNP'
p2135
F0.8646
tp2136
a(S'X'
p2137
S'UH'
p2138
F0.7446
tp2139
a(S'EL'
p2140
S'NNP'
p2141
F0.8557
tp2142
a(S'Capitan'
p2143
S'NNP'
p2144
F0.9979
tp2145
a(g287
g66
F0.9878
tp2146
a(S'worse'
p2147
S'JJR'
p2148
F0.4569
tp2149
a(S'update'
p2150
S'NN'
p2151
F0.9728
tp2152
a(S'from'
p2153
S'IN'
p2154
F0.9964
tp2155
a(S'apple'
p2156
S'NNP'
p2157
F0.4957
tp2158
a(g66
g66
F0.9942
tp2159
a(S'the'
p2160
S'DT'
p2161
F0.994
tp2162
a(S'new'
p2163
S'JJ'
p2164
F0.9732
tp2165
a(S'os'
p2166
S'NN'
p2167
F0.63
tp2168
a(S'still'
p2169
S'RB'
p2170
F0.9733
tp2171
a(S'not'
p2172
S'RB'
p2173
F0.9964
tp2174
a(S'stable'
p2175
S'JJ'
p2176
F0.9674
tp2177
a(S'????'
p2178
g66
F0.9404
tp2179
a(S'\xc3\xa2\xe2\x82\xac\xc2\xa6'
p2180
S'NN'
p2181
F0.1049
tp2182
ag175
tp2183
a((lp2184
(S'RT'
p2185
S'RT'
p2186
F0.9751
tp2187
a(S'The'
p2188
S'DT'
p2189
F0.8615
tp2190
a(S'new'
p2191
S'JJ'
p2192
F0.9596
tp2193
a(S'MacBook'
p2194
S'NN'
p2195
F0.7762
tp2196
a(S'has'
p2197
S'VBZ'
p2198
F0.9767
tp2199
a(g166
S'DT'
p2200
F0.9937
tp2201
a(S'loud'
p2202
S'JJ'
p2203
F0.922
tp2204
a(S'siren'
p2205
S'NN'
p2206
F0.9899
tp2207
a(S'that'
p2208
S'IN'
p2209
F0.4152
tp2210
a(S'alerts'
p2211
S'VBZ'
p2212
F0.8227
tp2213
a(S'the'
p2214
S'DT'
p2215
F0.9928
tp2216
a(S'other'
p2217
S'JJ'
p2218
F0.9038
tp2219
a(S'people'
p2220
S'NNS'
p2221
F0.9576
tp2222
a(S'at'
p2223
S'IN'
p2224
F0.9964
tp2225
a(S'Starbucks'
p2226
S'NNP'
p2227
F0.989
tp2228
a(S'that'
p2229
S'IN'
p2230
F0.7519
tp2231
a(S'you'
p2232
S'PRP'
p2233
F0.9978
tp2234
a(S'are'
p2235
S'VBP'
p2236
F0.9945
tp2237
a(S'writing'
p2238
S'VBG'
p2239
F0.9843
tp2240
a(S'an'
p2241
S'DT'
p2242
F0.9548
tp2243
a(S'important'
p2244
S'JJ'
p2245
F0.9052
tp2246
a(S'screenplay'
p2247
S'NN'
p2248
F0.9931
tp2249
a(g66
g66
F0.9976
tp2250
ag175
tp2251
a((lp2252
(S'yet'
p2253
S'RB'
p2254
F0.741
tp2255
a(S'to'
p2256
S'TO'
p2257
F0.9977
tp2258
a(S'see'
p2259
S'VB'
p2260
F0.9992
tp2261
a(S'the'
p2262
S'DT'
p2263
F0.8778
tp2264
a(S'need'
p2265
S'VBP'
p2266
F0.5669
tp2267
a(S'for'
p2268
S'IN'
p2269
F0.993
tp2270
a(g166
S'DT'
p2271
F0.9952
tp2272
a(S'tablet'
p2273
S'NN'
p2274
F0.9931
tp2275
a(g66
g66
F0.9954
tp2276
a(S'My'
p2277
S'PRP$'
p2278
F0.9207
tp2279
a(S'13\xc3\xa2\xe2\x82\xac\xc2\xb3'
p2280
S'NN'
p2281
F0.4246
tp2282
a(S'MBP'
p2283
S'NN'
p2284
F0.5879
tp2285
a(S'w/'
p2286
S'IN'
p2287
F0.758
tp2288
a(S'Retina'
p2289
S'NNP'
p2290
F0.6048
tp2291
a(S'is'
p2292
S'VBZ'
p2293
F0.9941
tp2294
a(S'as'
p2295
S'RB'
p2296
F0.5747
tp2297
a(S'good'
p2298
S'JJ'
p2299
F0.9233
tp2300
a(S'as'
p2301
S'IN'
p2302
F0.9517
tp2303
a(S'it'
p2304
S'PRP'
p2305
F0.9982
tp2306
a(S'gets'
p2307
S'VBZ'
p2308
F0.9709
tp2309
a(S'with'
p2310
S'IN'
p2311
F0.9908
tp2312
a(S'regards'
p2313
S'VBZ'
p2314
F0.3584
tp2315
a(S'to'
p2316
S'TO'
p2317
F0.9913
tp2318
a(S'portability'
p2319
S'VB'
p2320
F0.5368
tp2321
ag62
tp2322
a((lp2323
(S'Including'
p2324
S'VBG'
p2325
F0.8619
tp2326
a(S'Apple'
p2327
S'NNP'
p2328
F0.9844
tp2329
a(S'Pay'
p2330
S'NNP'
p2331
F0.4754
tp2332
a(S'seems'
p2333
S'VBZ'
p2334
F0.8958
tp2335
a(S'to'
p2336
S'TO'
p2337
F0.9972
tp2338
a(S'make'
p2339
S'VB'
p2340
F0.9979
tp2341
a(S'review'
p2342
S'NN'
p2343
F0.9587
tp2344
a(S'times'
p2345
S'NNS'
p2346
F0.7426
tp2347
a(S'way'
p2348
S'NN'
p2349
F0.6717
tp2350
a(S'worse'
p2351
S'JJR'
p2352
F0.38
tp2353
a(S'than'
p2354
S'IN'
p2355
F0.9966
tp2356
a(S'they'
p2357
S'PRP'
p2358
F0.9507
tp2359
a(S'already'
p2360
S'RB'
p2361
F0.9884
tp2362
a(S'are'
p2363
S'VBP'
p2364
F0.9533
tp2365
a(g66
g66
F0.9952
tp2366
ag175
tp2367
a((lp2368
(S'RT'
p2369
S'RT'
p2370
F0.9556
tp2371
a(g403
g403
F0.9747
tp2372
a(S'ronaldrojas__'
p2373
S'NN'
p2374
F0.2085
tp2375
a(g403
g403
F0.9646
tp2376
a(S'Apple'
p2377
S'NNP'
p2378
F0.9327
tp2379
a(S'music'
p2380
S'NN'
p2381
F0.9752
tp2382
a(S'sucks'
p2383
S'VBZ'
p2384
F0.946
tp2385
a(g14
g14
F0.9867
tp2386
a(S'it'
p2387
S'PRP'
p2388
F0.9972
tp2389
a(S'stays'
p2390
S'VBZ'
p2391
F0.9679
tp2392
a(S'deleting'
p2393
S'VBG'
p2394
F0.9912
tp2395
a(S'music'
p2396
S'NN'
p2397
F0.9827
tp2398
a(S'#etcPB'
p2399
S'HT'
p2400
F0.9654
tp2401
ag175
tp2402
a((lp2403
(S'RT'
p2404
S'RT'
p2405
F0.9539
tp2406
a(S'Apple'
p2407
S'NNP'
p2408
F0.9877
tp2409
a(S'Music'
p2410
S'NNP'
p2411
F0.5925
tp2412
a(S'sucks'
p2413
S'VBZ'
p2414
F0.9193
tp2415
a(S'ass'
p2416
S'NN'
p2417
F0.7687
tp2418
ag175
tp2419
a((lp2420
(S'Good'
p2421
S'JJ'
p2422
F0.777
tp2423
a(S'job'
p2424
S'NN'
p2425
F0.9842
tp2426
a(S'on'
p2427
S'IN'
p2428
F0.9983
tp2429
a(S'the'
p2430
S'DT'
p2431
F0.9965
tp2432
a(S'emojis'
p2433
S'NNS'
p2434
F0.9658
tp2435
a(S'Apple'
p2436
S'NNP'
p2437
F0.8797
tp2438
a(S'????????'
p2439
g66
F0.9728
tp2440
ag62
tp2441
a((lp2442
(S'Just'
p2443
S'RB'
p2444
F0.9969
tp2445
a(S'updated'
p2446
S'VBD'
p2447
F0.6287
tp2448
a(S'to'
p2449
S'TO'
p2450
F0.9915
tp2451
a(S'os'
p2452
S'NNS'
p2453
F0.3975
tp2454
a(S'x'
p2455
S'UH'
p2456
F0.8716
tp2457
a(S'10.11.1'
p2458
S'CD'
p2459
F0.8994
tp2460
a(S'the'
p2461
S'DT'
p2462
F0.9947
tp2463
a(S'performance'
p2464
S'NN'
p2465
F0.9929
tp2466
a(S'is'
p2467
S'VBZ'
p2468
F0.9941
tp2469
a(S'actually'
p2470
S'RB'
p2471
F0.9988
tp2472
a(S'better'
p2473
S'JJR'
p2474
F0.7991
tp2475
a(g66
g66
F0.9927
tp2476
a(S'Good'
p2477
S'JJ'
p2478
F0.8114
tp2479
a(S'job'
p2480
S'NN'
p2481
F0.9532
tp2482
a(S'Apple'
p2483
S'NNP'
p2484
F0.8534
tp2485
a(S':D'
p2486
S'UH'
p2487
F0.971
tp2488
ag62
tp2489
a((lp2490
(S'Second'
p2491
S'JJ'
p2492
F0.983
tp2493
a(S'day'
p2494
S'NN'
p2495
F0.9972
tp2496
a(S'on'
p2497
S'IN'
p2498
F0.9972
tp2499
a(S'EL'
p2500
S'NNP'
p2501
F0.9909
tp2502
a(S'Capitan'
p2503
S'NNP'
p2504
F0.9986
tp2505
a(g66
g66
F0.9939
tp2506
a(S'So'
p2507
S'RB'
p2508
F0.9407
tp2509
a(S'far'
p2510
S'RB'
p2511
F0.9316
tp2512
a(S'so'
p2513
S'RB'
p2514
F0.9429
tp2515
a(S'good'
p2516
S'JJ'
p2517
F0.9772
tp2518
a(g66
g66
F0.9878
tp2519
a(S'Leaps'
p2520
S'NNS'
p2521
F0.7318
tp2522
a(S'and'
p2523
S'CC'
p2524
F0.988
tp2525
a(S'bounds'
p2526
S'NNS'
p2527
F0.5812
tp2528
a(S'better'
p2529
S'JJR'
p2530
F0.7064
tp2531
a(S'than'
p2532
S'IN'
p2533
F0.9964
tp2534
a(S'Yosemite'
p2535
S'NNP'
p2536
F0.998
tp2537
a(g66
g66
F0.9928
tp2538
a(S'Snappy'
p2539
S'JJ'
p2540
F0.8819
tp2541
a(S'even'
p2542
S'RB'
p2543
F0.9961
tp2544
a(S'on'
p2545
S'IN'
p2546
F0.9939
tp2547
a(S'an'
p2548
S'DT'
p2549
F0.977
tp2550
a(S'older'
p2551
S'JJR'
p2552
F0.8048
tp2553
a(S'MBP'
p2554
S'NNP'
p2555
F0.5883
tp2556
a(g66
g66
F0.9961
tp2557
ag62
tp2558
a((lp2559
(S'odd'
p2560
S'JJ'
p2561
F0.8739
tp2562
a(S'how'
p2563
S'WRB'
p2564
F0.9545
tp2565
a(S'the'
p2566
S'DT'
p2567
F0.9872
tp2568
a(S'#AAPL'
p2569
S'HT'
p2570
F0.9368
tp2571
a(S'earnings'
p2572
S'NNS'
p2573
F0.9815
tp2574
a(S'keep'
p2575
S'VBP'
p2576
F0.4377
tp2577
a(S'beating'
p2578
S'VBG'
p2579
F0.9887
tp2580
a(S'expectations'
p2581
S'NNS'
p2582
F0.9902
tp2583
a(S'while'
p2584
S'IN'
p2585
F0.9567
tp2586
a(S'Apple'
p2587
S'NNP'
p2588
F0.9769
tp2589
a(S'products'
p2590
S'NNS'
p2591
F0.9169
tp2592
a(S'keep'
p2593
S'VBP'
p2594
F0.4371
tp2595
a(S'getting'
p2596
S'VBG'
p2597
F0.9962
tp2598
a(S'worse'
p2599
S'JJ'
p2600
F0.5537
tp2601
a(S'and'
p2602
S'CC'
p2603
F0.9875
tp2604
a(S'worse'
p2605
S'JJ'
p2606
F0.5978
tp2607
ag175
tp2608
a((lp2609
(S'Good'
p2610
S'JJ'
p2611
F0.777
tp2612
a(S'job'
p2613
S'NN'
p2614
F0.9488
tp2615
a(S'apple'
p2616
S'NN'
p2617
F0.76
tp2618
a(S'????????????????'
p2619
g66
F0.9765
tp2620
ag62
tp2621
a((lp2622
(S'RT'
p2623
S'RT'
p2624
F0.9493
tp2625
a(S'Good'
p2626
S'JJ'
p2627
F0.7994
tp2628
a(S'job'
p2629
S'NN'
p2630
F0.9502
tp2631
a(S'Apple'
p2632
S'NNP'
p2633
F0.8776
tp2634
a(S"I'm"
p2635
S'PRP'
p2636
F0.4942
tp2637
a(S'impressed'
p2638
S'VBD'
p2639
F0.6009
tp2640
a(S'with'
p2641
S'IN'
p2642
F0.9995
tp2643
a(S'the'
p2644
S'DT'
p2645
F0.9941
tp2646
a(S'new'
p2647
S'JJ'
p2648
F0.9805
tp2649
a(S'emojis'
p2650
S'NNS'
p2651
F0.97
tp2652
a(S'but'
p2653
S'CC'
p2654
F0.9739
tp2655
a(S'now'
p2656
S'RB'
p2657
F0.9908
tp2658
a(S'can'
p2659
S'MD'
p2660
F0.9334
tp2661
a(S'you'
p2662
S'PRP'
p2663
F0.9949
tp2664
a(S'make'
p2665
S'VBP'
p2666
F0.9607
tp2667
a(g166
S'DT'
p2668
F0.992
tp2669
a(S'brain'
p2670
S'NN'
p2671
F0.9925
tp2672
a(g14
g14
F0.9914
tp2673
a(S'an'
p2674
S'DT'
p2675
F0.9694
tp2676
a(S'athlete'
p2677
S'NN'
p2678
F0.9953
tp2679
a(g14
g14
F0.9911
tp2680
a(g166
S'DT'
p2681
F0.9909
tp2682
a(S'basket'
p2683
S'NN'
p2684
F0.9971
tp2685
a(S'case'
p2686
S'NN'
p2687
F0.9941
tp2688
a(g14
g14
F0.991
tp2689
a(g166
S'DT'
p2690
F0.9883
tp2691
a(S'princess'
p2692
S'NN'
p2693
F0.9805
tp2694
a(g14
g14
F0.9914
tp2695
a(S'\xc3\xa2\xe2\x82\xac\xc2\xa6'
p2696
S'NNP'
p2697
F0.1928
tp2698
ag62
tp2699
a((lp2700
(S'that'
p2701
S'DT'
p2702
F0.4858
tp2703
a(S'is'
p2704
S'VBZ'
p2705
F0.9985
tp2706
a(S'the'
p2707
S'DT'
p2708
F0.9949
tp2709
a(S'stupidest'
p2710
S'JJS'
p2711
F0.5414
tp2712
a(S'emoji'
p2713
S'NN'
p2714
F0.7386
tp2715
a(g66
g66
F0.9935
tp2716
a(S'Further'
p2717
S'RB'
p2718
F0.4349
tp2719
a(g14
g14
F0.992
tp2720
a(S"I'd"
p2721
S'PRP'
p2722
F0.8568
tp2723
a(S'like'
p2724
S'VB'
p2725
F0.5787
tp2726
a(S'to'
p2727
S'TO'
p2728
F0.9962
tp2729
a(S'say'
p2730
S'VB'
p2731
F0.9952
tp2732
a(S'that'
p2733
S'DT'
p2734
F0.4721
tp2735
a(S'Citi'
p2736
S'NNP'
p2737
F0.9428
tp2738
a(S'field'
p2739
S'NN'
p2740
F0.9748
tp2741
a(S'sucks'
p2742
S'VBZ'
p2743
F0.9397
tp2744
a(g14
g14
F0.9887
tp2745
a(S'with'
p2746
S'IN'
p2747
F0.9868
tp2748
a(S'sole'
p2749
S'JJ'
p2750
F0.443
tp2751
a(S'exception'
p2752
S'NN'
p2753
F0.9838
tp2754
a(S'of'
p2755
S'IN'
p2756
F0.9973
tp2757
a(S'the'
p2758
S'DT'
p2759
F0.9968
tp2760
a(S'food'
p2761
S'NN'
p2762
F0.9914
tp2763
a(g66
g66
F0.9951
tp2764
a(S'The'
p2765
S'DT'
p2766
F0.7278
tp2767
a(S'Apple'
p2768
S'NNP'
p2769
F0.9337
tp2770
a(S'is'
p2771
S'VBZ'
p2772
F0.994
tp2773
a(S'dumb'
p2774
S'JJ'
p2775
F0.9508
tp2776
a(g66
g66
F0.9948
tp2777
ag175
tp2778
a((lp2779
(S'Apple'
p2780
S'NNP'
p2781
F0.9095
tp2782
a(S'iTunes'
p2783
S'NNP'
p2784
F0.9827
tp2785
a(S'packaging'
p2786
S'NN'
p2787
F0.9205
tp2788
a(S'SUCKS'
p2789
S'VBZ'
p2790
F0.9448
tp2791
a(g403
g403
F0.9779
tp2792
a(S'Apple'
p2793
S'NNP'
p2794
F0.9332
tp2795
a(S'iTunes'
p2796
S'NNP'
p2797
F0.9654
tp2798
a(S'&'
p2799
S'CC'
p2800
F0.9451
tp2801
a(S'QuickTime'
p2802
S'NNP'
p2803
F0.818
tp2804
a(S'Named'
p2805
S'VBD'
p2806
F0.653
tp2807
a(S"'"
p2808
S"''"
p2809
F0.9502
tp2810
a(S'Most'
p2811
S'JJS'
p2812
F0.549
tp2813
a(S'Exposed'
p2814
S'VBD'
p2815
F0.3965
tp2816
a(g2808
S"''"
p2817
F0.9505
tp2818
a(S'To'
p2819
S'TO'
p2820
F0.9554
tp2821
a(S'Threats'
p2822
S'NNS'
p2823
F0.6238
tp2824
a(S'In'
p2825
S'IN'
p2826
F0.9858
tp2827
a(S'US'
p2828
S'PRP'
p2829
F0.5886
tp2830
ag175
tp2831
a((lp2832
(S'On'
p2833
S'IN'
p2834
F0.9783
tp2835
a(S'the'
p2836
S'DT'
p2837
F0.9893
tp2838
a(S'trusty'
p2839
S'NN'
p2840
F0.8314
tp2841
a(S'MBP'
p2842
S'NNP'
p2843
F0.4574
tp2844
a(S'retina'
p2845
S'NN'
p2846
F0.7053
tp2847
a(S'edition'
p2848
S'NN'
p2849
F0.9972
tp2850
a(g14
g14
F0.9913
tp2851
a(S'upgraded'
p2852
S'VBD'
p2853
F0.772
tp2854
a(S'to'
p2855
S'TO'
p2856
F0.9854
tp2857
a(S'El'
p2858
S'NNP'
p2859
F0.9725
tp2860
a(S'Capitan'
p2861
S'NNP'
p2862
F0.9991
tp2863
a(S'over'
p2864
S'IN'
p2865
F0.9751
tp2866
a(S'24'
p2867
S'CD'
p2868
F0.9818
tp2869
a(S'hours'
p2870
S'NNS'
p2871
F0.9561
tp2872
a(S'now'
p2873
S'RB'
p2874
F0.9777
tp2875
a(g66
g66
F0.9941
tp2876
a(S'So'
p2877
S'RB'
p2878
F0.9407
tp2879
a(S'far'
p2880
S'RB'
p2881
F0.9316
tp2882
a(S'so'
p2883
S'RB'
p2884
F0.9429
tp2885
a(S'good'
p2886
S'JJ'
p2887
F0.9772
tp2888
a(g66
g66
F0.9909
tp2889
a(S'Backed'
p2890
S'VBD'
p2891
F0.6627
tp2892
a(S'up'
p2893
S'RP'
p2894
F0.7441
tp2895
a(S'to'
p2896
S'TO'
p2897
F0.9862
tp2898
a(S'time'
p2899
S'NN'
p2900
F0.7889
tp2901
a(S'machine'
p2902
S'NN'
p2903
F0.9963
tp2904
a(S'beforehand'
p2905
S'RB'
p2906
F0.742
tp2907
a(S'...'
p2908
g403
F0.9936
tp2909
ag62
tp2910
a((lp2911
(S'no'
p2912
S'DT'
p2913
F0.4836
tp2914
a(S'kidding'
p2915
S'VBG'
p2916
F0.5151
tp2917
a(S'what'
p2918
S'WP'
p2919
F0.9796
tp2920
a(S'is'
p2921
S'VBZ'
p2922
F0.9976
tp2923
a(S'the'
p2924
S'DT'
p2925
F0.9863
tp2926
a(S'big'
p2927
S'JJ'
p2928
F0.966
tp2929
a(S'deal'
p2930
S'NN'
p2931
F0.9732
tp2932
a(g14
g14
F0.9877
tp2933
a(S'oh'
p2934
S'UH'
p2935
F0.9583
tp2936
a(S"that's"
p2937
S'DT'
p2938
F0.4512
tp2939
a(S'right'
p2940
S'RB'
p2941
F0.8406
tp2942
a(S'there'
p2943
S'RB'
p2944
F0.5862
tp2945
a(S'is'
p2946
S'VBZ'
p2947
F0.9924
tp2948
a(S'not'
p2949
S'RB'
p2950
F0.9933
tp2951
a(S'one'
p2952
S'CD'
p2953
F0.8567
tp2954
a(S'...'
p2955
g403
F0.9963
tp2956
a(S'big'
p2957
S'JJ'
p2958
F0.9826
tp2959
a(S'deal'
p2960
S'NN'
p2961
F0.9732
tp2962
a(g14
g14
F0.9895
tp2963
a(S'the'
p2964
S'DT'
p2965
F0.9909
tp2966
a(S'guy'
p2967
S'NN'
p2968
F0.9637
tp2969
a(S'is'
p2970
S'VBZ'
p2971
F0.9963
tp2972
a(S'dead'
p2973
S'JJ'
p2974
F0.7626
tp2975
a(S'...'
p2976
g403
F0.9954
tp2977
a(S'Apple'
p2978
S'NNP'
p2979
F0.8784
tp2980
a(S'sucks'
p2981
S'VBZ'
p2982
F0.9575
tp2983
a(S'...'
p2984
g403
F0.9942
tp2985
ag175
tp2986
a((lp2987
(S'Apple'
p2988
S'NNP'
p2989
F0.9036
tp2990
a(S'TV'
p2991
S'NNP'
p2992
F0.8267
tp2993
a(S'2015'
p2994
S'CD'
p2995
F0.6965
tp2996
a(S'review'
p2997
S'NN'
p2998
F0.9791
tp2999
a(g403
g403
F0.9695
tp3000
a(S'fast'
p3001
S'RB'
p3002
F0.6323
tp3003
a(S'and'
p3004
S'CC'
p3005
F0.9898
tp3006
a(S'easy'
p3007
S'JJ'
p3008
F0.9097
tp3009
a(S'to'
p3010
S'TO'
p3011
F0.9954
tp3012
a(S'navigate'
p3013
S'VB'
p3014
F0.9865
tp3015
a(g14
g14
F0.9868
tp3016
a(S'but'
p3017
S'CC'
p3018
F0.9939
tp3019
a(S'keyboard'
p3020
S'NN'
p3021
F0.8972
tp3022
a(S'worse'
p3023
S'JJ'
p3024
F0.3493
tp3025
a(g14
g14
F0.9893
tp3026
a(S'Siri'
p3027
S'NNP'
p3028
F0.9995
tp3029
a(S'limited'
p3030
S'JJ'
p3031
F0.3843
tp3032
a(g14
g14
F0.9885
tp3033
a(S'feels'
p3034
S'VBZ'
p3035
F0.8515
tp3036
a(S'like'
p3037
S'IN'
p3038
F0.7121
tp3039
a(S'first'
p3040
S'JJ'
p3041
F0.9491
tp3042
a(S'effort'
p3043
S'NN'
p3044
F0.9864
tp3045
a(S'in'
p3046
S'IN'
p3047
F0.9817
tp3048
a(S'new'
p3049
S'JJ'
p3050
F0.9709
tp3051
a(S'\xc3\xa2\xe2\x82\xac\xc2\xa6'
p3052
S'NN'
p3053
F0.4344
tp3054
ag175
tp3055
a((lp3056
(S'RT'
p3057
S'RT'
p3058
F0.9727
tp3059
a(S'GreggBennett'
p3060
S'NNP'
p3061
F0.3952
tp3062
a(g403
g403
F0.964
tp3063
a(S'MBP'
p3064
S'NN'
p3065
F0.3831
tp3066
a(S'...'
p3067
g403
F0.997
tp3068
a(S'always'
p3069
S'RB'
p3070
F0.982
tp3071
a(g166
S'DT'
p3072
F0.9916
tp3073
a(S'good'
p3074
S'JJ'
p3075
F0.9837
tp3076
a(S'sign'
p3077
S'NN'
p3078
F0.9291
tp3079
a(S'when'
p3080
S'WRB'
p3081
F0.9841
tp3082
a(S'starting'
p3083
S'VBG'
p3084
F0.961
tp3085
a(g166
S'DT'
p3086
F0.9914
tp3087
a(S'new'
p3088
S'JJ'
p3089
F0.9932
tp3090
a(S'position'
p3091
S'NN'
p3092
F0.9976
tp3093
a(g66
g66
F0.9925
tp3094
a(S'Bel'
p3095
S'NNP'
p3096
F0.897
tp3097
a(S'Air'
p3098
S'NNP'
p3099
F0.993
tp3100
a(S'Church'
p3101
S'NNP'
p3102
F0.9881
tp3103
ag62
tp3104
a((lp3105
(g1481
g403
F0.9272
tp3106
a(S'Good'
p3107
S'JJ'
p3108
F0.747
tp3109
a(S'job'
p3110
S'NN'
p3111
F0.9929
tp3112
a(g14
g14
F0.9906
tp3113
a(S"here's"
p3114
S'RB'
p3115
F0.4985
tp3116
a(g166
S'DT'
p3117
F0.9956
tp3118
a(S'couple'
p3119
S'NN'
p3120
F0.921
tp3121
a(S'quick'
p3122
S'JJ'
p3123
F0.8293
tp3124
a(S'pics'
p3125
S'NNS'
p3126
F0.9908
tp3127
a(S'of'
p3128
S'IN'
p3129
F0.9944
tp3130
a(S'you'
p3131
S'PRP'
p3132
F0.999
tp3133
a(S'grabbing'
p3134
S'VBG'
p3135
F0.9872
tp3136
a(S'up'
p3137
S'RP'
p3138
F0.7617
tp3139
a(S'that'
p3140
S'IN'
p3141
F0.9039
tp3142
a(S'Apple'
p3143
S'NNP'
p3144
F0.9551
tp3145
a(S'TV'
p3146
S'NN'
p3147
F0.5885
tp3148
a(g66
g66
F0.9961
tp3149
a(S'Good'
p3150
S'JJ'
p3151
F0.803
tp3152
a(S'job'
p3153
S'NN'
p3154
F0.993
tp3155
a(g66
g66
F0.9957
tp3156
ag62
tp3157
a((lp3158
(S'Apple'
p3159
S'NNP'
p3160
F0.9095
tp3161
a(S'sucks'
p3162
S'VBZ'
p3163
F0.9713
tp3164
a(S'!!!'
p3165
g66
F0.9858
tp3166
a(S'The'
p3167
S'DT'
p3168
F0.969
tp3169
a(S'fuckers'
p3170
S'NNS'
p3171
F0.9968
tp3172
a(S'play'
p3173
S'VB'
p3174
F0.7464
tp3175
a(S'around'
p3176
S'IN'
p3177
F0.5612
tp3178
a(S'with'
p3179
S'IN'
p3180
F0.9965
tp3181
a(S'chargers'
p3182
S'NNP'
p3183
F0.7157
tp3184
a(S'to'
p3185
S'TO'
p3186
F0.9883
tp3187
a(S'hog'
p3188
S'NN'
p3189
F0.4375
tp3190
a(S'the'
p3191
S'DT'
p3192
F0.9952
tp3193
a(S'markets'
p3194
S'NNS'
p3195
F0.9794
tp3196
a(g66
g66
F0.9939
tp3197
a(S'The'
p3198
S'DT'
p3199
F0.9351
tp3200
a(S'greedy'
p3201
S'JJ'
p3202
F0.9816
tp3203
a(S'bastards'
p3204
S'NNS'
p3205
F0.9877
tp3206
a(S'are'
p3207
S'VBP'
p3208
F0.9811
tp3209
a(S'hiding'
p3210
S'VBG'
p3211
F0.973
tp3212
a(S'$1B'
p3213
S'NN'
p3214
F0.4935
tp3215
a(S'in'
p3216
S'IN'
p3217
F0.9964
tp3218
a(S'China'
p3219
S'NNP'
p3220
F0.9956
tp3221
a(S'!!'
p3222
g66
F0.9926
tp3223
ag175
tp3224
a((lp3225
(S'Good'
p3226
S'JJ'
p3227
F0.6001
tp3228
a(S'Job'
p3229
S'NNP'
p3230
F0.9293
tp3231
a(S'Apple'
p3232
S'NNP'
p3233
F0.9979
tp3234
a(g66
g66
F0.996
tp3235
ag62
tp3236
a((lp3237
(S'Much'
p3238
S'RB'
p3239
F0.8341
tp3240
a(S'worse'
p3241
S'JJ'
p3242
F0.5942
tp3243
a(g403
g403
F0.9789
tp3244
a(S'requests'
p3245
S'NNS'
p3246
F0.9916
tp3247
a(S'to'
p3248
S'TO'
p3249
F0.9957
tp3250
a(S'play'
p3251
S'VB'
p3252
F0.9977
tp3253
a(S'music'
p3254
S'NN'
p3255
F0.9941
tp3256
a(S'default'
p3257
S'NN'
p3258
F0.97
tp3259
a(S'to'
p3260
S'TO'
p3261
F0.9757
tp3262
a(S'Apple'
p3263
S'NNP'
p3264
F0.9881
tp3265
a(S'Music'
p3266
S'NNP'
p3267
F0.5241
tp3268
a(S'even'
p3269
S'RB'
p3270
F0.9863
tp3271
a(S'if'
p3272
S'IN'
p3273
F0.992
tp3274
a(S'you'
p3275
S'PRP'
p3276
F0.9997
tp3277
a(S'have'
p3278
S'VBP'
p3279
F0.9794
tp3280
a(S'the'
p3281
S'DT'
p3282
F0.9962
tp3283
a(S'music'
p3284
S'NN'
p3285
F0.9922
tp3286
a(S'in'
p3287
S'IN'
p3288
F0.9935
tp3289
a(S'your'
p3290
S'PRP$'
p3291
F0.9725
tp3292
a(S'library'
p3293
S'NN'
p3294
F0.9955
tp3295
a(g66
g66
F0.9969
tp3296
ag175
tp3297
a((lp3298
(S'RT'
p3299
S'RT'
p3300
F0.9656
tp3301
a(S'Well'
p3302
S'UH'
p3303
F0.6939
tp3304
a(S'...'
p3305
g403
F0.9974
tp3306
a(S'It'
p3307
S'PRP'
p3308
F0.9938
tp3309
a(S'looks'
p3310
S'VBZ'
p3311
F0.959
tp3312
a(S'like'
p3313
S'IN'
p3314
F0.6566
tp3315
a(S"I'm"
p3316
S'PRP'
p3317
F0.7679
tp3318
a(S'getting'
p3319
S'VBG'
p3320
F0.9971
tp3321
a(g166
S'DT'
p3322
F0.9918
tp3323
a(S'google'
p3324
S'NNP'
p3325
F0.4445
tp3326
a(S'phone'
p3327
S'NN'
p3328
F0.9747
tp3329
a(g66
g66
F0.9941
tp3330
a(S'Apple'
p3331
S'NNP'
p3332
F0.8417
tp3333
a(S'products'
p3334
S'NNS'
p3335
F0.8663
tp3336
a(g137
S'PRP'
p3337
F0.9943
tp3338
a(S'feel'
p3339
S'VBP'
p3340
F0.9319
tp3341
a(S'have'
p3342
S'VB'
p3343
F0.7319
tp3344
a(S'gotten'
p3345
S'VBN'
p3346
F0.8891
tp3347
a(S'worse'
p3348
S'JJ'
p3349
F0.5465
tp3350
a(S'ever'
p3351
S'RB'
p3352
F0.9574
tp3353
a(S'since'
p3354
S'IN'
p3355
F0.9826
tp3356
a(S'Jobs'
p3357
S'NNP'
p3358
F0.6486
tp3359
a(S'died'
p3360
S'VBD'
p3361
F0.933
tp3362
a(g66
g66
F0.9958
tp3363
ag175
tp3364
a((lp3365
(S'Nvmd'
p3366
S'UH'
p3367
F0.9799
tp3368
a(g66
g66
F0.9081
tp3369
a(S'app'
p3370
S'NN'
p3371
F0.4659
tp3372
a(S'on'
p3373
S'IN'
p3374
F0.9966
tp3375
a(S'Apple'
p3376
S'NNP'
p3377
F0.9954
tp3378
a(S'TV'
p3379
S'NN'
p3380
F0.5329
tp3381
a(S'sucks'
p3382
S'VBZ'
p3383
F0.9008
tp3384
a(g66
g66
F0.9945
tp3385
a(S'Pay'
p3386
S'VB'
p3387
F0.9304
tp3388
a(S'for'
p3389
S'IN'
p3390
F0.9911
tp3391
a(S'something'
p3392
S'NN'
p3393
F0.9947
tp3394
a(S"I'm"
p3395
S'PRP'
p3396
F0.5615
tp3397
a(S'getting'
p3398
S'VBG'
p3399
F0.9981
tp3400
a(S'for'
p3401
S'IN'
p3402
F0.9721
tp3403
a(S'free'
p3404
S'JJ'
p3405
F0.9648
tp3406
a(S'with'
p3407
S'IN'
p3408
F0.999
tp3409
a(S'my'
p3410
S'PRP$'
p3411
F0.9918
tp3412
a(S'antenna'
p3413
S'NN'
p3414
F0.9758
tp3415
a(g1277
g66
F0.9934
tp3416
a(S'Nope'
p3417
S'UH'
p3418
F0.9912
tp3419
a(g66
g66
F0.9737
tp3420
a(S'Looks'
p3421
S'VBZ'
p3422
F0.6499
tp3423
a(S'like'
p3424
S'IN'
p3425
F0.8794
tp3426
a(g137
S'PRP'
p3427
F0.9934
tp3428
a(S"won't"
p3429
S'MD'
p3430
F0.7918
tp3431
a(S'be'
p3432
S'VB'
p3433
F0.9953
tp3434
a(S'watching'
p3435
S'VBG'
p3436
F0.994
tp3437
a(S'your'
p3438
S'PRP$'
p3439
F0.7319
tp3440
a(S'shows'
p3441
S'NNS'
p3442
F0.7861
tp3443
a(g287
g66
F0.9973
tp3444
ag175
tp3445
a((lp3446
(S'Good'
p3447
S'JJ'
p3448
F0.777
tp3449
a(S'job'
p3450
S'NN'
p3451
F0.9364
tp3452
a(S'Apple'
p3453
S'NNP'
p3454
F0.919
tp3455
a(S'for'
p3456
S'IN'
p3457
F0.9641
tp3458
a(S'stepping'
p3459
S'VBG'
p3460
F0.965
tp3461
a(S'up'
p3462
S'RP'
p3463
F0.8919
tp3464
a(S'your'
p3465
S'PRP$'
p3466
F0.9909
tp3467
a(S'game'
p3468
S'NN'
p3469
F0.9938
tp3470
a(S'and'
p3471
S'CC'
p3472
F0.9945
tp3473
a(S'adding'
p3474
S'VBG'
p3475
F0.9905
tp3476
a(S'some'
p3477
S'DT'
p3478
F0.9762
tp3479
a(S'new'
p3480
S'JJ'
p3481
F0.99
tp3482
a(S'emojis'
p3483
S'NNS'
p3484
F0.9753
tp3485
a(S'????'
p3486
g66
F0.9745
tp3487
ag62
tp3488
a((lp3489
(S'so'
p3490
S'RB'
p3491
F0.7426
tp3492
a(S'after'
p3493
S'IN'
p3494
F0.9695
tp3495
a(g166
S'DT'
p3496
F0.9977
tp3497
a(S'couple'
p3498
S'NN'
p3499
F0.9511
tp3500
a(S'of'
p3501
S'IN'
p3502
F0.9823
tp3503
a(S'testings'
p3504
S'NNS'
p3505
F0.6231
tp3506
a(S'this'
p3507
S'DT'
p3508
F0.9948
tp3509
a(S'mbp'
p3510
S'NN'
p3511
F0.9444
tp3512
a(S'is'
p3513
S'VBZ'
p3514
F0.9909
tp3515
a(S'pretty'
p3516
S'RB'
p3517
F0.9878
tp3518
a(S'good'
p3519
S'JJ'
p3520
F0.9099
tp3521
a(g14
g14
F0.9903
tp3522
a(S'streamed'
p3523
S'VBD'
p3524
F0.4557
tp3525
a(S'dota'
p3526
S'NNP'
p3527
F0.3545
tp3528
a(S'2'
p3529
S'CD'
p3530
F0.4221
tp3531
a(S'apparently'
p3532
S'RB'
p3533
F0.8982
tp3534
a(S'p'
p3535
S'RB'
p3536
F0.2499
tp3537
a(S'good'
p3538
S'JJ'
p3539
F0.8635
tp3540
a(S'iono'
p3541
S'UH'
p3542
F0.8981
tp3543
ag62
tp3544
a((lp3545
(S'IMO'
p3546
S'NNP'
p3547
F0.3084
tp3548
a(g14
g14
F0.974
tp3549
a(S'Apple'
p3550
S'NNP'
p3551
F0.9948
tp3552
a(S'sucks'
p3553
S'VBZ'
p3554
F0.9752
tp3555
a(S'now'
p3556
S'RB'
p3557
F0.9869
tp3558
a(S'that'
p3559
S'IN'
p3560
F0.5416
tp3561
a(S'Jobs'
p3562
S'NNS'
p3563
F0.536
tp3564
a(S'is'
p3565
S'VBZ'
p3566
F0.9896
tp3567
a(S'gone'
p3568
S'VBN'
p3569
F0.965
tp3570
a(g66
g66
F0.9937
tp3571
a(S'Innovation'
p3572
S'NN'
p3573
F0.5785
tp3574
a(S'has'
p3575
S'VBZ'
p3576
F0.9733
tp3577
a(S'slowed'
p3578
S'VBN'
p3579
F0.7818
tp3580
a(S'tremendously'
p3581
S'RB'
p3582
F0.9762
tp3583
a(S'--'
p3584
g403
F0.7999
tp3585
a(S'derivative'
p3586
S'NN'
p3587
F0.4269
tp3588
a(g2799
S'CC'
p3589
F0.9526
tp3590
a(S'copycat'
p3591
S'NN'
p3592
F0.6225
tp3593
a(S'features'
p3594
S'NNS'
p3595
F0.9465
tp3596
a(g66
g66
F0.992
tp3597
a(S'smh'
p3598
S'UH'
p3599
F0.9517
tp3600
ag175
tp3601
a((lp3602
(S'RT'
p3603
S'RT'
p3604
F0.9702
tp3605
a(S'So'
p3606
S'RB'
p3607
F0.5441
tp3608
a(S'basically'
p3609
S'RB'
p3610
F0.9983
tp3611
a(S'with'
p3612
S'IN'
p3613
F0.9977
tp3614
a(S'the'
p3615
S'DT'
p3616
F0.9966
tp3617
a(S'6S'
p3618
S'NNS'
p3619
F0.7901
tp3620
a(S'hardly'
p3621
S'RB'
p3622
F0.9878
tp3623
a(S'anything'
p3624
S'NN'
p3625
F0.8965
tp3626
a(S'has'
p3627
S'VBZ'
p3628
F0.979
tp3629
a(S'changed'
p3630
S'VBN'
p3631
F0.8347
tp3632
a(g66
g66
F0.9941
tp3633
a(S'Good'
p3634
S'JJ'
p3635
F0.8114
tp3636
a(S'job'
p3637
S'NN'
p3638
F0.9507
tp3639
a(S'Apple'
p3640
S'NNP'
p3641
F0.8591
tp3642
a(S'????'
p3643
g66
F0.9744
tp3644
ag175
tp3645
a((lp3646
(S'Apple'
p3647
S'NNP'
p3648
F0.9036
tp3649
a(S'TV'
p3650
S'NNP'
p3651
F0.8267
tp3652
a(S'2015'
p3653
S'CD'
p3654
F0.7422
tp3655
a(g403
g403
F0.9767
tp3656
a(S'fast'
p3657
S'RB'
p3658
F0.6323
tp3659
a(S'and'
p3660
S'CC'
p3661
F0.9898
tp3662
a(S'easy'
p3663
S'JJ'
p3664
F0.9097
tp3665
a(S'to'
p3666
S'TO'
p3667
F0.9954
tp3668
a(S'navigate'
p3669
S'VB'
p3670
F0.9865
tp3671
a(g14
g14
F0.9868
tp3672
a(S'but'
p3673
S'CC'
p3674
F0.9939
tp3675
a(S'keyboard'
p3676
S'NN'
p3677
F0.8972
tp3678
a(S'worse'
p3679
S'JJ'
p3680
F0.3493
tp3681
a(g14
g14
F0.9893
tp3682
a(S'Siri'
p3683
S'NNP'
p3684
F0.9995
tp3685
a(S'limited'
p3686
S'JJ'
p3687
F0.3843
tp3688
a(g14
g14
F0.9885
tp3689
a(S'feels'
p3690
S'VBZ'
p3691
F0.8515
tp3692
a(S'like'
p3693
S'IN'
p3694
F0.7121
tp3695
a(S'first'
p3696
S'JJ'
p3697
F0.9491
tp3698
a(S'effort'
p3699
S'NN'
p3700
F0.9864
tp3701
a(S'in'
p3702
S'IN'
p3703
F0.9806
tp3704
a(S'new'
p3705
S'JJ'
p3706
F0.9817
tp3707
a(S'approach'
p3708
S'NN'
p3709
F0.9619
tp3710
ag175
tp3711
a((lp3712
(S'Good'
p3713
S'JJ'
p3714
F0.777
tp3715
a(S'job'
p3716
S'NN'
p3717
F0.9364
tp3718
a(S'Apple'
p3719
S'NNP'
p3720
F0.8928
tp3721
a(S'????????????????????????????????????????'
p3722
S'NNP'
p3723
F0.2745
tp3724
a(S'\xc3\xa2\xcb\x9c'
p3725
S'NNP'
p3726
F0.3949
tp3727
ag62
tp3728
a((lp3729
(S'my'
p3730
S'PRP$'
p3731
F0.9814
tp3732
a(S'phone'
p3733
S'NN'
p3734
F0.9915
tp3735
a(S'wont'
p3736
S'MD'
p3737
F0.5074
tp3738
a(S'charge'
p3739
S'VB'
p3740
F0.958
tp3741
a(S'apple'
p3742
S'NN'
p3743
F0.4618
tp3744
a(S'sucks'
p3745
S'VBZ'
p3746
F0.9836
tp3747
a(S'????'
p3748
g66
F0.9778
tp3749
ag175
tp3750
a((lp3751
(S'Apple'
p3752
S'NNP'
p3753
F0.9036
tp3754
a(S'TV'
p3755
S'NNP'
p3756
F0.8267
tp3757
a(S'2015'
p3758
S'CD'
p3759
F0.6965
tp3760
a(S'review'
p3761
S'NN'
p3762
F0.9791
tp3763
a(g403
g403
F0.9695
tp3764
a(S'fast'
p3765
S'RB'
p3766
F0.6323
tp3767
a(S'and'
p3768
S'CC'
p3769
F0.9898
tp3770
a(S'easy'
p3771
S'JJ'
p3772
F0.9097
tp3773
a(S'to'
p3774
S'TO'
p3775
F0.9954
tp3776
a(S'navigate'
p3777
S'VB'
p3778
F0.9865
tp3779
a(g14
g14
F0.9868
tp3780
a(S'but'
p3781
S'CC'
p3782
F0.9939
tp3783
a(S'keyboard'
p3784
S'NN'
p3785
F0.8972
tp3786
a(S'worse'
p3787
S'JJ'
p3788
F0.3493
tp3789
a(g14
g14
F0.9893
tp3790
a(S'Siri'
p3791
S'NNP'
p3792
F0.9995
tp3793
a(S'limited'
p3794
S'JJ'
p3795
F0.3843
tp3796
a(g14
g14
F0.9885
tp3797
a(S'feels'
p3798
S'VBZ'
p3799
F0.8515
tp3800
a(S'like'
p3801
S'IN'
p3802
F0.7121
tp3803
a(S'first'
p3804
S'JJ'
p3805
F0.9491
tp3806
a(S'effort'
p3807
S'NN'
p3808
F0.9864
tp3809
a(S'in'
p3810
S'IN'
p3811
F0.9817
tp3812
a(S'new'
p3813
S'JJ'
p3814
F0.9709
tp3815
a(S'a\xc3\xa2\xe2\x82\xac\xc2\xa6'
p3816
S'NN'
p3817
F0.3889
tp3818
ag175
tp3819
a((lp3820
(g137
S'PRP'
p3821
F0.9981
tp3822
a(S'have'
p3823
S'VBP'
p3824
F0.9779
tp3825
a(S'Apple'
p3826
S'NNP'
p3827
F0.904
tp3828
a(S'TV'
p3829
S'NN'
p3830
F0.5045
tp3831
a(g66
g66
F0.9963
tp3832
a(S'It'
p3833
S'PRP'
p3834
F0.9959
tp3835
a(S'sucks'
p3836
S'VBZ'
p3837
F0.9768
tp3838
a(g287
g66
F0.9893
tp3839
a(S'????'
p3840
g66
F0.9454
tp3841
ag175
tp3842
a((lp3843
(S'One'
p3844
S'CD'
p3845
F0.8922
tp3846
a(S'thing'
p3847
S'NN'
p3848
F0.9461
tp3849
a(g137
S'PRP'
p3850
F0.9924
tp3851
a(S'love'
p3852
S'VBP'
p3853
F0.9896
tp3854
a(S'about'
p3855
S'IN'
p3856
F0.9674
tp3857
a(S'this'
p3858
S'DT'
p3859
F0.9903
tp3860
a(S'update'
p3861
S'NN'
p3862
F0.9971
tp3863
a(S'is'
p3864
S'VBZ'
p3865
F0.995
tp3866
a(S'the'
p3867
S'DT'
p3868
F0.9799
tp3869
a(S'back-to-the-app-you-were-on'
p3870
S'NN'
p3871
F0.5582
tp3872
a(S'button'
p3873
S'NN'
p3874
F0.9869
tp3875
a(S'that'
p3876
S'IN'
p3877
F0.7831
tp3878
a(S'you'
p3879
S'PRP'
p3880
F0.9975
tp3881
a(S'get'
p3882
S'VBP'
p3883
F0.9768
tp3884
a(S'when'
p3885
S'WRB'
p3886
F0.9803
tp3887
a(S'you'
p3888
S'PRP'
p3889
F0.9988
tp3890
a(S'open'
p3891
S'JJ'
p3892
F0.3677
tp3893
a(g166
S'DT'
p3894
F0.9919
tp3895
a(S'message'
p3896
S'NN'
p3897
F0.9969
tp3898
a(g66
g66
F0.9951
tp3899
a(S'Good'
p3900
S'JJ'
p3901
F0.7821
tp3902
a(S'job'
p3903
S'NN'
p3904
F0.9542
tp3905
a(S'Apple'
p3906
S'NNP'
p3907
F0.8942
tp3908
ag62
tp3909
a((lp3910
(S'aw'
p3911
S'UH'
p3912
F0.9947
tp3913
a(S'wth'
p3914
S'UH'
p3915
F0.9786
tp3916
a(S'that'
p3917
S'DT'
p3918
F0.4422
tp3919
a(S'sucks'
p3920
S'VBZ'
p3921
F0.9834
tp3922
a(S':('
p3923
S'UH'
p3924
F0.8679
tp3925
a(S'go'
p3926
S'VB'
p3927
F0.6358
tp3928
a(S'to'
p3929
S'TO'
p3930
F0.9895
tp3931
a(S'the'
p3932
S'DT'
p3933
F0.9806
tp3934
a(S'Apple'
p3935
S'NNP'
p3936
F0.9966
tp3937
a(S'Store'
p3938
S'NNP'
p3939
F0.917
tp3940
a(S'they'
p3941
S'PRP'
p3942
F0.9777
tp3943
a(S'might'
p3944
S'MD'
p3945
F0.9502
tp3946
a(S'help'
p3947
S'VB'
p3948
F0.9929
tp3949
a(S'u'
p3950
S'PRP'
p3951
F0.9893
tp3952
a(S'there'
p3953
S'RB'
p3954
F0.916
tp3955
a(g14
g14
F0.9898
tp3956
a(S'of'
p3957
S'IN'
p3958
F0.9251
tp3959
a(S'course'
p3960
S'NN'
p3961
F0.9653
tp3962
ag175
tp3963
a((lp3964
(S'They'
p3965
S'PRP'
p3966
F0.9824
tp3967
a(S'feel'
p3968
S'VBP'
p3969
F0.8252
tp3970
a(S'good'
p3971
S'JJ'
p3972
F0.9337
tp3973
a(g66
g66
F0.9892
tp3974
a(S'A'
p3975
S'DT'
p3976
F0.9748
tp3977
a(S'little'
p3978
S'JJ'
p3979
F0.8584
tp3980
a(S'less'
p3981
S'JJR'
p3982
F0.4891
tp3983
a(S'travel'
p3984
S'NN'
p3985
F0.9391
tp3986
a(S'than'
p3987
S'IN'
p3988
F0.9959
tp3989
a(S'the'
p3990
S'DT'
p3991
F0.9956
tp3992
a(S'MBP'
p3993
S'NNP'
p3994
F0.6118
tp3995
a(S'keys'
p3996
S'NNS'
p3997
F0.8801
tp3998
a(g14
g14
F0.989
tp3999
a(S'but'
p4000
S'CC'
p4001
F0.9966
tp4002
a(S'not'
p4003
S'RB'
p4004
F0.9986
tp4005
a(S'much'
p4006
S'RB'
p4007
F0.6672
tp4008
a(g66
g66
F0.9919
tp4009
a(S'Not'
p4010
S'RB'
p4011
F0.9976
tp4012
a(S'like'
p4013
S'IN'
p4014
F0.7808
tp4015
a(S'the'
p4016
S'DT'
p4017
F0.9969
tp4018
a(S'MacBook'
p4019
S'NNP'
p4020
F0.5119
tp4021
a(g66
g66
F0.9946
tp4022
a(g137
S'PRP'
p4023
F0.9962
tp4024
a(S'can'
p4025
S'MD'
p4026
F0.9769
tp4027
a(S'type'
p4028
S'VB'
p4029
F0.8913
tp4030
a(S'fast'
p4031
S'RB'
p4032
F0.8367
tp4033
a(S'on'
p4034
S'IN'
p4035
F0.9954
tp4036
a(S'the'
p4037
S'DT'
p4038
F0.9932
tp4039
a(S'new'
p4040
S'JJ'
p4041
F0.9681
tp4042
a(S'keyboard'
p4043
S'NN'
p4044
F0.9854
tp4045
a(g66
g66
F0.9966
tp4046
ag62
tp4047
a((lp4048
(S'RT'
p4049
S'RT'
p4050
F0.9539
tp4051
a(S'Apple'
p4052
S'NNP'
p4053
F0.9877
tp4054
a(S'Music'
p4055
S'NNP'
p4056
F0.5153
tp4057
a(S'fucking'
p4058
S'VBG'
p4059
F0.4415
tp4060
a(S'sucks'
p4061
S'VBZ'
p4062
F0.9415
tp4063
ag175
tp4064
a((lp4065
(S'good'
p4066
S'JJ'
p4067
F0.7479
tp4068
a(S'job'
p4069
S'NN'
p4070
F0.9146
tp4071
a(S'Apple'
p4072
S'NNP'
p4073
F0.919
tp4074
a(g14
g14
F0.9888
tp4075
a(g137
S'PRP'
p4076
F0.9792
tp4077
a(S"won't"
p4078
S'MD'
p4079
F0.6472
tp4080
a(S'use'
p4081
S'VB'
p4082
F0.9552
tp4083
a(S'half'
p4084
S'JJ'
p4085
F0.3815
tp4086
a(S'these'
p4087
S'DT'
p4088
F0.9771
tp4089
a(S'emojis'
p4090
S'NNS'
p4091
F0.9748
tp4092
a(S'but'
p4093
S'CC'
p4094
F0.9678
tp4095
a(S'you'
p4096
S'PRP'
p4097
F0.9991
tp4098
a(S'did'
p4099
S'VBD'
p4100
F0.9282
tp4101
a(S'well'
p4102
S'RB'
p4103
F0.4357
tp4104
a(S'fam'
p4105
S'JJ'
p4106
F0.4167
tp4107
a(S'????????????????'
p4108
g66
F0.9695
tp4109
ag62
tp4110
a((lp4111
(g3975
S'DT'
p4112
F0.9553
tp4113
a(S'full-charged'
p4114
S'JJ'
p4115
F0.9861
tp4116
a(S'MBP'
p4117
S'NN'
p4118
F0.7125
tp4119
a(S'is'
p4120
S'VBZ'
p4121
F0.9928
tp4122
a(S'good'
p4123
S'JJ'
p4124
F0.9763
tp4125
a(S'enough'
p4126
S'RB'
p4127
F0.844
tp4128
a(S'to'
p4129
S'TO'
p4130
F0.9946
tp4131
a(S'cover'
p4132
S'VB'
p4133
F0.928
tp4134
a(g3529
S'CD'
p4135
F0.7041
tp4136
a(S'days'
p4137
S'NNS'
p4138
F0.8849
tp4139
a(S'business'
p4140
S'NN'
p4141
F0.7786
tp4142
a(S'work'
p4143
S'NN'
p4144
F0.9894
tp4145
a(S'in'
p4146
S'IN'
p4147
F0.9916
tp4148
a(S'weekend'
p4149
S'NN'
p4150
F0.9651
tp4151
a(S'#Razorfish'
p4152
S'HT'
p4153
F0.9587
tp4154
a(S'#RazorfishHK'
p4155
S'HT'
p4156
F0.9717
tp4157
a(S'#MBP'
p4158
S'HT'
p4159
F0.9649
tp4160
ag62
tp4161
a((lp4162
(S'RT'
p4163
S'RT'
p4164
F0.9588
tp4165
a(S"WC's"
p4166
S'NNP'
p4167
F0.5573
tp4168
a(S'album'
p4169
S'NN'
p4170
F0.832
tp4171
a(S'is'
p4172
S'VBZ'
p4173
F0.9943
tp4174
a(S'????????????,'
p4175
S'NNP'
p4176
F0.5207
tp4177
a(S'Apple'
p4178
S'NNP'
p4179
F0.9992
tp4180
a(S'Music'
p4181
S'NN'
p4182
F0.4976
tp4183
a(S'with'
p4184
S'IN'
p4185
F0.9993
tp4186
a(S'the'
p4187
S'DT'
p4188
F0.9878
tp4189
a(S'connect'
p4190
S'NN'
p4191
F0.9619
tp4192
a(g14
g14
F0.9901
tp4193
a(S'good'
p4194
S'JJ'
p4195
F0.9217
tp4196
a(S'job'
p4197
S'NN'
p4198
F0.9808
tp4199
ag62
tp4200
a((lp4201
(S'So'
p4202
S'RB'
p4203
F0.8246
tp4204
a(S'far'
p4205
S'RB'
p4206
F0.9607
tp4207
a(S'has'
p4208
S'VBZ'
p4209
F0.9471
tp4210
a(S'El'
p4211
S'NNP'
p4212
F0.9597
tp4213
a(S'Capitan'
p4214
S'NNP'
p4215
F0.9989
tp4216
a(S'been'
p4217
S'VBN'
p4218
F0.8768
tp4219
a(g166
S'DT'
p4220
F0.9906
tp4221
a(S'complete'
p4222
S'JJ'
p4223
F0.9592
tp4224
a(S'success'
p4225
S'NN'
p4226
F0.7524
tp4227
a(S'on'
p4228
S'IN'
p4229
F0.9947
tp4230
a(S'my'
p4231
S'PRP$'
p4232
F0.9962
tp4233
a(S'4'
p4234
S'CD'
p4235
F0.7675
tp4236
a(g14
g14
F0.9902
tp4237
a(S'5'
p4238
S'CD'
p4239
F0.9937
tp4240
a(S'years'
p4241
S'NNS'
p4242
F0.9694
tp4243
a(S'old'
p4244
S'JJ'
p4245
F0.9773
tp4246
a(S'MBP'
p4247
S'NN'
p4248
F0.4882
tp4249
a(g66
g66
F0.9932
tp4250
a(S'Feels'
p4251
S'VBZ'
p4252
F0.6928
tp4253
a(S'snappier'
p4254
S'JJR'
p4255
F0.7365
tp4256
a(S'and'
p4257
S'CC'
p4258
F0.9963
tp4259
a(S'overall'
p4260
S'RB'
p4261
F0.3229
tp4262
a(S'like'
p4263
S'IN'
p4264
F0.9048
tp4265
a(g166
S'DT'
p4266
F0.9959
tp4267
a(S'newer'
p4268
S'JJ'
p4269
F0.9645
tp4270
a(S'machine'
p4271
S'NN'
p4272
F0.9955
tp4273
a(g66
g66
F0.9949
tp4274
a(S'Good'
p4275
S'JJ'
p4276
F0.8114
tp4277
a(S'job'
p4278
S'NN'
p4279
F0.9525
tp4280
a(S'Apple'
p4281
S'NNP'
p4282
F0.8045
tp4283
a(g287
g66
F0.9949
tp4284
ag62
tp4285
a((lp4286
(g137
S'PRP'
p4287
F0.9968
tp4288
a(S"can't"
p4289
S'MD'
p4290
F0.8392
tp4291
a(S'c'
p4292
S'VB'
p4293
F0.376
tp4294
a(S'la'
p4295
S'NNP'
p4296
F0.931
tp4297
a(S'wth'
p4298
S'UH'
p4299
F0.5633
tp4300
a(S'apple'
p4301
S'NNP'
p4302
F0.4939
tp4303
a(S'sucks'
p4304
S'VBZ'
p4305
F0.9831
tp4306
a(S'????????????????????????'
p4307
g66
F0.9682
tp4308
ag175
tp4309
a((lp4310
(S'RT'
p4311
S'RT'
p4312
F0.9702
tp4313
a(S'ugh'
p4314
S'UH'
p4315
F0.7344
tp4316
a(S'Jobs'
p4317
S'NNS'
p4318
F0.4773
tp4319
a(g1823
S'UH'
p4320
F0.4196
tp4321
a(S'dammit'
p4322
S'UH'
p4323
F0.9954
tp4324
a(S'apple'
p4325
S'UH'
p4326
F0.2955
tp4327
a(S'your'
p4328
S'PRP$'
p4329
F0.8936
tp4330
a(S'autocorrect'
p4331
S'NN'
p4332
F0.8556
tp4333
a(S'sucks'
p4334
S'VBZ'
p4335
F0.958
tp4336
a(S'just'
p4337
S'RB'
p4338
F0.9996
tp4339
a(S'like'
p4340
S'IN'
p4341
F0.5067
tp4342
a(S'your'
p4343
S'PRP$'
p4344
F0.9652
tp4345
a(S'founder'
p4346
S'NN'
p4347
F0.9878
tp4348
ag175
tp4349
a((lp4350
(S'apple'
p4351
S'NNP'
p4352
F0.7966
tp4353
a(S'sucks'
p4354
S'VBZ'
p4355
F0.9755
tp4356
a(S'dick'
p4357
S'NN'
p4358
F0.7106
tp4359
a(S'thats'
p4360
S'DT'
p4361
F0.4226
tp4362
a(S'why'
p4363
S'WRB'
p4364
F0.9104
tp4365
ag175
tp4366
a((lp4367
(S'THE'
p4368
S'DT'
p4369
F0.9151
tp4370
a(S'NEW'
p4371
S'JJ'
p4372
F0.9084
tp4373
a(S'EMOJIS'
p4374
S'NNS'
p4375
F0.9673
tp4376
a(S'ARE'
p4377
S'VBP'
p4378
F0.9567
tp4379
a(S'ON'
p4380
S'IN'
p4381
F0.9286
tp4382
a(S'POINT'
p4383
S'NN'
p4384
F0.4669
tp4385
a(S'GOOD'
p4386
S'JJ'
p4387
F0.8999
tp4388
a(S'JOB'
p4389
S'NN'
p4390
F0.5924
tp4391
a(S'APPLE-Zoe'
p4392
S'NNP'
p4393
F0.7194
tp4394
ag62
tp4395
a((lp4396
(S'Good'
p4397
S'JJ'
p4398
F0.777
tp4399
a(S'job'
p4400
S'NN'
p4401
F0.9488
tp4402
a(S'apple'
p4403
S'NN'
p4404
F0.76
tp4405
a(S'????'
p4406
g66
F0.9764
tp4407
ag62
tp4408
a((lp4409
(S'Dear'
p4410
S'UH'
p4411
F0.7271
tp4412
a(S'Apple'
p4413
S'NNP'
p4414
F0.936
tp4415
a(g14
g14
F0.9881
tp4416
a(S'EL'
p4417
S'NNP'
p4418
F0.979
tp4419
a(S'Capitan'
p4420
S'NNP'
p4421
F0.9994
tp4422
a(S'update'
p4423
S'NN'
p4424
F0.9548
tp4425
a(S'sucks'
p4426
S'VBZ'
p4427
F0.9215
tp4428
a(S'and'
p4429
S'CC'
p4430
F0.9889
tp4431
a(S'ruins'
p4432
S'VBZ'
p4433
F0.3987
tp4434
a(S'all'
p4435
S'DT'
p4436
F0.928
tp4437
a(S'your'
p4438
S'PRP$'
p4439
F0.9764
tp4440
a(S'music'
p4441
S'NN'
p4442
F0.9963
tp4443
a(S'plug-ins'
p4444
S'NNS'
p4445
F0.8669
tp4446
a(S'Sincerely'
p4447
S'RB'
p4448
F0.9891
tp4449
a(g14
g14
F0.9913
tp4450
a(S'All'
p4451
S'DT'
p4452
F0.97
tp4453
a(S'Producers'
p4454
S'NNS'
p4455
F0.9415
tp4456
a(S'#fuckyouapple'
p4457
S'HT'
p4458
F0.9347
tp4459
a(S'#housemusic'
p4460
S'HT'
p4461
F0.985
tp4462
a(S'#producerproblems'
p4463
S'HT'
p4464
F0.9781
tp4465
ag175
tp4466
a((lp4467
(S'these'
p4468
S'DT'
p4469
F0.9072
tp4470
a(S'Apple'
p4471
S'NNP'
p4472
F0.9696
tp4473
a(S'watch'
p4474
S'VB'
p4475
F0.3423
tp4476
a(S'commercials'
p4477
S'NNS'
p4478
F0.9893
tp4479
a(S'are'
p4480
S'VBP'
p4481
F0.9729
tp4482
a(S'worse'
p4483
S'JJ'
p4484
F0.4705
tp4485
a(S'than'
p4486
S'IN'
p4487
F0.9967
tp4488
a(S'the'
p4489
S'DT'
p4490
F0.993
tp4491
a(S'#GOPDebate'
p4492
S'HT'
p4493
F0.9902
tp4494
ag175
tp4495
a((lp4496
(S'good'
p4497
S'JJ'
p4498
F0.7287
tp4499
a(S'job'
p4500
S'NN'
p4501
F0.9308
tp4502
a(S'apple'
p4503
S'NN'
p4504
F0.6959
tp4505
ag62
tp4506
a((lp4507
(S'my'
p4508
S'PRP$'
p4509
F0.9651
tp4510
a(S'new'
p4511
S'JJ'
p4512
F0.9807
tp4513
a(S'macbook'
p4514
S'NN'
p4515
F0.9606
tp4516
a(S'pro'
p4517
S'NN'
p4518
F0.8529
tp4519
a(S'has'
p4520
S'VBZ'
p4521
F0.977
tp4522
a(g166
S'DT'
p4523
F0.9875
tp4524
a(S'SHOCKINGLY'
p4525
S'RB'
p4526
F0.9937
tp4527
a(S'loud'
p4528
S'JJ'
p4529
F0.9681
tp4530
a(S'keyboard'
p4531
S'NN'
p4532
F0.9756
tp4533
a(g66
g66
F0.9961
tp4534
ag175
tp4535
a((lp4536
(S'MBP'
p4537
S'NNP'
p4538
F0.5792
tp4539
a(S'15'
p4540
S'CD'
p4541
F0.9376
tp4542
a(g1545
S"''"
p4543
F0.9841
tp4544
a(g166
S'DT'
p4545
F0.9723
tp4546
a(S'good'
p4547
S'JJ'
p4548
F0.9834
tp4549
a(S'laptop'
p4550
S'NN'
p4551
F0.9129
tp4552
a(S"that's"
p4553
S'WDT'
p4554
F0.2711
tp4555
a(S'for'
p4556
S'IN'
p4557
F0.9702
tp4558
a(S'sure'
p4559
S'JJ'
p4560
F0.9726
tp4561
a(g66
g66
F0.9912
tp4562
a(S"Don't"
p4563
S'VB'
p4564
F0.3921
tp4565
a(S'think'
p4566
S'VB'
p4567
F0.8299
tp4568
a(S'SB'
p4569
S'NNP'
p4570
F0.9103
tp4571
a(S'could'
p4572
S'MD'
p4573
F0.9782
tp4574
a(S'replace'
p4575
S'VB'
p4576
F0.9982
tp4577
a(S'my'
p4578
S'PRP$'
p4579
F0.9736
tp4580
a(S'Aorus'
p4581
S'NNP'
p4582
F0.4858
tp4583
a(S'13'
p4584
S'CD'
p4585
F0.9236
tp4586
a(g1545
S"''"
p4587
F0.9841
tp4588
a(S'but'
p4589
S'CC'
p4590
F0.9773
tp4591
a(S'will'
p4592
S'MD'
p4593
F0.9855
tp4594
a(S'have'
p4595
S'VB'
p4596
F0.995
tp4597
a(S'to'
p4598
S'TO'
p4599
F0.9981
tp4600
a(S'wait'
p4601
S'VB'
p4602
F0.9817
tp4603
a(S'and'
p4604
S'CC'
p4605
F0.992
tp4606
a(S'see'
p4607
S'VB'
p4608
F0.9466
tp4609
a(g66
g66
F0.9951
tp4610
ag62
tp4611
a((lp4612
(S'RT'
p4613
S'RT'
p4614
F0.9679
tp4615
a(S'apple'
p4616
S'NN'
p4617
F0.4675
tp4618
a(S'music'
p4619
S'NN'
p4620
F0.9934
tp4621
a(S'sucks'
p4622
S'VBZ'
p4623
F0.9663
tp4624
a(S'fucking'
p4625
S'JJ'
p4626
F0.4179
tp4627
a(S'dick'
p4628
S'NN'
p4629
F0.8513
tp4630
ag175
tp4631
a((lp4632
(S'No'
p4633
S'DT'
p4634
F0.7999
tp4635
a(S'way'
p4636
S'NN'
p4637
F0.9716
tp4638
a(g14
g14
F0.9888
tp4639
a(S'lol'
p4640
S'UH'
p4641
F0.9732
tp4642
a(S'...'
p4643
g403
F0.9954
tp4644
a(g137
S'PRP'
p4645
F0.9969
tp4646
a(S"don't"
p4647
S'VBP'
p4648
F0.9059
tp4649
a(S'trust'
p4650
S'VB'
p4651
F0.9217
tp4652
a(S'Apple'
p4653
S'NNP'
p4654
F0.9524
tp4655
a(S'updates'
p4656
S'NNS'
p4657
F0.8258
tp4658
a(S'anymore'
p4659
S'RB'
p4660
F0.9187
tp4661
a(g66
g66
F0.9923
tp4662
a(S'Every'
p4663
S'DT'
p4664
F0.8983
tp4665
a(S'new'
p4666
S'JJ'
p4667
F0.9902
tp4668
a(S'version'
p4669
S'NN'
p4670
F0.9939
tp4671
a(S'of'
p4672
S'IN'
p4673
F0.9924
tp4674
a(S'iOS'
p4675
S'NNP'
p4676
F0.9238
tp4677
a(S'is'
p4678
S'VBZ'
p4679
F0.9906
tp4680
a(S'worse'
p4681
S'JJ'
p4682
F0.5505
tp4683
a(g66
g66
F0.9934
tp4684
ag175
tp4685
a((lp4686
(S'The'
p4687
S'DT'
p4688
F0.9573
tp4689
a(S'fan'
p4690
S'NN'
p4691
F0.9596
tp4692
a(S'on'
p4693
S'IN'
p4694
F0.9964
tp4695
a(S'my'
p4696
S'PRP$'
p4697
F0.9964
tp4698
a(S'Macbook'
p4699
S'NN'
p4700
F0.8212
tp4701
a(S'is'
p4702
S'VBZ'
p4703
F0.9922
tp4704
a(S'dying'
p4705
S'VBG'
p4706
F0.9722
tp4707
a(g166
S'DT'
p4708
F0.9913
tp4709
a(S'slow'
p4710
S'JJ'
p4711
F0.8796
tp4712
a(g14
g14
F0.9909
tp4713
a(S'loud'
p4714
S'JJ'
p4715
F0.8768
tp4716
a(S'death'
p4717
S'NN'
p4718
F0.9714
tp4719
a(g66
g66
F0.9959
tp4720
a(S'Guess'
p4721
S'VBP'
p4722
F0.7387
tp4723
a(S"I'll"
p4724
S'PRP'
p4725
F0.9592
tp4726
a(S'have'
p4727
S'VB'
p4728
F0.738
tp4729
a(S'to'
p4730
S'TO'
p4731
F0.9976
tp4732
a(S'order'
p4733
S'VB'
p4734
F0.9913
tp4735
a(g166
S'DT'
p4736
F0.9903
tp4737
a(S'new'
p4738
S'JJ'
p4739
F0.9923
tp4740
a(S'one'
p4741
S'CD'
p4742
F0.5365
tp4743
a(S'once'
p4744
S'RB'
p4745
F0.8625
tp4746
a(S"I'm"
p4747
S'PRP'
p4748
F0.6262
tp4749
a(S'in'
p4750
S'IN'
p4751
F0.995
tp4752
a(S'LA'
p4753
S'NNP'
p4754
F0.9985
tp4755
a(S':('
p4756
S'UH'
p4757
F0.9403
tp4758
ag175
tp4759
a((lp4760
(S"It's"
p4761
S'PRP'
p4762
F0.8257
tp4763
a(S'good'
p4764
S'JJ'
p4765
F0.8504
tp4766
a(g66
g66
F0.9897
tp4767
a(S'Been'
p4768
S'VBN'
p4769
F0.6892
tp4770
a(S'running'
p4771
S'VBG'
p4772
F0.8831
tp4773
a(S'it'
p4774
S'PRP'
p4775
F0.9897
tp4776
a(S'on'
p4777
S'IN'
p4778
F0.9859
tp4779
a(g3529
S'CD'
p4780
F0.6679
tp4781
a(g2455
S'UH'
p4782
F0.6301
tp4783
a(S'MBP'
p4784
S'NNP'
p4785
F0.7686
tp4786
a(S'for'
p4787
S'IN'
p4788
F0.985
tp4789
a(S'about'
p4790
S'IN'
p4791
F0.8833
tp4792
a(g3529
S'CD'
p4793
F0.7765
tp4794
a(S'weeks'
p4795
S'NNS'
p4796
F0.9747
tp4797
a(S'now'
p4798
S'RB'
p4799
F0.9487
tp4800
a(S'....'
p4801
g403
F0.9896
tp4802
a(S'no'
p4803
S'DT'
p4804
F0.8097
tp4805
a(S'probs'
p4806
S'RB'
p4807
F0.551
tp4808
a(S'...'
p4809
g403
F0.9936
tp4810
a(S'but'
p4811
S'CC'
p4812
F0.9721
tp4813
a(S'preparation'
p4814
S'NN'
p4815
F0.9893
tp4816
a(S'is'
p4817
S'VBZ'
p4818
F0.9961
tp4819
a(S'the'
p4820
S'DT'
p4821
F0.9939
tp4822
a(S'important'
p4823
S'JJ'
p4824
F0.9532
tp4825
a(S'part'
p4826
S'NN'
p4827
F0.9938
tp4828
a(S'..'
p4829
g403
F0.8775
tp4830
ag62
tp4831
a((lp4832
(S'good'
p4833
S'JJ'
p4834
F0.7479
tp4835
a(S'job'
p4836
S'NN'
p4837
F0.9146
tp4838
a(S'Apple'
p4839
S'NNP'
p4840
F0.919
tp4841
a(g14
g14
F0.9903
tp4842
a(S'you'
p4843
S'PRP'
p4844
F0.9968
tp4845
a(S'finally'
p4846
S'RB'
p4847
F0.9949
tp4848
a(S'came'
p4849
S'VBD'
p4850
F0.7408
tp4851
a(S'up'
p4852
S'RP'
p4853
F0.8783
tp4854
a(S'with'
p4855
S'IN'
p4856
F0.9995
tp4857
a(g166
S'DT'
p4858
F0.9928
tp4859
a(S'useful'
p4860
S'JJ'
p4861
F0.9537
tp4862
a(S'update'
p4863
S'NN'
p4864
F0.9895
tp4865
a(S'????????'
p4866
g66
F0.9782
tp4867
ag62
tp4868
a((lp4869
(S'GOOD'
p4870
S'JJ'
p4871
F0.756
tp4872
a(S'JOB'
p4873
S'NNP'
p4874
F0.5276
tp4875
a(S'APPLE'
p4876
S'NNP'
p4877
F0.9949
tp4878
a(S'THATS'
p4879
S'WDT'
p4880
F0.2714
tp4881
a(S'WHAT'
p4882
S'WP'
p4883
F0.9415
tp4884
a(S'IVE'
p4885
S'PRP'
p4886
F0.9523
tp4887
a(S'BEEN'
p4888
S'VBN'
p4889
F0.8808
tp4890
a(S'WAITING'
p4891
S'VBG'
p4892
F0.9807
tp4893
a(S'FOR'
p4894
S'IN'
p4895
F0.9163
tp4896
a(S'????????'
p4897
g66
F0.9716
tp4898
ag62
tp4899
a((lp4900
(S'Apple'
p4901
S'NNP'
p4902
F0.9625
tp4903
a(S'Music'
p4904
S'NNP'
p4905
F0.6717
tp4906
a(S'sucks'
p4907
S'VBZ'
p4908
F0.9553
tp4909
a(S'to'
p4910
S'TO'
p4911
F0.9912
tp4912
a(S'me'
p4913
S'PRP'
p4914
F0.9845
tp4915
ag175
tp4916
a((lp4917
(S"I've"
p4918
S'PRP'
p4919
F0.9597
tp4920
a(S'been'
p4921
S'VBN'
p4922
F0.7726
tp4923
a(S'updating'
p4924
S'VBG'
p4925
F0.9955
tp4926
a(S'and'
p4927
S'CC'
p4928
F0.9917
tp4929
a(S'upgrading'
p4930
S'VBG'
p4931
F0.9762
tp4932
a(S'my'
p4933
S'PRP$'
p4934
F0.996
tp4935
a(S'entire'
p4936
S'JJ'
p4937
F0.9589
tp4938
a(S'toolkit'
p4939
S'NN'
p4940
F0.9607
tp4941
a(S'for'
p4942
S'IN'
p4943
F0.9987
tp4944
a(S'the'
p4945
S'DT'
p4946
F0.9954
tp4947
a(S'last'
p4948
S'JJ'
p4949
F0.9225
tp4950
a(g4234
S'CD'
p4951
F0.7797
tp4952
a(S'hours'
p4953
S'NNS'
p4954
F0.9821
tp4955
a(g66
g66
F0.995
tp4956
a(S'Apple'
p4957
S'NNP'
p4958
F0.9163
tp4959
a(S'sucks'
p4960
S'VBZ'
p4961
F0.9241
tp4962
a(S'for'
p4963
S'IN'
p4964
F0.9884
tp4965
a(S'not'
p4966
S'RB'
p4967
F0.9854
tp4968
a(S'doing'
p4969
S'VBG'
p4970
F0.9825
tp4971
a(S'this'
p4972
S'DT'
p4973
F0.9848
tp4974
a(g166
S'DT'
p4975
F0.9762
tp4976
a(S'simple'
p4977
S'JJ'
p4978
F0.8327
tp4979
a(S'and'
p4980
S'CC'
p4981
F0.9899
tp4982
a(S'seamless'
p4983
S'JJ'
p4984
F0.9652
tp4985
a(S'process'
p4986
S'NN'
p4987
F0.8535
tp4988
a(g66
g66
F0.9974
tp4989
ag175
tp4990
a((lp4991
(S'This'
p4992
S'DT'
p4993
F0.9951
tp4994
a(S'middle'
p4995
S'NN'
p4996
F0.9685
tp4997
a(S'finger'
p4998
S'NN'
p4999
F0.988
tp5000
a(S'emoji'
p5001
S'NN'
p5002
F0.6079
tp5003
a(S'might'
p5004
S'MD'
p5005
F0.9614
tp5006
a(S'be'
p5007
S'VB'
p5008
F0.9984
tp5009
a(S'the'
p5010
S'DT'
p5011
F0.9917
tp5012
a(S'best'
p5013
S'JJS'
p5014
F0.9641
tp5015
a(S'update'
p5016
S'NN'
p5017
F0.9876
tp5018
a(S'yet'
p5019
S'RB'
p5020
F0.7093
tp5021
a(S'...'
p5022
g403
F0.9951
tp5023
a(S'Good'
p5024
S'JJ'
p5025
F0.8792
tp5026
a(S'job'
p5027
S'NN'
p5028
F0.9507
tp5029
a(S'Apple'
p5030
S'NNP'
p5031
F0.8591
tp5032
a(S'????????????'
p5033
g66
F0.9745
tp5034
ag62
tp5035
a((lp5036
(g137
S'PRP'
p5037
F0.9968
tp5038
a(S"can't"
p5039
S'MD'
p5040
F0.9266
tp5041
a(S'take'
p5042
S'VB'
p5043
F0.9987
tp5044
a(S'my'
p5045
S'PRP$'
p5046
F0.9898
tp5047
a(S'27'
p5048
S'CD'
p5049
F0.9387
tp5050
a(g1545
S"''"
p5051
F0.9846
tp5052
a(S'iMac'
p5053
S'NNP'
p5054
F0.6923
tp5055
a(S'home'
p5056
S'NN'
p5057
F0.7513
tp5058
a(S'either'
p5059
S'RB'
p5060
F0.3663
tp5061
a(g66
g66
F0.9941
tp5062
a(S"That's"
p5063
S'DT'
p5064
F0.5309
tp5065
a(g166
S'DT'
p5066
F0.9863
tp5067
a(S'good'
p5068
S'JJ'
p5069
F0.9901
tp5070
a(S'thing'
p5071
S'NN'
p5072
F0.9885
tp5073
a(g66
g66
F0.9921
tp5074
a(g137
S'PRP'
p5075
F0.9975
tp5076
a(S'have'
p5077
S'VBP'
p5078
F0.9852
tp5079
a(g166
S'DT'
p5080
F0.9917
tp5081
a(S'15'
p5082
S'CD'
p5083
F0.9751
tp5084
a(g1545
S"''"
p5085
F0.9849
tp5086
a(S'MBP'
p5087
S'NNP'
p5088
F0.5956
tp5089
a(S'if'
p5090
S'IN'
p5091
F0.9931
tp5092
a(g137
S'PRP'
p5093
F0.9991
tp5094
a(S'need'
p5095
S'VBP'
p5096
F0.9784
tp5097
a(g166
S'DT'
p5098
F0.9931
tp5099
a(S'mobile'
p5100
S'JJ'
p5101
F0.5082
tp5102
a(S'machine'
p5103
S'NN'
p5104
F0.9975
tp5105
a(g66
g66
F0.9968
tp5106
ag62
tp5107
a((lp5108
(S'Good'
p5109
S'JJ'
p5110
F0.777
tp5111
a(S'job'
p5112
S'NN'
p5113
F0.9364
tp5114
a(S'Apple'
p5115
S'NNP'
p5116
F0.919
tp5117
a(S'for'
p5118
S'IN'
p5119
F0.9722
tp5120
a(S'making'
p5121
S'VBG'
p5122
F0.9758
tp5123
a(S'Mexican'
p5124
S'NNP'
p5125
F0.7186
tp5126
a(S'food'
p5127
S'NN'
p5128
F0.9504
tp5129
a(S'????????'
p5130
g66
F0.9788
tp5131
ag62
tp5132
a((lp5133
(S'Like'
p5134
S'IN'
p5135
F0.6504
tp5136
a(S"there's"
p5137
S'VBZ'
p5138
F0.2104
tp5139
a(g166
S'DT'
p5140
F0.9938
tp5141
a(S'rude'
p5142
S'JJ'
p5143
F0.9904
tp5144
a(S'finger'
p5145
S'NN'
p5146
F0.9777
tp5147
a(S'and'
p5148
S'CC'
p5149
F0.9945
tp5150
a(g166
S'DT'
p5151
F0.9872
tp5152
a(S'unicorn'
p5153
S'NN'
p5154
F0.9429
tp5155
a(S'emoji'
p5156
S'NN'
p5157
F0.881
tp5158
a(g66
g66
F0.9916
tp5159
a(S'My'
p5160
S'PRP$'
p5161
F0.9928
tp5162
a(S'life'
p5163
S'NN'
p5164
F0.9983
tp5165
a(S'is'
p5166
S'VBZ'
p5167
F0.9963
tp5168
a(S'complete'
p5169
S'JJ'
p5170
F0.9527
tp5171
a(g66
g66
F0.9918
tp5172
a(S'Good'
p5173
S'JJ'
p5174
F0.8114
tp5175
a(S'job'
p5176
S'NN'
p5177
F0.9534
tp5178
a(S'Apple'
p5179
S'NNP'
p5180
F0.9057
tp5181
a(g14
g14
F0.9897
tp5182
a(S'good'
p5183
S'JJ'
p5184
F0.924
tp5185
a(S'job'
p5186
S'NN'
p5187
F0.9859
tp5188
a(g66
g66
F0.9958
tp5189
ag62
tp5190
a((lp5191
(S'Not'
p5192
S'RB'
p5193
F0.9839
tp5194
a(S'keen'
p5195
S'JJ'
p5196
F0.8327
tp5197
a(S'for'
p5198
S'IN'
p5199
F0.9924
tp5200
a(S'relying'
p5201
S'VBG'
p5202
F0.9764
tp5203
a(S'on'
p5204
S'IN'
p5205
F0.9846
tp5206
a(S'3G'
p5207
S'NNP'
p5208
F0.4144
tp5209
a(S'connection'
p5210
S'NN'
p5211
F0.9871
tp5212
a(S'to'
p5213
S'TO'
p5214
F0.9957
tp5215
a(S'play'
p5216
S'VB'
p5217
F0.9977
tp5218
a(S'music'
p5219
S'NN'
p5220
F0.9963
tp5221
a(g14
g14
F0.9882
tp5222
a(S'soz'
p5223
S'UH'
p5224
F0.6349
tp5225
a(S'apple'
p5226
S'UH'
p5227
F0.4781
tp5228
a(g14
g14
F0.9877
tp5229
a(S'most'
p5230
S'JJS'
p5231
F0.8529
tp5232
a(S'of'
p5233
S'IN'
p5234
F0.9951
tp5235
a(S'the'
p5236
S'DT'
p5237
F0.9947
tp5238
a(S'other'
p5239
S'JJ'
p5240
F0.8667
tp5241
a(S'stuff'
p5242
S'NN'
p5243
F0.9573
tp5244
a(S"you've"
p5245
S'PRP'
p5246
F0.952
tp5247
a(S'done'
p5248
S'VBN'
p5249
F0.7754
tp5250
a(S'is'
p5251
S'VBZ'
p5252
F0.985
tp5253
a(S'awesome'
p5254
S'JJ'
p5255
F0.9819
tp5256
a(S'but'
p5257
S'CC'
p5258
F0.9579
tp5259
a(S'this'
p5260
S'DT'
p5261
F0.9717
tp5262
a(S'sucks'
p5263
S'VBZ'
p5264
F0.9321
tp5265
ag175
tp5266
a((lp5267
(S'The'
p5268
S'DT'
p5269
F0.9263
tp5270
a(S'internal'
p5271
S'JJ'
p5272
F0.9033
tp5273
a(S'speakers'
p5274
S'NNS'
p5275
F0.9945
tp5276
a(S'of'
p5277
S'IN'
p5278
F0.9965
tp5279
a(S'the'
p5280
S'DT'
p5281
F0.9946
tp5282
a(S'new'
p5283
S'JJ'
p5284
F0.9577
tp5285
a(S'MacBook'
p5286
S'NN'
p5287
F0.5904
tp5288
a(S'Air'
p5289
S'NN'
p5290
F0.8328
tp5291
a(S'are'
p5292
S'VBP'
p5293
F0.9405
tp5294
a(S'actually'
p5295
S'RB'
p5296
F0.9978
tp5297
a(S'pretty'
p5298
S'RB'
p5299
F0.7538
tp5300
a(S'shit'
p5301
S'NN'
p5302
F0.8601
tp5303
a(g66
g66
F0.9936
tp5304
a(S'Loud'
p5305
S'JJ'
p5306
F0.8052
tp5307
a(S'music'
p5308
S'NN'
p5309
F0.9933
tp5310
a(S'sounds'
p5311
S'VBZ'
p5312
F0.7705
tp5313
a(S'worse'
p5314
S'JJ'
p5315
F0.5425
tp5316
a(S'and'
p5317
S'CC'
p5318
F0.9918
tp5319
a(S'rattlier'
p5320
S'VB'
p5321
F0.2153
tp5322
a(S'than'
p5323
S'IN'
p5324
F0.96
tp5325
a(S'out'
p5326
S'IN'
p5327
F0.6877
tp5328
a(S'of'
p5329
S'IN'
p5330
F0.989
tp5331
a(S'my'
p5332
S'PRP$'
p5333
F0.9768
tp5334
a(S'old'
p5335
S'JJ'
p5336
F0.857
tp5337
a(S'92'
p5338
S'CD'
p5339
F0.8885
tp5340
a(S'Escort'
p5341
S'NN'
p5342
F0.4687
tp5343
a(g66
g66
F0.9957
tp5344
ag175
tp5345
a((lp5346
(g137
S'PRP'
p5347
F0.9957
tp5348
a(S'used'
p5349
S'VBD'
p5350
F0.9932
tp5351
a(g166
S'DT'
p5352
F0.9931
tp5353
a(S'13'
p5354
S'CD'
p5355
F0.9566
tp5356
a(g1545
S"''"
p5357
F0.9838
tp5358
a(S'mbp'
p5359
S'NN'
p5360
F0.7471
tp5361
a(S'for'
p5362
S'IN'
p5363
F0.995
tp5364
a(g4234
S'CD'
p5365
F0.9032
tp5366
a(S'or'
p5367
S'CC'
p5368
F0.9483
tp5369
a(g4238
S'CD'
p5370
F0.9983
tp5371
a(S'years'
p5372
S'NNS'
p5373
F0.9909
tp5374
a(S'and'
p5375
S'CC'
p5376
F0.9893
tp5377
a(S'it'
p5378
S'PRP'
p5379
F0.9977
tp5380
a(S'was'
p5381
S'VBD'
p5382
F0.9756
tp5383
a(S'as'
p5384
S'IN'
p5385
F0.5195
tp5386
a(S'good'
p5387
S'JJ'
p5388
F0.8984
tp5389
a(S'as'
p5390
S'IN'
p5391
F0.974
tp5392
a(S'the'
p5393
S'DT'
p5394
F0.998
tp5395
a(S'day'
p5396
S'NN'
p5397
F0.9951
tp5398
a(g137
S'PRP'
p5399
F0.9971
tp5400
a(S'got'
p5401
S'VBD'
p5402
F0.9846
tp5403
a(S'it'
p5404
S'PRP'
p5405
F0.9961
tp5406
ag62
tp5407
a((lp5408
(S'cope'
p5409
S'VB'
p5410
F0.6634
tp5411
a(g1823
g403
F0.2319
tp5412
a(S'Apple'
p5413
S'NNP'
p5414
F0.9786
tp5415
a(S'sucks'
p5416
S'VBZ'
p5417
F0.9577
tp5418
a(S'cock'
p5419
S'NN'
p5420
F0.9928
tp5421
a(g14
g14
F0.9909
tp5422
a(S'like'
p5423
S'IN'
p5424
F0.611
tp5425
a(S'you'
p5426
S'PRP'
p5427
F0.9782
tp5428
a(S'cod'
p5429
S'NN'
p5430
F0.7022
tp5431
ag175
tp5432
a((lp5433
(S'Stupid'
p5434
S'JJ'
p5435
F0.7937
tp5436
a(S'Apple'
p5437
S'NNP'
p5438
F0.9253
tp5439
a(g287
g66
F0.9844
tp5440
a(S'Since'
p5441
S'IN'
p5442
F0.7572
tp5443
a(S'updating'
p5444
S'VBG'
p5445
F0.9967
tp5446
a(S'to'
p5447
S'TO'
p5448
F0.9908
tp5449
a(S'the'
p5450
S'DT'
p5451
F0.994
tp5452
a(S'new'
p5453
S'JJ'
p5454
F0.9576
tp5455
a(S'iOS'
p5456
S'NNS'
p5457
F0.6113
tp5458
a(S'my'
p5459
S'PRP$'
p5460
F0.9942
tp5461
a(S'battery'
p5462
S'NN'
p5463
F0.9961
tp5464
a(S'is'
p5465
S'VBZ'
p5466
F0.9939
tp5467
a(S'even'
p5468
S'RB'
p5469
F0.9958
tp5470
a(S'worse'
p5471
S'JJR'
p5472
F0.4608
tp5473
a(g287
g66
F0.9836
tp5474
a(S'#apple'
p5475
S'HT'
p5476
F0.902
tp5477
a(S'#iOS9'
p5478
S'HT'
p5479
F0.923
tp5480
a(S'#batterylifesucks'
p5481
S'HT'
p5482
F0.9782
tp5483
ag175
tp5484
a((lp5485
(S'So'
p5486
S'UH'
p5487
F0.3915
tp5488
a(S'apple'
p5489
S'NNP'
p5490
F0.4662
tp5491
a(S'already'
p5492
S'RB'
p5493
F0.9963
tp5494
a(S'talking'
p5495
S'VBG'
p5496
F0.9854
tp5497
a(S'about'
p5498
S'IN'
p5499
F0.9833
tp5500
a(S'iPhone'
p5501
S'NNP'
p5502
F0.8734
tp5503
a(S'7'
p5504
S'CD'
p5505
F0.9596
tp5506
a(S'..'
p5507
g403
F0.9549
tp5508
a(S'sucks'
p5509
S'VBZ'
p5510
F0.7283
tp5511
a(S'for'
p5512
S'IN'
p5513
F0.9969
tp5514
a(S'those'
p5515
S'DT'
p5516
F0.9826
tp5517
a(S'who'
p5518
S'WP'
p5519
F0.9478
tp5520
a(S'just'
p5521
S'RB'
p5522
F0.9986
tp5523
a(S'upgrade'
p5524
S'VB'
p5525
F0.5077
tp5526
a(S'to'
p5527
S'TO'
p5528
F0.9923
tp5529
a(S'iPhone'
p5530
S'NNP'
p5531
F0.8824
tp5532
a(S'6s'
p5533
S'CD'
p5534
F0.5553
tp5535
a(g66
g66
F0.9878
tp5536
a(S'..'
p5537
g403
F0.8906
tp5538
a(S'crazy'
p5539
S'JJ'
p5540
F0.965
tp5541
a(S'how'
p5542
S'WRB'
p5543
F0.9448
tp5544
a(S'tech'
p5545
S'JJ'
p5546
F0.5857
tp5547
a(S'companies'
p5548
S'NNS'
p5549
F0.9949
tp5550
a(S'extort'
p5551
S'VBP'
p5552
F0.5992
tp5553
a(S'customers'
p5554
S'NNS'
p5555
F0.9808
tp5556
ag175
tp5557
a((lp5558
(S'can'
p5559
S'MD'
p5560
F0.9271
tp5561
a(S'you'
p5562
S'PRP'
p5563
F0.9591
tp5564
a(S'folks'
p5565
S'NNS'
p5566
F0.9929
tp5567
a(S'buy'
p5568
S'VB'
p5569
F0.53
tp5570
a(S'Indian'
p5571
S'NNP'
p5572
F0.7914
tp5573
a(S'music'
p5574
S'NN'
p5575
F0.9464
tp5576
a(S'streaming'
p5577
S'NN'
p5578
F0.7561
tp5579
a(S'outlet'
p5580
S'NN'
p5581
F0.9973
tp5582
a(g14
g14
F0.9916
tp5583
a(S'saavn'
p5584
S'NNP'
p5585
F0.235
tp5586
a(S'or'
p5587
S'CC'
p5588
F0.9786
tp5589
a(S'gaana'
p5590
S'VBG'
p5591
F0.6349
tp5592
a(g1277
g66
F0.9839
tp5593
a(S'Indian'
p5594
S'NNP'
p5595
F0.5591
tp5596
a(S'music'
p5597
S'NN'
p5598
F0.9497
tp5599
a(S'repertoire'
p5600
S'NN'
p5601
F0.9662
tp5602
a(S'sucks'
p5603
S'VBZ'
p5604
F0.9509
tp5605
a(S'on'
p5606
S'IN'
p5607
F0.9949
tp5608
a(S'Apple'
p5609
S'NNP'
p5610
F0.9985
tp5611
a(S'Music'
p5612
S'NNP'
p5613
F0.5935
tp5614
a(S'!!'
p5615
g66
F0.9912
tp5616
ag175
tp5617
a((lp5618
(S'Honestly'
p5619
S'RB'
p5620
F0.8869
tp5621
a(S'Apple'
p5622
S'NNP'
p5623
F0.9743
tp5624
a(S'needs'
p5625
S'VBZ'
p5626
F0.9687
tp5627
a(S'to'
p5628
S'TO'
p5629
F0.998
tp5630
a(S'figure'
p5631
S'VB'
p5632
F0.9936
tp5633
a(S'it'
p5634
S'PRP'
p5635
F0.9909
tp5636
a(S'the'
p5637
S'DT'
p5638
F0.9777
tp5639
a(S'fuck'
p5640
S'NN'
p5641
F0.6275
tp5642
a(S'out'
p5643
S'RP'
p5644
F0.6161
tp5645
a(S'the'
p5646
S'DT'
p5647
F0.9925
tp5648
a(S'new'
p5649
S'JJ'
p5650
F0.9293
tp5651
a(S'update'
p5652
S'NN'
p5653
F0.9933
tp5654
a(S'should'
p5655
S'MD'
p5656
F0.9682
tp5657
a(S'make'
p5658
S'VB'
p5659
F0.9984
tp5660
a(S'your'
p5661
S'PRP$'
p5662
F0.9763
tp5663
a(S'phone'
p5664
S'NN'
p5665
F0.9961
tp5666
a(S'better'
p5667
S'JJR'
p5668
F0.4904
tp5669
a(S'not'
p5670
S'RB'
p5671
F0.9969
tp5672
a(S'worse'
p5673
S'JJ'
p5674
F0.6806
tp5675
a(S'????????????'
p5676
g66
F0.9642
tp5677
ag175
tp5678
a((lp5679
(S'????????????????????????????????????????'
p5680
S'NNP'
p5681
F0.1844
tp5682
a(S'\xc3\xa2\xc2\xac'
p5683
S'NNP'
p5684
F0.497
tp5685
a(S'\xe2\x80\xa6'
p5686
g403
F0.2357
tp5687
a(S'\xc3\xaf\xc2\xb8\xc2\x8f'
p5688
S'NN'
p5689
F0.0831
tp5690
a(S'finally'
p5691
S'RB'
p5692
F0.9886
tp5693
a(g287
g66
F0.9876
tp5694
a(S'Good'
p5695
S'JJ'
p5696
F0.8509
tp5697
a(S'job'
p5698
S'NN'
p5699
F0.9534
tp5700
a(S'Apple'
p5701
S'NNP'
p5702
F0.8063
tp5703
a(g287
g66
F0.9898
tp5704
a(S'????????'
p5705
g66
F0.9504
tp5706
ag62
tp5707
a((lp5708
(S'hope'
p5709
S'VBP'
p5710
F0.9519
tp5711
a(S"it's"
p5712
S'PRP'
p5713
F0.8175
tp5714
a(S'better'
p5715
S'JJR'
p5716
F0.7097
tp5717
a(S'than'
p5718
S'IN'
p5719
F0.9916
tp5720
a(S'the'
p5721
S'DT'
p5722
F0.9877
tp5723
a(S'bloated'
p5724
S'JJ'
p5725
F0.8963
tp5726
a(S'mess'
p5727
S'NN'
p5728
F0.707
tp5729
a(S'that'
p5730
S'IN'
p5731
F0.3522
tp5732
a(S'is'
p5733
S'VBZ'
p5734
F0.9971
tp5735
a(S'iTunes'
p5736
S'NNP'
p5737
F0.8842
tp5738
a(S'on'
p5739
S'IN'
p5740
F0.9891
tp5741
a(S'Windows'
p5742
S'NNP'
p5743
F0.9202
tp5744
a(g66
g66
F0.9944
tp5745
a(S"Apple's"
p5746
S'NNP'
p5747
F0.4778
tp5748
a(S'software'
p5749
S'NN'
p5750
F0.9479
tp5751
a(S'sucks'
p5752
S'VBZ'
p5753
F0.9629
tp5754
a(S'on'
p5755
S'IN'
p5756
F0.9869
tp5757
a(S'platforms'
p5758
S'NNS'
p5759
F0.8651
tp5760
a(S'they'
p5761
S'PRP'
p5762
F0.971
tp5763
a(S"don't"
p5764
S'VBP'
p5765
F0.8958
tp5766
a(S'control'
p5767
S'VB'
p5768
F0.5207
tp5769
ag175
tp5770
a((lp5771
(S'Was'
p5772
S'VBD'
p5773
F0.9407
tp5774
a(S'also'
p5775
S'RB'
p5776
F0.997
tp5777
a(S'cool'
p5778
S'JJ'
p5779
F0.9675
tp5780
a(S'to'
p5781
S'TO'
p5782
F0.9956
tp5783
a(S'see'
p5784
S'VB'
p5785
F0.9992
tp5786
a(S'my'
p5787
S'PRP$'
p5788
F0.9718
tp5789
a(S'refurb'
p5790
S'NN'
p5791
F0.9321
tp5792
a(S'MBP'
p5793
S'NN'
p5794
F0.5489
tp5795
a(S'register'
p5796
S'NN'
p5797
F0.6244
tp5798
a(S'as'
p5799
S'IN'
p5800
F0.8363
tp5801
a(S'having'
p5802
S'VBG'
p5803
F0.9831
tp5804
a(S'AppleCare'
p5805
S'NNP'
p5806
F0.5709
tp5807
a(S'shortly'
p5808
S'RB'
p5809
F0.9584
tp5810
a(S'after'
p5811
S'IN'
p5812
F0.9882
tp5813
a(g137
S'PRP'
p5814
F0.9909
tp5815
a(S'activated'
p5816
S'VBD'
p5817
F0.9512
tp5818
a(S'it'
p5819
S'PRP'
p5820
F0.9922
tp5821
a(g66
g66
F0.9908
tp5822
a(S'Always'
p5823
S'RB'
p5824
F0.9969
tp5825
a(S'good'
p5826
S'JJ'
p5827
F0.9615
tp5828
a(S'for'
p5829
S'IN'
p5830
F0.9951
tp5831
a(S'portables'
p5832
S'NNS'
p5833
F0.9701
tp5834
a(S'IMHO'
p5835
S'UH'
p5836
F0.2507
tp5837
a(g66
g66
F0.9651
tp5838
ag62
tp5839
a((lp5840
(S'the'
p5841
S'DT'
p5842
F0.978
tp5843
a(S'mbp'
p5844
S'NN'
p5845
F0.9059
tp5846
a(S'is'
p5847
S'VBZ'
p5848
F0.9927
tp5849
a(S'good'
p5850
S'JJ'
p5851
F0.8798
tp5852
a(g14
g14
F0.9903
tp5853
a(S'runs'
p5854
S'VBZ'
p5855
F0.6506
tp5856
a(S'win'
p5857
S'VB'
p5858
F0.7283
tp5859
a(S'8'
p5860
S'CD'
p5861
F0.9537
tp5862
a(S'but'
p5863
S'CC'
p5864
F0.9776
tp5865
a(S'wont'
p5866
S'MD'
p5867
F0.3076
tp5868
a(S'upg'
p5869
S'VB'
p5870
F0.2388
tp5871
a(S'to'
p5872
S'TO'
p5873
F0.9971
tp5874
a(S'win'
p5875
S'VB'
p5876
F0.9966
tp5877
a(S'10'
p5878
S'CD'
p5879
F0.9939
tp5880
a(g14
g14
F0.9917
tp5881
a(S'no'
p5882
S'DT'
p5883
F0.8825
tp5884
a(S'boot'
p5885
S'NN'
p5886
F0.997
tp5887
a(S'camp'
p5888
S'NN'
p5889
F0.9713
tp5890
a(S'support'
p5891
S'NN'
p5892
F0.9483
tp5893
a(g66
g66
F0.9939
tp5894
a(S'Good'
p5895
S'JJ'
p5896
F0.8391
tp5897
a(S'kit'
p5898
S'NN'
p5899
F0.9706
tp5900
a(g14
g14
F0.9912
tp5901
a(S'bad'
p5902
S'JJ'
p5903
F0.9578
tp5904
a(S'sw'
p5905
S'NNP'
p5906
F0.2987
tp5907
a(S'upg'
p5908
S'NNP'
p5909
F0.719
tp5910
a(S'path'
p5911
S'NN'
p5912
F0.9282
tp5913
a(S'for'
p5914
S'IN'
p5915
F0.995
tp5916
a(S'\xc3\x82\xc2\xa33k'
p5917
S'NNP'
p5918
F0.7677
tp5919
a(S'of'
p5920
S'IN'
p5921
F0.9191
tp5922
a(S'kit'
p5923
S'NN'
p5924
F0.8333
tp5925
ag62
tp5926
a((lp5927
(g137
S'PRP'
p5928
F0.9957
tp5929
a(S'added'
p5930
S'VBD'
p5931
F0.8722
tp5932
a(g166
S'DT'
p5933
F0.9945
tp5934
a(S'video'
p5935
S'NN'
p5936
F0.9945
tp5937
a(S'to'
p5938
S'TO'
p5939
F0.9924
tp5940
a(g166
S'DT'
p5941
F0.9931
tp5942
a(S'playlist'
p5943
S'NN'
p5944
F0.9145
tp5945
a(S'APPLE'
p5946
S'NNP'
p5947
F0.6984
tp5948
a(S'WATCH'
p5949
S'VBP'
p5950
F0.323
tp5951
a(S'SUCKS'
p5952
S'VBZ'
p5953
F0.8069
tp5954
ag175
tp5955
a((lp5956
(S'Samsung'
p5957
S'NNP'
p5958
F0.9371
tp5959
a(S'keyboards'
p5960
S'NNS'
p5961
F0.9388
tp5962
a(S'are'
p5963
S'VBP'
p5964
F0.9498
tp5965
a(S'absolute'
p5966
S'JJ'
p5967
F0.9873
tp5968
a(S'shit'
p5969
S'NN'
p5970
F0.9874
tp5971
a(S'yet'
p5972
S'RB'
p5973
F0.6541
tp5974
a(S"apple's"
p5975
S'NNP'
p5976
F0.6418
tp5977
a(S'tend'
p5978
S'VBD'
p5979
F0.5378
tp5980
a(S'to'
p5981
S'TO'
p5982
F0.9973
tp5983
a(S'be'
p5984
S'VB'
p5985
F0.9993
tp5986
a(S'worse'
p5987
S'JJR'
p5988
F0.4935
tp5989
ag175
tp5990
a((lp5991
(S'\xc3\xaf\xc2\xa3\xc2\xbf\xc3\xaf\xc2\xa3\xc2\xbfThe'
p5992
S'NNP'
p5993
F0.4579
tp5994
a(S'New'
p5995
S'NNP'
p5996
F0.9141
tp5997
a(S'\xc3\xaf\xc2\xa3\xc2\xbf\xc3\xaf\xc2\xa3\xc2\xbf\xc3\xaf\xc2\xa3\xc2\xbfMacBook\xc3\x82\xc2\xae\xc3\x82\xc2\xa9\xc3\xa2\xe2\x80\x9e\xc2\xa2\xc3\xa2\xe2\x80\x9e'
p5998
S'NNP'
p5999
F0.8666
tp6000
a(S'\xe2\x80\x94'
p6001
g403
F0.2492
tp6002
a(S'\xc3\xa2\xe2\x80\x9e'
p6003
S'NN'
p6004
F0.0952
tp6005
a(S'\xc3\xaf\xc2\xa3\xc2\xbf\xc3\xaf\xc2\xa3\xc2\xbf\xc3\xaf\xc2\xa3\xc2\xbf\xc3\xaf\xc2\xa3\xc2\xbf\xc3\xaf\xc2\xa3\xc2\xbf'
p6006
S'NN'
p6007
F0.6209
tp6008
a(S'is'
p6009
S'VBZ'
p6010
F0.9947
tp6011
a(S'the'
p6012
S'DT'
p6013
F0.9941
tp6014
a(S'thinnest'
p6015
S'JJS'
p6016
F0.733
tp6017
a(g14
g14
F0.9916
tp6018
a(S'lightest'
p6019
S'JJS'
p6020
F0.784
tp6021
a(S'thing'
p6022
S'NN'
p6023
F0.9882
tp6024
a(S'ever'
p6025
S'RB'
p6026
F0.9847
tp6027
a(g14
g14
F0.9922
tp6028
a(S'and'
p6029
S'CC'
p6030
F0.9987
tp6031
a(S"it's"
p6032
S'PRP'
p6033
F0.8068
tp6034
a(S'LOUD'
p6035
S'JJ'
p6036
F0.563
tp6037
a(g14
g14
F0.9901
tp6038
a(S'but'
p6039
S'CC'
p6040
F0.996
tp6041
a(S'the'
p6042
S'DT'
p6043
F0.9955
tp6044
a(S'processor'
p6045
S'NN'
p6046
F0.9875
tp6047
a(S'is'
p6048
S'VBZ'
p6049
F0.9958
tp6050
a(S'weak'
p6051
S'JJ'
p6052
F0.9041
tp6053
a(S'and'
p6054
S'CC'
p6055
F0.9928
tp6056
a(S'the'
p6057
S'DT'
p6058
F0.9933
tp6059
a(S'keyboard'
p6060
S'NN'
p6061
F0.9941
tp6062
a(S'is'
p6063
S'VBZ'
p6064
F0.9938
tp6065
a(S'GARBAGE'
p6066
S'NNP'
p6067
F0.7346
tp6068
ag175
tp6069
a((lp6070
(S'Anyone'
p6071
S'NN'
p6072
F0.8533
tp6073
a(S'else'
p6074
S'RB'
p6075
F0.9172
tp6076
a(S'think'
p6077
S'VBP'
p6078
F0.7147
tp6079
a(S'the'
p6080
S'DT'
p6081
F0.9944
tp6082
a(S'new'
p6083
S'JJ'
p6084
F0.9488
tp6085
a(S'MacBook\xc3\xa2\xe2\x82\xac\xe2\x84\xa2s'
p6086
S'NNP'
p6087
F0.2157
tp6088
a(S'keyboard'
p6089
S'NN'
p6090
F0.9421
tp6091
a(S'is'
p6092
S'VBZ'
p6093
F0.994
tp6094
a(S'loud'
p6095
S'JJ'
p6096
F0.8777
tp6097
a(g1277
g66
F0.9843
tp6098
a(S'The'
p6099
S'DT'
p6100
F0.9677
tp6101
a(S'travel'
p6102
S'NN'
p6103
F0.986
tp6104
a(S'doesn\xc3\xa2\xe2\x82\xac\xe2\x84\xa2t'
p6105
S'NN'
p6106
F0.4299
tp6107
a(S'bother'
p6108
S'VB'
p6109
F0.3845
tp6110
a(S'me'
p6111
S'PRP'
p6112
F0.9962
tp6113
a(S'as'
p6114
S'RB'
p6115
F0.5821
tp6116
a(S'much'
p6117
S'RB'
p6118
F0.9656
tp6119
a(S'as'
p6120
S'IN'
p6121
F0.9617
tp6122
a(S'the'
p6123
S'DT'
p6124
F0.9952
tp6125
a(S'noticeable'
p6126
S'JJ'
p6127
F0.8959
tp6128
a(S'clacking'
p6129
S'NN'
p6130
F0.8786
tp6131
a(S'despite'
p6132
S'IN'
p6133
F0.9576
tp6134
a(S'store'
p6135
S'NN'
p6136
F0.8738
tp6137
a(S'noise'
p6138
S'NN'
p6139
F0.9682
tp6140
a(g66
g66
F0.9972
tp6141
ag175
tp6142
a((lp6143
(S'RT'
p6144
S'RT'
p6145
F0.9653
tp6146
a(S'Bro'
p6147
S'UH'
p6148
F0.4416
tp6149
a(S'the'
p6150
S'DT'
p6151
F0.9937
tp6152
a(S'6s'
p6153
S'NNS'
p6154
F0.8793
tp6155
a(S'and'
p6156
S'CC'
p6157
F0.9868
tp6158
a(S'6s'
p6159
S'CD'
p6160
F0.6505
tp6161
a(S'plus'
p6162
S'IN'
p6163
F0.2685
tp6164
a(S'are'
p6165
S'VBP'
p6166
F0.959
tp6167
a(S'practically'
p6168
S'RB'
p6169
F0.979
tp6170
a(S'waterproof'
p6171
S'NN'
p6172
F0.5335
tp6173
a(S'and'
p6174
S'CC'
p6175
F0.9918
tp6176
a(S'drop'
p6177
S'VB'
p6178
F0.8186
tp6179
a(S'proof'
p6180
S'NN'
p6181
F0.9163
tp6182
a(g287
g66
F0.9923
tp6183
a(S'Good'
p6184
S'JJ'
p6185
F0.8509
tp6186
a(S'job'
p6187
S'NN'
p6188
F0.96
tp6189
a(S'Apple'
p6190
S'NNP'
p6191
F0.8396
tp6192
a(g287
g66
F0.9949
tp6193
ag62
tp6194
a((lp6195
(g137
S'PRP'
p6196
F0.9965
tp6197
a(S'love'
p6198
S'VBP'
p6199
F0.9949
tp6200
a(S'jammin'
p6201
S'VBG'
p6202
F0.8482
tp6203
a(S'out'
p6204
S'RP'
p6205
F0.8947
tp6206
a(S'with'
p6207
S'IN'
p6208
F0.9993
tp6209
a(S'the'
p6210
S'DT'
p6211
F0.9963
tp6212
a(S'music'
p6213
S'NN'
p6214
F0.9878
tp6215
a(S'loud'
p6216
S'JJ'
p6217
F0.5098
tp6218
a(S'as'
p6219
S'IN'
p6220
F0.8935
tp6221
a(S'fuck'
p6222
S'VB'
p6223
F0.6302
tp6224
a(S'with'
p6225
S'IN'
p6226
F0.9965
tp6227
a(S'my'
p6228
S'PRP$'
p6229
F0.9881
tp6230
a(S'new'
p6231
S'JJ'
p6232
F0.9845
tp6233
a(S'macbook'
p6234
S'NN'
p6235
F0.9591
tp6236
a(S'pro'
p6237
S'NN'
p6238
F0.7754
tp6239
a(S'and'
p6240
S'CC'
p6241
F0.996
tp6242
a(S'all'
p6243
S'DT'
p6244
F0.9584
tp6245
a(S'my'
p6246
S'PRP$'
p6247
F0.9914
tp6248
a(S'new'
p6249
S'JJ'
p6250
F0.987
tp6251
a(S'music'
p6252
S'NN'
p6253
F0.9884
tp6254
a(S'!!'
p6255
g66
F0.9845
tp6256
a(S'Makes'
p6257
S'VBZ'
p6258
F0.8563
tp6259
a(S'my'
p6260
S'PRP$'
p6261
F0.9898
tp6262
a(S'day'
p6263
S'NN'
p6264
F0.9965
tp6265
a(S'go'
p6266
S'VB'
p6267
F0.5364
tp6268
a(S'by'
p6269
S'IN'
p6270
F0.88
tp6271
a(S'so'
p6272
S'RB'
p6273
F0.9587
tp6274
a(S'much'
p6275
S'RB'
p6276
F0.8691
tp6277
a(S'better'
p6278
S'JJR'
p6279
F0.7584
tp6280
ag62
tp6281
a((lp6282
(S'SO'
p6283
S'RB'
p6284
F0.3859
tp6285
a(S'MANY'
p6286
S'JJ'
p6287
F0.5295
tp6288
a(S'GOOD'
p6289
S'JJ'
p6290
F0.9208
tp6291
a(S'NEW'
p6292
S'JJ'
p6293
F0.9708
tp6294
a(S'EMOJIS'
p6295
S'NNS'
p6296
F0.8688
tp6297
a(S'GOOD'
p6298
S'JJ'
p6299
F0.9293
tp6300
a(S'JOB'
p6301
S'NN'
p6302
F0.5611
tp6303
a(S'APPLE'
p6304
S'NNP'
p6305
F0.7653
tp6306
a(S'????????????????????????'
p6307
g66
F0.9498
tp6308
a(S'\xc3\xa2\xc5\x93\xc2\x8d'
p6309
S'NN'
p6310
F0.1095
tp6311
a(S'????????'
p6312
g66
F0.9439
tp6313
a(S'\xc3\xa2\xcb\x9c\xe2\x80\x9e'
p6314
S'NN'
p6315
F0.1217
tp6316
a(S'????????????????????????'
p6317
g66
F0.9775
tp6318
ag62
tp6319
a((lp6320
(S'RT'
p6321
S'RT'
p6322
F0.9709
tp6323
a(S'How'
p6324
S'WRB'
p6325
F0.9672
tp6326
a(S'good'
p6327
S'JJ'
p6328
F0.9415
tp6329
a(S'is'
p6330
S'VBZ'
p6331
F0.9864
tp6332
a(S'3D'
p6333
S'NNP'
p6334
F0.3898
tp6335
a(S'Touch'
p6336
S'NNP'
p6337
F0.7822
tp6338
a(S'on'
p6339
S'IN'
p6340
F0.9927
tp6341
a(S'the'
p6342
S'DT'
p6343
F0.9932
tp6344
a(S'new'
p6345
S'JJ'
p6346
F0.9576
tp6347
a(S'iPhone'
p6348
S'NN'
p6349
F0.7981
tp6350
a(g1277
g66
F0.9915
tp6351
a(g137
S'PRP'
p6352
F0.995
tp6353
a(S'now'
p6354
S'RB'
p6355
F0.9905
tp6356
a(S'try'
p6357
S'VB'
p6358
F0.7668
tp6359
a(S'to'
p6360
S'TO'
p6361
F0.9925
tp6362
a(S'3D'
p6363
S'VB'
p6364
F0.3064
tp6365
a(S'touch'
p6366
S'NN'
p6367
F0.8835
tp6368
a(S'also'
p6369
S'RB'
p6370
F0.9985
tp6371
a(S'on'
p6372
S'IN'
p6373
F0.986
tp6374
a(S'my'
p6375
S'PRP$'
p6376
F0.9963
tp6377
a(S'iPad'
p6378
S'NNP'
p6379
F0.5804
tp6380
a(g66
g66
F0.9952
tp6381
a(S'Yes'
p6382
S'UH'
p6383
F0.9533
tp6384
a(g14
g14
F0.9835
tp6385
a(S"it's"
p6386
S'PRP'
p6387
F0.8237
tp6388
a(S'that'
p6389
S'DT'
p6390
F0.7394
tp6391
a(S'good'
p6392
S'JJ'
p6393
F0.8935
tp6394
a(g14
g14
F0.9902
tp6395
a(S'great'
p6396
S'JJ'
p6397
F0.9862
tp6398
a(S'job'
p6399
S'NN'
p6400
F0.9554
tp6401
a(S'Apple'
p6402
S'NNP'
p6403
F0.8399
tp6404
a(g287
g66
F0.9958
tp6405
ag62
tp6406
a((lp6407
(S'for'
p6408
S'IN'
p6409
F0.9747
tp6410
a(S'mac'
p6411
S'NNP'
p6412
F0.9275
tp6413
a(S'user'
p6414
S'NN'
p6415
F0.6075
tp6416
a(S'please'
p6417
S'UH'
p6418
F0.9126
tp6419
a(S'dont'
p6420
S'VB'
p6421
F0.6535
tp6422
a(S'upgrade'
p6423
S'VB'
p6424
F0.9097
tp6425
a(S'to'
p6426
S'TO'
p6427
F0.9923
tp6428
a(S'OS'
p6429
S'NNP'
p6430
F0.8646
tp6431
a(g2137
S'UH'
p6432
F0.7446
tp6433
a(S'EL'
p6434
S'NNP'
p6435
F0.8557
tp6436
a(S'Capitan'
p6437
S'NNP'
p6438
F0.9979
tp6439
a(g287
g66
F0.9878
tp6440
a(S'worse'
p6441
S'JJR'
p6442
F0.4569
tp6443
a(S'update'
p6444
S'NN'
p6445
F0.9728
tp6446
a(S'from'
p6447
S'IN'
p6448
F0.9964
tp6449
a(S'apple'
p6450
S'NNP'
p6451
F0.4957
tp6452
a(g66
g66
F0.9942
tp6453
a(S'the'
p6454
S'DT'
p6455
F0.994
tp6456
a(S'new'
p6457
S'JJ'
p6458
F0.9732
tp6459
a(S'os'
p6460
S'NN'
p6461
F0.63
tp6462
a(S'still'
p6463
S'RB'
p6464
F0.9733
tp6465
a(S'not'
p6466
S'RB'
p6467
F0.9963
tp6468
a(S'stable'
p6469
S'JJ'
p6470
F0.9697
tp6471
a(S'????'
p6472
g66
F0.9671
tp6473
ag175
tp6474
a((lp6475
(S'apple'
p6476
S'NNP'
p6477
F0.8145
tp6478
a(S'turn'
p6479
S'VBP'
p6480
F0.5447
tp6481
a(S'overs'
p6482
S'NNS'
p6483
F0.9522
tp6484
a(S'were'
p6485
S'VBD'
p6486
F0.9186
tp6487
a(g166
S'DT'
p6488
F0.9976
tp6489
a(S'success'
p6490
S'NN'
p6491
F0.9388
tp6492
a(S'good'
p6493
S'JJ'
p6494
F0.9349
tp6495
a(S'job'
p6496
S'NN'
p6497
F0.9771
tp6498
a(S'donna'
p6499
S'NNP'
p6500
F0.4392
tp6501
a(S'!!!'
p6502
g66
F0.9954
tp6503
ag62
tp6504
a((lp6505
(S'Apple'
p6506
S'NNP'
p6507
F0.9625
tp6508
a(S'Music'
p6509
S'NN'
p6510
F0.5627
tp6511
a(S'is'
p6512
S'VBZ'
p6513
F0.9891
tp6514
a(S'so'
p6515
S'RB'
p6516
F0.9853
tp6517
a(S'much'
p6518
S'RB'
p6519
F0.8692
tp6520
a(S'better'
p6521
S'JJR'
p6522
F0.7648
tp6523
a(S'than'
p6524
S'IN'
p6525
F0.9889
tp6526
a(S'Spotify'
p6527
S'NNP'
p6528
F0.9918
tp6529
a(g66
g66
F0.9936
tp6530
a(S'Good'
p6531
S'JJ'
p6532
F0.8114
tp6533
a(S'job'
p6534
S'NN'
p6535
F0.991
tp6536
a(S'Jobs'
p6537
S'NNS'
p6538
F0.8614
tp6539
a(g66
g66
F0.9956
tp6540
a(S'#rip'
p6541
S'HT'
p6542
F0.9781
tp6543
ag62
tp6544
a((lp6545
(S'So'
p6546
S'RB'
p6547
F0.8246
tp6548
a(S'far'
p6549
S'RB'
p6550
F0.9344
tp6551
a(S'so'
p6552
S'RB'
p6553
F0.9459
tp6554
a(S'good'
p6555
S'JJ'
p6556
F0.9617
tp6557
a(g14
g14
F0.985
tp6558
a(S'El'
p6559
S'NNP'
p6560
F0.99
tp6561
a(S'Capitan'
p6562
S'NNP'
p6563
F0.9988
tp6564
a(g66
g66
F0.9923
tp6565
a(S'Still'
p6566
S'RB'
p6567
F0.9907
tp6568
a(S'working'
p6569
S'VBG'
p6570
F0.9299
tp6571
a(S'fine'
p6572
S'JJ'
p6573
F0.7338
tp6574
a(S'with'
p6575
S'IN'
p6576
F0.999
tp6577
a(S'my'
p6578
S'PRP$'
p6579
F0.9881
tp6580
a(S'ppc'
p6581
S'NN'
p6582
F0.7948
tp6583
a(S'mbp'
p6584
S'NN'
p6585
F0.8932
tp6586
a(g66
g66
F0.9949
tp6587
ag62
tp6588
a((lp6589
(g137
S'PRP'
p6590
F0.992
tp6591
a(S'just'
p6592
S'RB'
p6593
F0.9967
tp6594
a(S'watched'
p6595
S'VBD'
p6596
F0.8498
tp6597
a(S'Turbo'
p6598
S'NNP'
p6599
F0.9709
tp6600
a(S'Kid'
p6601
S'NNP'
p6602
F0.9463
tp6603
a(S'today'
p6604
S'NN'
p6605
F0.9839
tp6606
a(S'and'
p6607
S'CC'
p6608
F0.998
tp6609
a(g137
S'PRP'
p6610
F0.9945
tp6611
a(S'love'
p6612
S'VBP'
p6613
F0.99
tp6614
a(S'Apple'
p6615
S'NNP'
p6616
F0.945
tp6617
a(S':)'
p6618
S'UH'
p6619
F0.9156
tp6620
a(S'good'
p6621
S'JJ'
p6622
F0.9018
tp6623
a(S'job'
p6624
S'NN'
p6625
F0.9834
tp6626
a(g287
g66
F0.9964
tp6627
ag62
tp6628
a((lp6629
(S'RT'
p6630
S'RT'
p6631
F0.9667
tp6632
a(S'Yes'
p6633
S'UH'
p6634
F0.9202
tp6635
a(g14
g14
F0.9852
tp6636
a(S'one'
p6637
S'CD'
p6638
F0.9385
tp6639
a(S'reason'
p6640
S'NN'
p6641
F0.9601
tp6642
a(S'why'
p6643
S'WRB'
p6644
F0.9193
tp6645
a(g137
S'PRP'
p6646
F0.9948
tp6647
a(S'lean'
p6648
S'VBP'
p6649
F0.591
tp6650
a(S'towards'
p6651
S'IN'
p6652
F0.9766
tp6653
a(S'using'
p6654
S'VBG'
p6655
F0.9887
tp6656
a(S'Apple\xc3\xa2\xe2\x82\xac\xe2\x84\xa2s'
p6657
S'NNP'
p6658
F0.3337
tp6659
a(S'own'
p6660
S'JJ'
p6661
F0.9057
tp6662
a(S'apps'
p6663
S'NNS'
p6664
F0.6386
tp6665
a(S'for'
p6666
S'IN'
p6667
F0.9942
tp6668
a(S'better'
p6669
S'JJR'
p6670
F0.5337
tp6671
a(S'or'
p6672
S'CC'
p6673
F0.9766
tp6674
a(S'worse'
p6675
S'JJ'
p6676
F0.4905
tp6677
a(g66
g66
F0.9951
tp6678
ag62
tp6679
a((lp6680
(S'this'
p6681
S'DT'
p6682
F0.9942
tp6683
a(S'mantra'
p6684
S'NN'
p6685
F0.9016
tp6686
a(S'from'
p6687
S'IN'
p6688
F0.9992
tp6689
a(S'Apple'
p6690
S'NNP'
p6691
F0.9949
tp6692
a(S'sucks'
p6693
S'VBZ'
p6694
F0.9173
tp6695
a(g66
g66
F0.9939
tp6696
a(S'Honestly'
p6697
S'RB'
p6698
F0.975
tp6699
a(g403
g403
F0.9671
tp6700
a(S'There\xc3\xa2\xe2\x82\xac\xe2\x84\xa2s'
p6701
S'NNS'
p6702
F0.3725
tp6703
a(S'enough'
p6704
S'JJ'
p6705
F0.6019
tp6706
a(S'information'
p6707
S'NN'
p6708
F0.9746
tp6709
a(S'in'
p6710
S'IN'
p6711
F0.9923
tp6712
a(S'my'
p6713
S'PRP$'
p6714
F0.9824
tp6715
a(S'tweet'
p6716
S'NN'
p6717
F0.9252
tp6718
a(g66
g66
F0.9873
tp6719
a(S'If'
p6720
S'IN'
p6721
F0.9675
tp6722
a(S'you'
p6723
S'PRP'
p6724
F0.9996
tp6725
a(S'cared'
p6726
S'VBD'
p6727
F0.8775
tp6728
a(g14
g14
F0.989
tp6729
a(S'you'
p6730
S'PRP'
p6731
F0.998
tp6732
a(S'could'
p6733
S'MD'
p6734
F0.9473
tp6735
a(S'file'
p6736
S'VB'
p6737
F0.9944
tp6738
a(S'it'
p6739
S'PRP'
p6740
F0.9962
tp6741
a(S'yourself'
p6742
S'PRP'
p6743
F0.9483
tp6744
a(g66
g66
F0.9948
tp6745
ag175
tp6746
a((lp6747
(S'Also'
p6748
S'RB'
p6749
F0.9611
tp6750
a(S'the'
p6751
S'DT'
p6752
F0.9889
tp6753
a(S'multitasking'
p6754
S'NNP'
p6755
F0.6147
tp6756
a(S'is'
p6757
S'VBZ'
p6758
F0.9945
tp6759
a(S'now'
p6760
S'RB'
p6761
F0.9969
tp6762
a(S'WORSE'
p6763
S'JJ'
p6764
F0.3764
tp6765
a(g14
g14
F0.9906
tp6766
a(S'like'
p6767
S'IN'
p6768
F0.7023
tp6769
a(S'that'
p6770
S'DT'
p6771
F0.9082
tp6772
a(S'shitty'
p6773
S'JJ'
p6774
F0.9066
tp6775
a(S'windows'
p6776
S'NN'
p6777
F0.7029
tp6778
a(S'vista'
p6779
S'NN'
p6780
F0.866
tp6781
a(S'multitasking'
p6782
S'NN'
p6783
F0.324
tp6784
a(S'shit'
p6785
S'NN'
p6786
F0.9869
tp6787
a(S'...'
p6788
g403
F0.9967
tp6789
a(S'Apple'
p6790
S'NNP'
p6791
F0.8045
tp6792
a(S'is'
p6793
S'VBZ'
p6794
F0.9948
tp6795
a(S'out'
p6796
S'RP'
p6797
F0.6951
tp6798
a(S'to'
p6799
S'TO'
p6800
F0.995
tp6801
a(S'lunch'
p6802
S'NN'
p6803
F0.6935
tp6804
a(S'with'
p6805
S'IN'
p6806
F0.9987
tp6807
a(S'their'
p6808
S'PRP$'
p6809
F0.8904
tp6810
a(S'new'
p6811
S'JJ'
p6812
F0.9942
tp6813
a(S'shit'
p6814
S'NN'
p6815
F0.9738
tp6816
a(g137
S'PRP'
p6817
F0.9956
tp6818
a(S'swear'
p6819
S'VBP'
p6820
F0.9401
tp6821
a(g66
g66
F0.9955
tp6822
ag175
tp6823
a((lp6824
(S'stick'
p6825
S'VB'
p6826
F0.8321
tp6827
a(S'your'
p6828
S'PRP$'
p6829
F0.9262
tp6830
a(S'apple'
p6831
S'NN'
p6832
F0.8088
tp6833
a(S'tv'
p6834
S'NN'
p6835
F0.9728
tp6836
a(S'up'
p6837
S'RP'
p6838
F0.6728
tp6839
a(S'your'
p6840
S'PRP$'
p6841
F0.9959
tp6842
a(S'ass'
p6843
S'NN'
p6844
F0.9379
tp6845
a(g66
g66
F0.9941
tp6846
a(S'Everyone'
p6847
S'NN'
p6848
F0.9591
tp6849
a(g385
S'PRP'
p6850
F0.9712
tp6851
a(S'know'
p6852
S'VBP'
p6853
F0.9831
tp6854
a(S'had'
p6855
S'VBD'
p6856
F0.6167
tp6857
a(S'trouble'
p6858
S'NN'
p6859
F0.9852
tp6860
a(S'streaming'
p6861
S'VBG'
p6862
F0.5389
tp6863
a(S'the'
p6864
S'DT'
p6865
F0.9955
tp6866
a(S'game'
p6867
S'NN'
p6868
F0.9909
tp6869
a(g66
g66
F0.9939
tp6870
a(S'Goodell'
p6871
S'NNP'
p6872
F0.829
tp6873
a(S'and'
p6874
S'CC'
p6875
F0.9964
tp6876
a(S'his'
p6877
S'PRP$'
p6878
F0.7968
tp6879
a(S'london'
p6880
S'NNP'
p6881
F0.8997
tp6882
a(S'yahoo'
p6883
S'NNP'
p6884
F0.7098
tp6885
a(S'crap'
p6886
S'NN'
p6887
F0.8099
tp6888
a(S'sucks'
p6889
S'VBZ'
p6890
F0.9584
tp6891
ag175
tp6892
a((lp6893
(S'RT'
p6894
S'RT'
p6895
F0.9539
tp6896
a(S'Apple'
p6897
S'NNP'
p6898
F0.9531
tp6899
a(S'is'
p6900
S'VBZ'
p6901
F0.9941
tp6902
a(S'worse'
p6903
S'JJ'
p6904
F0.7321
tp6905
a(S'...'
p6906
g403
F0.9945
tp6907
a(S'and'
p6908
S'CC'
p6909
F0.994
tp6910
a(S'the'
p6911
S'DT'
p6912
F0.9954
tp6913
a(S'updates'
p6914
S'NNS'
p6915
F0.9825
tp6916
a(S'are'
p6917
S'VBP'
p6918
F0.9725
tp6919
a(S'massive'
p6920
S'JJ'
p6921
F0.9751
tp6922
a(S'...'
p6923
g403
F0.9971
tp6924
a(S'these'
p6925
S'DT'
p6926
F0.9871
tp6927
a(S'smart'
p6928
S'JJ'
p6929
F0.8938
tp6930
a(S'phones'
p6931
S'NNS'
p6932
F0.8904
tp6933
a(S'sold'
p6934
S'VBD'
p6935
F0.8351
tp6936
a(S'us'
p6937
S'PRP'
p6938
F0.7095
tp6939
a(S'dreams'
p6940
S'NNS'
p6941
F0.9224
tp6942
a(S'...'
p6943
g403
F0.9963
tp6944
a(S'mxm'
p6945
S'UH'
p6946
F0.8125
tp6947
a(g287
g66
F0.9662
tp6948
ag175
tp6949
a((lp6950
(S'Updated'
p6951
S'VBD'
p6952
F0.7632
tp6953
a(S'my'
p6954
S'PRP$'
p6955
F0.9945
tp6956
a(S'iMac'
p6957
S'NN'
p6958
F0.5055
tp6959
a(g14
g14
F0.9908
tp6960
a(S'MBA'
p6961
S'NNP'
p6962
F0.9738
tp6963
a(g2799
S'CC'
p6964
F0.8925
tp6965
a(S'MBP'
p6966
S'NNP'
p6967
F0.7367
tp6968
a(S'with'
p6969
S'IN'
p6970
F0.9924
tp6971
a(S'latest'
p6972
S'JJ'
p6973
F0.5228
tp6974
a(S'#ElCapitan'
p6975
S'HT'
p6976
F0.9424
tp6977
a(S'10.11.1'
p6978
S'CD'
p6979
F0.9893
tp6980
a(S'and'
p6981
S'CC'
p6982
F0.9954
tp6983
a(S'so'
p6984
S'RB'
p6985
F0.9639
tp6986
a(S'far'
p6987
S'RB'
p6988
F0.9376
tp6989
a(S'so'
p6990
S'RB'
p6991
F0.9429
tp6992
a(S'good'
p6993
S'JJ'
p6994
F0.9837
tp6995
a(S'#Office2016'
p6996
S'HT'
p6997
F0.8831
tp6998
a(S'is'
p6999
S'VBZ'
p7000
F0.9886
tp7001
a(S'not'
p7002
S'RB'
p7003
F0.996
tp7004
a(S'crashing'
p7005
S'VBG'
p7006
F0.8884
tp7007
a(g14
g14
F0.9869
tp7008
a(S'Outlook'
p7009
S'NNP'
p7010
F0.5137
tp7011
a(S'is'
p7012
S'VBZ'
p7013
F0.9951
tp7014
a(S'performing'
p7015
S'VBG'
p7016
F0.9601
tp7017
a(S'ok'
p7018
S'UH'
p7019
F0.7633
tp7020
ag62
tp7021
a((lp7022
(S'My'
p7023
S'PRP$'
p7024
F0.9448
tp7025
a(S'new'
p7026
S'JJ'
p7027
F0.9811
tp7028
a(S'MacBook'
p7029
S'NN'
p7030
F0.578
tp7031
a(S'Air'
p7032
S'NN'
p7033
F0.6612
tp7034
a(S'stays'
p7035
S'VBZ'
p7036
F0.754
tp7037
a(S'getting'
p7038
S'VBG'
p7039
F0.9949
tp7040
a(S'ultra'
p7041
S'RB'
p7042
F0.6861
tp7043
a(S'hot'
p7044
S'JJ'
p7045
F0.9704
tp7046
a(S'and'
p7047
S'CC'
p7048
F0.9927
tp7049
a(S'the'
p7050
S'DT'
p7051
F0.9953
tp7052
a(S'fans'
p7053
S'NNS'
p7054
F0.9581
tp7055
a(S'pumping'
p7056
S'VBG'
p7057
F0.9249
tp7058
a(S'loud'
p7059
S'JJ'
p7060
F0.9089
tp7061
a(S'overtime'
p7062
S'NN'
p7063
F0.9927
tp7064
a(g66
g66
F0.9956
tp7065
a(S'Does'
p7066
S'VBZ'
p7067
F0.7995
tp7068
a(S'anyone'
p7069
S'NN'
p7070
F0.9553
tp7071
a(S'else'
p7072
S'RB'
p7073
F0.5037
tp7074
a(S'experience'
p7075
S'NN'
p7076
F0.8633
tp7077
a(S'that'
p7078
S'DT'
p7079
F0.3164
tp7080
a(g1277
g66
F0.9948
tp7081
ag175
tp7082
a((lp7083
(S'Apple'
p7084
S'NNP'
p7085
F0.9625
tp7086
a(S'Music'
p7087
S'NNP'
p7088
F0.6717
tp7089
a(S'sucks'
p7090
S'VBZ'
p7091
F0.9481
tp7092
a(S'compared'
p7093
S'VBN'
p7094
F0.8699
tp7095
a(S'to'
p7096
S'TO'
p7097
F0.9935
tp7098
a(S'Spotify'
p7099
S'NNP'
p7100
F0.9834
tp7101
a(S'????'
p7102
g66
F0.9774
tp7103
ag175
tp7104
a((lp7105
(S'But'
p7106
S'CC'
p7107
F0.9662
tp7108
a(S'also'
p7109
S'RB'
p7110
F0.9972
tp7111
a(S'good'
p7112
S'JJ'
p7113
F0.9812
tp7114
a(S'job'
p7115
S'NN'
p7116
F0.9179
tp7117
a(S'Apple'
p7118
S'NNP'
p7119
F0.9089
tp7120
a(S'for'
p7121
S'IN'
p7122
F0.9826
tp7123
a(S'being'
p7124
S'VBG'
p7125
F0.9639
tp7126
a(S'religiously'
p7127
S'RB'
p7128
F0.9924
tp7129
a(S'inclusive'
p7130
S'JJ'
p7131
F0.5612
tp7132
a(S'\xc3\xa2\xe2\x80\xba\xc2\xaa\xc3\xaf\xc2\xb8\xc2\x8f'
p7133
S'NN'
p7134
F0.2957
tp7135
a(S'????????????'
p7136
g66
F0.9439
tp7137
a(S'\xc3\xa2\xe2\x80\xba\xc2\xa9'
p7138
S'NN'
p7139
F0.1217
tp7140
a(S'????????????'
p7141
g66
F0.9775
tp7142
ag62
tp7143
a((lp7144
(S'wow'
p7145
S'UH'
p7146
F0.963
tp7147
a(S'all'
p7148
S'DT'
p7149
F0.965
tp7150
a(S'these'
p7151
S'DT'
p7152
F0.9845
tp7153
a(S'new'
p7154
S'JJ'
p7155
F0.9925
tp7156
a(S'emojis'
p7157
S'NNS'
p7158
F0.9836
tp7159
a(S'are'
p7160
S'VBP'
p7161
F0.9763
tp7162
a(S'great'
p7163
S'JJ'
p7164
F0.9852
tp7165
a(g66
g66
F0.9914
tp7166
a(S'good'
p7167
S'JJ'
p7168
F0.9245
tp7169
a(S'job'
p7170
S'NN'
p7171
F0.9424
tp7172
a(S'Apple'
p7173
S'NNP'
p7174
F0.8997
tp7175
ag62
tp7176
a((lp7177
(S'Apple'
p7178
S'NNP'
p7179
F0.8835
tp7180
a(g14
g14
F0.9903
tp7181
a(S'stop'
p7182
S'VB'
p7183
F0.8452
tp7184
a(S'pushing'
p7185
S'VBG'
p7186
F0.9949
tp7187
a(S'The'
p7188
S'DT'
p7189
F0.787
tp7190
a(S'Cloud'
p7191
S'NNP'
p7192
F0.8926
tp7193
a(S'on'
p7194
S'IN'
p7195
F0.9921
tp7196
a(S'me'
p7197
S'PRP'
p7198
F0.98
tp7199
a(g14
g14
F0.9881
tp7200
a(S"you're"
p7201
S'PRP'
p7202
F0.4638
tp7203
a(S'worse'
p7204
S'JJ'
p7205
F0.4999
tp7206
a(S'than'
p7207
S'IN'
p7208
F0.9933
tp7209
a(S'my'
p7210
S'PRP$'
p7211
F0.9533
tp7212
a(S'crack'
p7213
S'NN'
p7214
F0.9456
tp7215
a(S'dealer'
p7216
S'NN'
p7217
F0.9905
tp7218
a(g66
g66
F0.9956
tp7219
a(S'Which'
p7220
S'WDT'
p7221
F0.4761
tp7222
a(S'reminds'
p7223
S'VBZ'
p7224
F0.9663
tp7225
a(S'me'
p7226
S'PRP'
p7227
F0.9947
tp7228
a(g14
g14
F0.9874
tp7229
a(g137
S'PRP'
p7230
F0.9903
tp7231
a(S'need'
p7232
S'VBP'
p7233
F0.9937
tp7234
a(S'to'
p7235
S'TO'
p7236
F0.9954
tp7237
a(S'stock'
p7238
S'VB'
p7239
F0.8756
tp7240
a(S'up'
p7241
S'RP'
p7242
F0.704
tp7243
a(S'on'
p7244
S'IN'
p7245
F0.9946
tp7246
a(S'crack'
p7247
S'NN'
p7248
F0.7502
tp7249
a(S'and'
p7250
S'CC'
p7251
F0.9829
tp7252
a(S'backup'
p7253
S'JJ'
p7254
F0.4513
tp7255
a(S'my'
p7256
S'PRP$'
p7257
F0.9903
tp7258
a(S'files'
p7259
S'NNS'
p7260
F0.9839
tp7261
a(g66
g66
F0.9974
tp7262
ag175
tp7263
a((lp7264
(g137
S'PRP'
p7265
F0.9982
tp7266
a(S'hate'
p7267
S'VBP'
p7268
F0.9947
tp7269
a(S'Apple'
p7270
S'NNP'
p7271
F0.9599
tp7272
a(S'and'
p7273
S'CC'
p7274
F0.9923
tp7275
a(S'iPhones'
p7276
S'NNS'
p7277
F0.7088
tp7278
a(g137
S'PRP'
p7279
F0.9977
tp7280
a(S'have'
p7281
S'VBP'
p7282
F0.9815
tp7283
a(S'The'
p7284
S'DT'
p7285
F0.9349
tp7286
a(S'worse'
p7287
S'JJ'
p7288
F0.8092
tp7289
a(S'luck'
p7290
S'NN'
p7291
F0.9576
tp7292
a(S'with'
p7293
S'IN'
p7294
F0.9972
tp7295
a(S'phones'
p7296
S'NNS'
p7297
F0.882
tp7298
a(S'my'
p7299
S'PRP$'
p7300
F0.9933
tp7301
a(S'phone'
p7302
S'NN'
p7303
F0.9922
tp7304
a(S"won't"
p7305
S'MD'
p7306
F0.4909
tp7307
a(S'dial'
p7308
S'VB'
p7309
F0.9471
tp7310
a(S'out'
p7311
S'RP'
p7312
F0.9065
tp7313
a(S'and'
p7314
S'CC'
p7315
F0.9909
tp7316
a(S'as'
p7317
S'IN'
p7318
F0.5491
tp7319
a(S'soon'
p7320
S'RB'
p7321
F0.9491
tp7322
a(g137
S'PRP'
p7323
F0.9929
tp7324
a(S'finally'
p7325
S'RB'
p7326
F0.9739
tp7327
a(S'get'
p7328
S'VB'
p7329
F0.5971
tp7330
a(g166
S'DT'
p7331
F0.9816
tp7332
a(S'call'
p7333
S'NN'
p7334
F0.868
tp7335
a(g137
S'PRP'
p7336
F0.9972
tp7337
a(S"can't"
p7338
S'MD'
p7339
F0.9374
tp7340
a(S'hear'
p7341
S'VB'
p7342
F0.9708
tp7343
a(S'nothing'
p7344
S'NN'
p7345
F0.9772
tp7346
a(S'????????'
p7347
g66
F0.9862
tp7348
ag175
tp7349
a((lp7350
(S'Apple'
p7351
S'NNP'
p7352
F0.9036
tp7353
a(S'TV'
p7354
S'NNP'
p7355
F0.8267
tp7356
a(S'2015'
p7357
S'CD'
p7358
F0.6965
tp7359
a(S'review'
p7360
S'NN'
p7361
F0.9791
tp7362
a(g403
g403
F0.9695
tp7363
a(S'Fast'
p7364
S'RB'
p7365
F0.5114
tp7366
a(S'and'
p7367
S'CC'
p7368
F0.9893
tp7369
a(S'easy'
p7370
S'JJ'
p7371
F0.9097
tp7372
a(S'to'
p7373
S'TO'
p7374
F0.9954
tp7375
a(S'navigate'
p7376
S'VB'
p7377
F0.9865
tp7378
a(g14
g14
F0.9868
tp7379
a(S'but'
p7380
S'CC'
p7381
F0.9939
tp7382
a(S'keyboard'
p7383
S'NN'
p7384
F0.8972
tp7385
a(S'worse'
p7386
S'JJ'
p7387
F0.3493
tp7388
a(g14
g14
F0.9893
tp7389
a(S'Siri'
p7390
S'NNP'
p7391
F0.9995
tp7392
a(S'limited'
p7393
S'JJ'
p7394
F0.3843
tp7395
a(g14
g14
F0.9885
tp7396
a(S'feels'
p7397
S'VBZ'
p7398
F0.8515
tp7399
a(S'like'
p7400
S'IN'
p7401
F0.7121
tp7402
a(S'first'
p7403
S'JJ'
p7404
F0.9491
tp7405
a(S'effort'
p7406
S'NN'
p7407
F0.9864
tp7408
a(S'in'
p7409
S'IN'
p7410
F0.9817
tp7411
a(S'new'
p7412
S'JJ'
p7413
F0.9709
tp7414
a(S'\xc3\xa2\xe2\x82\xac\xc2\xa6'
p7415
S'NN'
p7416
F0.4344
tp7417
ag175
tp7418
a((lp7419
(S'Apple'
p7420
S'NNP'
p7421
F0.9642
tp7422
a(S'Mail'
p7423
S'NNP'
p7424
F0.7664
tp7425
a(S'app'
p7426
S'NNP'
p7427
F0.6387
tp7428
a(S'also'
p7429
S'RB'
p7430
F0.9903
tp7431
a(S'sucks'
p7432
S'VBZ'
p7433
F0.9285
tp7434
ag175
tp7435
a((lp7436
(S'Good'
p7437
S'JJ'
p7438
F0.777
tp7439
a(S'job'
p7440
S'NN'
p7441
F0.9364
tp7442
a(S'Apple'
p7443
S'NNP'
p7444
F0.8931
tp7445
a(S'on'
p7446
S'IN'
p7447
F0.966
tp7448
a(S'finally'
p7449
S'RB'
p7450
F0.9724
tp7451
a(S'getting'
p7452
S'VBG'
p7453
F0.9958
tp7454
a(g166
S'DT'
p7455
F0.9954
tp7456
a(S'middle'
p7457
S'NN'
p7458
F0.9722
tp7459
a(S'finger'
p7460
S'NN'
p7461
F0.9871
tp7462
a(S'emoji'
p7463
S'NN'
p7464
F0.7212
tp7465
a(S'????????'
p7466
g66
F0.9741
tp7467
ag62
tp7468
a((lp7469
(S'Apple'
p7470
S'NNP'
p7471
F0.9089
tp7472
a(S'sucks'
p7473
S'VBZ'
p7474
F0.972
tp7475
a(S'tbh'
p7476
S'NN'
p7477
F0.7762
tp7478
ag175
tp7479
a((lp7480
(S'with'
p7481
S'IN'
p7482
F0.995
tp7483
a(S'every'
p7484
S'DT'
p7485
F0.9405
tp7486
a(S'update'
p7487
S'NN'
p7488
F0.8947
tp7489
a(S'my'
p7490
S'PRP$'
p7491
F0.9906
tp7492
a(S'phone'
p7493
S'NN'
p7494
F0.996
tp7495
a(S'gets'
p7496
S'VBZ'
p7497
F0.9514
tp7498
a(S'worse'
p7499
S'JJ'
p7500
F0.4509
tp7501
a(g14
g14
F0.9902
tp7502
a(S"I'm"
p7503
S'PRP'
p7504
F0.475
tp7505
a(S'so'
p7506
S'RB'
p7507
F0.9208
tp7508
a(S'over'
p7509
S'IN'
p7510
F0.9873
tp7511
a(S'Apple'
p7512
S'NNP'
p7513
F0.9723
tp7514
a(S'????'
p7515
g66
F0.9799
tp7516
ag175
tp7517
a((lp7518
(S'Dear'
p7519
S'UH'
p7520
F0.846
tp7521
a(S'Why'
p7522
S'WRB'
p7523
F0.8975
tp7524
a(S'was'
p7525
S'VBD'
p7526
F0.9788
tp7527
a(g137
S'PRP'
p7528
F0.9979
tp7529
a(S'not'
p7530
S'RB'
p7531
F0.9874
tp7532
a(S'called'
p7533
S'VBN'
p7534
F0.4958
tp7535
a(S'when'
p7536
S'WRB'
p7537
F0.994
tp7538
a(S'my'
p7539
S'PRP$'
p7540
F0.9955
tp7541
a(S'computer'
p7542
S'NN'
p7543
F0.9919
tp7544
a(S'was'
p7545
S'VBD'
p7546
F0.9808
tp7547
a(S'fixed'
p7548
S'VBN'
p7549
F0.8576
tp7550
a(g1277
g66
F0.9891
tp7551
a(S'The'
p7552
S'DT'
p7553
F0.8288
tp7554
a(S'Gardens'
p7555
S'NNP'
p7556
F0.9573
tp7557
a(S'Mall'
p7558
S'NNP'
p7559
F0.9878
tp7560
a(S'Apple'
p7561
S'NNP'
p7562
F0.9994
tp7563
a(S'Store'
p7564
S'NNP'
p7565
F0.9487
tp7566
a(S'sucks'
p7567
S'VBZ'
p7568
F0.8563
tp7569
a(g66
g66
F0.9934
tp7570
a(S'Unimpressed'
p7571
S'JJ'
p7572
F0.7603
tp7573
a(g66
g66
F0.995
tp7574
ag175
tp7575
a.