(lp0
((lp1
(S'ah'
p2
S'UH'
p3
F0.9927
tp4
a(S"it's"
p5
S'PRP'
p6
F0.6447
tp7
a(S'all'
p8
S'DT'
p9
F0.9842
tp10
a(S'good'
p11
S'JJ'
p12
F0.784
tp13
a(S','
p14
g14
F0.9898
tp15
a(S'hoping'
p16
S'VBG'
p17
F0.9471
tp18
a(S'it'
p19
S'PRP'
p20
F0.9973
tp21
a(S'holds'
p22
S'VBZ'
p23
F0.9898
tp24
a(S'out'
p25
S'RP'
p26
F0.8676
tp27
a(S'until'
p28
S'IN'
p29
F0.9936
tp30
a(S'next'
p31
S'JJ'
p32
F0.9251
tp33
a(S'September'
p34
S'NNP'
p35
F0.9723
tp36
a(g14
g14
F0.9879
tp37
a(S'fingers'
p38
S'NNS'
p39
F0.9811
tp40
a(S'crossed'
p41
S'VBD'
p42
F0.3622
tp43
a(S'they'
p44
S'PRP'
p45
F0.6667
tp46
a(S'release'
p47
S'VBP'
p48
F0.6449
tp49
a(S'the'
p50
S'DT'
p51
F0.9902
tp52
a(S"MBP's"
p53
S'NNS'
p54
F0.7883
tp55
a(S'with'
p56
S'IN'
p57
F0.9981
tp58
a(S'skylark'
p59
S'NNP'
p60
F0.8233
tp61
aS'1'
p62
tp63
a((lp64
(S'????????????????????????????????????????????????'
p65
S'.'
p66
F0.1146
tp67
a(S'this'
p68
S'DT'
p69
F0.9869
tp70
a(S'is'
p71
S'VBZ'
p72
F0.9901
tp73
a(S'what'
p74
S'WP'
p75
F0.9719
tp76
a(S"I've"
p77
S'PRP'
p78
F0.9461
tp79
a(S'been'
p80
S'VBN'
p81
F0.8536
tp82
a(S'wanting'
p83
S'VBG'
p84
F0.9806
tp85
a(S'the'
p86
S'DT'
p87
F0.9903
tp88
a(S'most'
p89
S'JJS'
p90
F0.72
tp91
a(S'from'
p92
S'IN'
p93
F0.9986
tp94
a(S'Apple'
p95
S'NNP'
p96
F0.9908
tp97
a(g66
g66
F0.9937
tp98
a(S'good'
p99
S'JJ'
p100
F0.9164
tp101
a(S'job'
p102
S'NN'
p103
F0.9814
tp104
ag62
tp105
a((lp106
(S'So'
p107
S'UH'
p108
F0.3916
tp109
a(S'my'
p110
S'PRP$'
p111
F0.9857
tp112
a(S'MacBook'
p113
S'NN'
p114
F0.5214
tp115
a(S'Pro'
p116
S'NNP'
p117
F0.568
tp118
a(S'fan'
p119
S'NN'
p120
F0.9035
tp121
a(S'is'
p122
S'VBZ'
p123
F0.9939
tp124
a(S'always'
p125
S'RB'
p126
F0.9933
tp127
a(S'really'
p128
S'RB'
p129
F0.996
tp130
a(S'loud'
p131
S'JJ'
p132
F0.8179
tp133
a(S'but'
p134
S'CC'
p135
F0.9898
tp136
a(S'I'
p137
S'PRP'
p138
F0.9968
tp139
a(S"can't"
p140
S'MD'
p141
F0.9369
tp142
a(S'tell'
p143
S'VB'
p144
F0.9968
tp145
a(S'if'
p146
S'IN'
p147
F0.9723
tp148
a(S"it's"
p149
S'PRP'
p150
F0.8435
tp151
a(S'dust'
p152
S'NN'
p153
F0.8473
tp154
a(S'or'
p155
S'CC'
p156
F0.9679
tp157
a(S'if'
p158
S'IN'
p159
F0.9817
tp160
a(g137
S'PRP'
p161
F0.9991
tp162
a(S'need'
p163
S'VBP'
p164
F0.9784
tp165
a(S'a'
p166
S'DT'
p167
F0.9936
tp168
a(S'new'
p169
S'JJ'
p170
F0.9966
tp171
a(S'fan'
p172
S'NN'
p173
F0.98
tp174
aS'0'
p175
tp176
a((lp177
(S'good'
p178
S'JJ'
p179
F0.7479
tp180
a(S'job'
p181
S'NN'
p182
F0.9308
tp183
a(S'apple'
p184
S'NN'
p185
F0.7273
tp186
a(S'????????????????????????????????????????????'
p187
g66
F0.3377
tp188
ag62
tp189
a((lp190
(S'My'
p191
S'PRP$'
p192
F0.9389
tp193
a(S'iPhone'
p194
S'NNP'
p195
F0.6486
tp196
a(S'can'
p197
S'MD'
p198
F0.9672
tp199
a(S'film'
p200
S'VB'
p201
F0.6425
tp202
a(S'40'
p203
S'CD'
p204
F0.9807
tp205
a(S'min'
p206
S'NN'
p207
F0.8958
tp208
a(S'of'
p209
S'IN'
p210
F0.9854
tp211
a(S'video'
p212
S'NN'
p213
F0.9923
tp214
a(S'before'
p215
S'IN'
p216
F0.9464
tp217
a(S'memory'
p218
S'NN'
p219
F0.9894
tp220
a(S'is'
p221
S'VBZ'
p222
F0.9947
tp223
a(S'full'
p224
S'JJ'
p225
F0.9531
tp226
a(g66
g66
F0.9919
tp227
a(S'But'
p228
S'CC'
p229
F0.9489
tp230
a(S'battery'
p231
S'NN'
p232
F0.9392
tp233
a(S'sucks'
p234
S'VBZ'
p235
F0.9687
tp236
a(S'so'
p237
S'RB'
p238
F0.931
tp239
a(S'much'
p240
S'RB'
p241
F0.8662
tp242
a(S'it'
p243
S'PRP'
p244
F0.9977
tp245
a(S'lasts'
p246
S'VBZ'
p247
F0.9689
tp248
a(S'for'
p249
S'IN'
p250
F0.9884
tp251
a(S'only'
p252
S'RB'
p253
F0.7243
tp254
a(S'10'
p255
S'CD'
p256
F0.9973
tp257
a(S'min'
p258
S'NN'
p259
F0.8904
tp260
a(g66
g66
F0.9955
tp261
a(S'Smart'
p262
S'JJ'
p263
F0.4898
tp264
a(S'ass'
p265
S'NN'
p266
F0.7555
tp267
a(S'Apple'
p268
S'NNP'
p269
F0.9351
tp270
a(S'manufacturers'
p271
S'NNS'
p272
F0.9349
tp273
a(S'.????'
p274
g66
F0.9641
tp275
ag175
tp276
a((lp277
(S'Good'
p278
S'JJ'
p279
F0.777
tp280
a(S'job'
p281
S'NN'
p282
F0.9891
tp283
a(S'guys'
p284
S'NNS'
p285
F0.9831
tp286
a(S'!'
p287
g66
F0.9955
tp288
a(S'Wouldnt'
p289
S'MD'
p290
F0.3405
tp291
a(S'use'
p292
S'VB'
p293
F0.9814
tp294
a(S'any'
p295
S'DT'
p296
F0.9576
tp297
a(S'other'
p298
S'JJ'
p299
F0.8728
tp300
a(S'bank'
p301
S'NN'
p302
F0.991
tp303
a(S':)'
p304
S'UH'
p305
F0.954
tp306
a(S'now'
p307
S'RB'
p308
F0.9695
tp309
a(S'just'
p310
S'RB'
p311
F0.9951
tp312
a(S'Apple'
p313
S'NNP'
p314
F0.9779
tp315
a(S'Pay'
p316
S'VB'
p317
F0.3178
tp318
a(S'to'
p319
S'TO'
p320
F0.9964
tp321
a(S'go'
p322
S'VB'
p323
F0.9938
tp324
a(S';)'
p325
S'UH'
p326
F0.9198
tp327
ag62
tp328
a((lp329
(S'Ok'
p330
S'UH'
p331
F0.916
tp332
a(S'so'
p333
S'RB'
p334
F0.5458
tp335
a(S'????????????'
p336
g66
F0.9225
tp337
a(S'and'
p338
S'CC'
p339
F0.9898
tp340
a(S'one'
p341
S'CD'
p342
F0.953
tp343
a(S'more'
p344
S'RBR'
p345
F0.5566
tp346
a(S'way'
p347
S'NN'
p348
F0.9046
tp349
a(S'to'
p350
S'TO'
p351
F0.994
tp352
a(S'say'
p353
S'VB'
p354
F0.9925
tp355
a(g137
S'PRP'
p356
F0.9983
tp357
a(S'you'
p358
S'PRP'
p359
F0.9756
tp360
a(g66
g66
F0.9916
tp361
a(S'Good'
p362
S'JJ'
p363
F0.8114
tp364
a(S'job'
p365
S'NN'
p366
F0.9532
tp367
a(S'Apple'
p368
S'NNP'
p369
F0.8534
tp370
a(S';)'
p371
S'UH'
p372
F0.9127
tp373
ag62
tp374
a((lp375
(S'Reasons'
p376
S'NNS'
p377
F0.9535
tp378
a(S'why'
p379
S'WRB'
p380
F0.9234
tp381
a(S'i'
p382
S'PRP'
p383
F0.9894
tp384
a(S'love'
p385
S'VBP'
p386
F0.993
tp387
a(S'my'
p388
S'PRP$'
p389
F0.9844
tp390
a(S'new'
p391
S'JJ'
p392
F0.9845
tp393
a(S'macbook'
p394
S'NN'
p395
F0.9591
tp396
a(S'pro'
p397
S'NN'
p398
F0.8393
tp399
a(S':'
p400
g400
F0.9608
tp401
a(S'battery'
p402
S'NN'
p403
F0.9224
tp404
a(S'life'
p405
S'NN'
p406
F0.9929
tp407
a(g14
g14
F0.9908
tp408
a(S'no'
p409
S'DT'
p410
F0.5838
tp411
a(S'overheating'
p412
S'NN'
p413
F0.6693
tp414
a(g14
g14
F0.9884
tp415
a(S'no'
p416
S'DT'
p417
F0.7131
tp418
a(S'loud'
p419
S'JJ'
p420
F0.8571
tp421
a(S'fan'
p422
S'NN'
p423
F0.9823
tp424
a(g14
g14
F0.9914
tp425
a(S'fast'
p426
S'JJ'
p427
F0.7466
tp428
a(S'processor'
p429
S'NN'
p430
F0.9846
tp431
a(S'????'
p432
g66
F0.9638
tp433
a(S'Now'
p434
S'RB'
p435
F0.9859
tp436
a(S'to'
p437
S'TO'
p438
F0.9976
tp439
a(S'make'
p440
S'VB'
p441
F0.9984
tp442
a(S'it'
p443
S'PRP'
p444
F0.9915
tp445
a(S'last'
p446
S'JJ'
p447
F0.8927
tp448
a(S'for'
p449
S'IN'
p450
F0.9987
tp451
a(S'the'
p452
S'DT'
p453
F0.9958
tp454
a(S'next'
p455
S'JJ'
p456
F0.9483
tp457
a(S'10+yrs'
p458
S'NNS'
p459
F0.5891
tp460
a(S'..'
p461
g400
F0.7984
tp462
ag62
tp463
a((lp464
(S'Wen'
p465
S'WRB'
p466
F0.881
tp467
a(g137
S'PRP'
p468
F0.9979
tp469
a(S'put'
p470
S'VBP'
p471
F0.5863
tp472
a(S'my'
p473
S'PRP$'
p474
F0.9929
tp475
a(S'charger'
p476
S'NN'
p477
F0.95
tp478
a(S'in'
p479
S'IN'
p480
F0.9956
tp481
a(S'the'
p482
S'DT'
p483
F0.9871
tp484
a(S'washing'
p485
S'NN'
p486
F0.8029
tp487
a(S'machine'
p488
S'NN'
p489
F0.9963
tp490
a(S'and'
p491
S'CC'
p492
F0.9929
tp493
a(S'it'
p494
S'PRP'
p495
F0.9975
tp496
a(S'still'
p497
S'RB'
p498
F0.9795
tp499
a(S'works'
p500
S'VBZ'
p501
F0.8456
tp502
a(S'????'
p503
g66
F0.9636
tp504
a(S'good'
p505
S'JJ'
p506
F0.9632
tp507
a(S'job'
p508
S'NN'
p509
F0.9678
tp510
a(S'apple'
p511
S'NN'
p512
F0.7141
tp513
ag62
tp514
a((lp515
(S'Apple'
p516
S'NNP'
p517
F0.9036
tp518
a(S'TV'
p519
S'NNP'
p520
F0.8267
tp521
a(S'2015'
p522
S'CD'
p523
F0.6965
tp524
a(S'review'
p525
S'NN'
p526
F0.9791
tp527
a(g400
g400
F0.9695
tp528
a(S'fast'
p529
S'RB'
p530
F0.6323
tp531
a(S'and'
p532
S'CC'
p533
F0.9898
tp534
a(S'easy'
p535
S'JJ'
p536
F0.9097
tp537
a(S'to'
p538
S'TO'
p539
F0.9954
tp540
a(S'navigate'
p541
S'VB'
p542
F0.9865
tp543
a(g14
g14
F0.9868
tp544
a(S'but'
p545
S'CC'
p546
F0.9939
tp547
a(S'keyboard'
p548
S'NN'
p549
F0.8972
tp550
a(S'worse'
p551
S'JJ'
p552
F0.3493
tp553
a(g14
g14
F0.9893
tp554
a(S'Siri'
p555
S'NNP'
p556
F0.9995
tp557
a(S'limited'
p558
S'JJ'
p559
F0.3843
tp560
a(g14
g14
F0.9885
tp561
a(S'feels'
p562
S'VBZ'
p563
F0.8515
tp564
a(S'like'
p565
S'IN'
p566
F0.7121
tp567
a(S'first'
p568
S'JJ'
p569
F0.9491
tp570
a(S'effort'
p571
S'NN'
p572
F0.9867
tp573
a(S'in'
p574
S'IN'
p575
F0.972
tp576
a(S'...'
p577
g400
F0.9903
tp578
ag175
tp579
a((lp580
(S'How'
p581
S'WRB'
p582
F0.9762
tp583
a(S'odd'
p584
S'JJ'
p585
F0.989
tp586
a(g66
g66
F0.9927
tp587
a(S"It's"
p588
S'PRP'
p589
F0.8478
tp590
a(S'really'
p591
S'RB'
p592
F0.9971
tp593
a(S'good'
p594
S'JJ'
p595
F0.9337
tp596
a(g66
g66
F0.9902
tp597
a(S"I'm"
p598
S'PRP'
p599
F0.7386
tp600
a(S'impressed'
p601
S'VBD'
p602
F0.6211
tp603
a(S'how'
p604
S'WRB'
p605
F0.9295
tp606
a(S'much'
p607
S'RB'
p608
F0.5978
tp609
a(S'faster'
p610
S'JJR'
p611
F0.6918
tp612
a(S'it'
p613
S'PRP'
p614
F0.9983
tp615
a(S'made'
p616
S'VBD'
p617
F0.9501
tp618
a(S'my'
p619
S'PRP$'
p620
F0.9644
tp621
a(S'2011'
p622
S'CD'
p623
F0.8766
tp624
a(S'MBP'
p625
S'NN'
p626
F0.4912
tp627
a(g66
g66
F0.995
tp628
ag62
tp629
a((lp630
(S'RT'
p631
S'RT'
p632
F0.9539
tp633
a(S'Apple'
p634
S'NNP'
p635
F0.9707
tp636
a(S'customer'
p637
S'NN'
p638
F0.9187
tp639
a(S'service'
p640
S'NN'
p641
F0.9813
tp642
a(S'sucks'
p643
S'VBZ'
p644
F0.967
tp645
a(S'..'
p646
g400
F0.9359
tp647
a(S'sticking'
p648
S'VBG'
p649
F0.9477
tp650
a(S'with'
p651
S'IN'
p652
F0.9984
tp653
a(S'my'
p654
S'PRP$'
p655
F0.9398
tp656
a(S'is'
p657
S'VBZ'
p658
F0.9937
tp659
a(S'the'
p660
S'DT'
p661
F0.9941
tp662
a(S'best'
p663
S'JJS'
p664
F0.9668
tp665
ag175
tp666
a((lp667
(S'Well'
p668
S'UH'
p669
F0.8559
tp670
a(S'shit'
p671
S'UH'
p672
F0.8403
tp673
a(g66
g66
F0.9738
tp674
a(S'This'
p675
S'DT'
p676
F0.9818
tp677
a(S'freaking'
p678
S'VBG'
p679
F0.3869
tp680
a(S'sucks'
p681
S'VBZ'
p682
F0.8464
tp683
a(g66
g66
F0.995
tp684
a(S'Looks'
p685
S'VBZ'
p686
F0.6499
tp687
a(S'like'
p688
S'IN'
p689
F0.7554
tp690
a(S"I'll"
p691
S'PRP'
p692
F0.8261
tp693
a(S'not'
p694
S'RB'
p695
F0.9934
tp696
a(S'be'
p697
S'VB'
p698
F0.9831
tp699
a(S'using'
p700
S'VBG'
p701
F0.9947
tp702
a(S'downloads'
p703
S'NN'
p704
F0.3924
tp705
a(S'from'
p706
S'IN'
p707
F0.9986
tp708
a(S'Apple'
p709
S'NNP'
p710
F0.9923
tp711
a(S'music'
p712
S'NN'
p713
F0.9766
tp714
a(S'in'
p715
S'IN'
p716
F0.9872
tp717
a(S'future'
p718
S'NN'
p719
F0.8087
tp720
a(S'broadcasts'
p721
S'NNS'
p722
F0.9808
tp723
a(g66
g66
F0.9967
tp724
ag175
tp725
a((lp726
(S'RT'
p727
S'RT'
p728
F0.9734
tp729
a(S'This'
p730
S'DT'
p731
F0.959
tp732
a(S'is'
p733
S'VBZ'
p734
F0.9908
tp735
a(S'one'
p736
S'CD'
p737
F0.9695
tp738
a(S'time'
p739
S'NN'
p740
F0.969
tp741
a(g137
S'PRP'
p742
F0.9901
tp743
a(S'actually'
p744
S'RB'
p745
F0.9932
tp746
a(S'approve'
p747
S'VB'
p748
F0.6309
tp749
a(S'of'
p750
S'IN'
p751
F0.9839
tp752
a(S'an'
p753
S'DT'
p754
F0.9564
tp755
a(S'update'
p756
S'NN'
p757
F0.9971
tp758
a(S'from'
p759
S'IN'
p760
F0.9987
tp761
a(S'Apple'
p762
S'NNP'
p763
F0.9979
tp764
a(S'Inc'
p765
S'NNP'
p766
F0.995
tp767
a(g14
g14
F0.9897
tp768
a(S'good'
p769
S'JJ'
p770
F0.9363
tp771
a(S'job'
p772
S'NN'
p773
F0.9876
tp774
a(S'with'
p775
S'IN'
p776
F0.9984
tp777
a(S'IOS'
p778
S'NNP'
p779
F0.9864
tp780
a(S'9.1'
p781
S'CD'
p782
F0.7478
tp783
ag62
tp784
a((lp785
(S'This'
p786
S'DT'
p787
F0.9925
tp788
a(S'emoji'
p789
S'NN'
p790
F0.9281
tp791
a(S'is'
p792
S'VBZ'
p793
F0.9935
tp794
a(S'my'
p795
S'PRP$'
p796
F0.9974
tp797
a(S'life'
p798
S'NN'
p799
F0.9968
tp800
a(g400
g400
F0.9487
tp801
a(S'????'
p802
g66
F0.9169
tp803
a(S'Good'
p804
S'JJ'
p805
F0.8719
tp806
a(S'job'
p807
S'NN'
p808
F0.9534
tp809
a(S'Apple'
p810
S'NNP'
p811
F0.8818
tp812
a(g66
g66
F0.9924
tp813
a(S'Good'
p814
S'JJ'
p815
F0.7856
tp816
a(S'job'
p817
S'NN'
p818
F0.9906
tp819
a(g66
g66
F0.9967
tp820
ag62
tp821
a((lp822
(S'Significantly'
p823
S'RB'
p824
F0.9191
tp825
a(S'faster'
p826
S'JJR'
p827
F0.7312
tp828
a(S'after'
p829
S'IN'
p830
F0.9813
tp831
a(S'upgrading'
p832
S'VBG'
p833
F0.9883
tp834
a(S'my'
p835
S'PRP$'
p836
F0.9965
tp837
a(S'MBP'
p838
S'NN'
p839
F0.6155
tp840
a(S'to'
p841
S'TO'
p842
F0.9801
tp843
a(S'El'
p844
S'NNP'
p845
F0.9725
tp846
a(S'Capitan'
p847
S'NNP'
p848
F0.9988
tp849
a(g66
g66
F0.992
tp850
a(S'Good'
p851
S'JJ'
p852
F0.8112
tp853
a(S'job'
p854
S'NN'
p855
F0.9592
tp856
a(S'#Apple'
p857
S'HT'
p858
F0.9503
tp859
ag62
tp860
a((lp861
(S'good'
p862
S'JJ'
p863
F0.7479
tp864
a(S'job'
p865
S'NN'
p866
F0.9146
tp867
a(S'Apple'
p868
S'NNP'
p869
F0.8664
tp870
a(g287
g66
F0.9869
tp871
a(S'my'
p872
S'PRP$'
p873
F0.9941
tp874
a(S'phone'
p875
S'NN'
p876
F0.9949
tp877
a(S'updated'
p878
S'VBD'
p879
F0.609
tp880
a(S'just'
p881
S'RB'
p882
F0.9994
tp883
a(S'fine'
p884
S'JJ'
p885
F0.9107
tp886
a(S'>:D'
p887
S'UH'
p888
F0.9668
tp889
ag62
tp890
a((lp891
(S'This'
p892
S'DT'
p893
F0.9925
tp894
a(S'emoji'
p895
S'NN'
p896
F0.9281
tp897
a(S'is'
p898
S'VBZ'
p899
F0.9908
tp900
a(S'about'
p901
S'IN'
p902
F0.7486
tp903
a(S'to'
p904
S'TO'
p905
F0.9952
tp906
a(S'be'
p907
S'VB'
p908
F0.9986
tp909
a(S'taken'
p910
S'VBN'
p911
F0.9223
tp912
a(S'and'
p913
S'CC'
p914
F0.9921
tp915
a(S'run'
p916
S'VB'
p917
F0.8095
tp918
a(S'with'
p919
S'IN'
p920
F0.9879
tp921
a(g66
g66
F0.9904
tp922
a(S'Good'
p923
S'JJ'
p924
F0.8114
tp925
a(S'job'
p926
S'NN'
p927
F0.993
tp928
a(g14
g14
F0.9871
tp929
a(S'Apple'
p930
S'NNP'
p931
F0.9856
tp932
a(g66
g66
F0.9961
tp933
ag62
tp934
a((lp935
(S"Apple's"
p936
S'NNP'
p937
F0.9377
tp938
a(S'battery'
p939
S'NN'
p940
F0.8288
tp941
a(S'life'
p942
S'NN'
p943
F0.9934
tp944
a(S'seriously'
p945
S'RB'
p946
F0.9879
tp947
a(S'sucks'
p948
S'VBZ'
p949
F0.9151
tp950
a(S'..'
p951
g400
F0.9361
tp952
a(S'Seriously'
p953
S'RB'
p954
F0.8943
tp955
a(S'..'
p956
g400
F0.9492
tp957
a(S'May'
p958
S'MD'
p959
F0.6376
tp960
a(S'low'
p961
S'JJ'
p962
F0.9336
tp963
a(S'power'
p964
S'NN'
p965
F0.9894
tp966
a(S'mode'
p967
S'NN'
p968
F0.9895
tp969
a(S'pa'
p970
S'NN'
p971
F0.7197
tp972
a(S'kayong'
p973
S'NN'
p974
F0.4823
tp975
a(S'nalalaman'
p976
S'NN'
p977
F0.3831
tp978
a(S'ha'
p979
S'UH'
p980
F0.9712
tp981
ag175
tp982
a((lp983
(S'Apple'
p984
S'NNP'
p985
F0.8508
tp986
a(S'is'
p987
S'VBZ'
p988
F0.9942
tp989
a(S'worse'
p990
S'JJ'
p991
F0.6556
tp992
a(S'...'
p993
g400
F0.9947
tp994
a(S'and'
p995
S'CC'
p996
F0.994
tp997
a(S'the'
p998
S'DT'
p999
F0.9954
tp1000
a(S'updates'
p1001
S'NNS'
p1002
F0.9825
tp1003
a(S'are'
p1004
S'VBP'
p1005
F0.9725
tp1006
a(S'massive'
p1007
S'JJ'
p1008
F0.9751
tp1009
a(S'...'
p1010
g400
F0.9971
tp1011
a(S'these'
p1012
S'DT'
p1013
F0.9871
tp1014
a(S'smart'
p1015
S'JJ'
p1016
F0.8938
tp1017
a(S'phones'
p1018
S'NNS'
p1019
F0.8904
tp1020
a(S'sold'
p1021
S'VBD'
p1022
F0.8351
tp1023
a(S'us'
p1024
S'PRP'
p1025
F0.7095
tp1026
a(S'dreams'
p1027
S'NNS'
p1028
F0.9224
tp1029
a(S'...'
p1030
g400
F0.9963
tp1031
a(S'mxm'
p1032
S'UH'
p1033
F0.8125
tp1034
a(g287
g66
F0.975
tp1035
ag175
tp1036
a((lp1037
(S'MBP'
p1038
S'NNP'
p1039
F0.4731
tp1040
a(S'...'
p1041
g400
F0.9974
tp1042
a(S'always'
p1043
S'RB'
p1044
F0.9833
tp1045
a(g166
S'DT'
p1046
F0.9924
tp1047
a(S'good'
p1048
S'JJ'
p1049
F0.9837
tp1050
a(S'sign'
p1051
S'NN'
p1052
F0.9291
tp1053
a(S'when'
p1054
S'WRB'
p1055
F0.9841
tp1056
a(S'starting'
p1057
S'VBG'
p1058
F0.961
tp1059
a(g166
S'DT'
p1060
F0.9914
tp1061
a(S'new'
p1062
S'JJ'
p1063
F0.9932
tp1064
a(S'position'
p1065
S'NN'
p1066
F0.9976
tp1067
a(g66
g66
F0.9925
tp1068
a(S'Bel'
p1069
S'NNP'
p1070
F0.8974
tp1071
a(S'Air'
p1072
S'NNP'
p1073
F0.9934
tp1074
a(S'Church'
p1075
S'NNP'
p1076
F0.9879
tp1077
ag62
tp1078
a((lp1079
(S'Apple'
p1080
S'NNP'
p1081
F0.8386
tp1082
a(S'products'
p1083
S'NNS'
p1084
F0.8085
tp1085
a(S'sucks'
p1086
S'VBZ'
p1087
F0.9676
tp1088
a(S'bc'
p1089
S'IN'
p1090
F0.6738
tp1091
a(S'of'
p1092
S'IN'
p1093
F0.9631
tp1094
a(S'battery'
p1095
S'NN'
p1096
F0.9207
tp1097
a(S'life'
p1098
S'NN'
p1099
F0.9916
tp1100
a(S'????????'
p1101
g66
F0.975
tp1102
ag175
tp1103
a((lp1104
(S'you'
p1105
S'PRP'
p1106
F0.9993
tp1107
a(S'have'
p1108
S'VBP'
p1109
F0.9923
tp1110
a(S'to'
p1111
S'TO'
p1112
F0.9975
tp1113
a(S'jailbreak'
p1114
S'VB'
p1115
F0.9567
tp1116
a(S'and'
p1117
S'CC'
p1118
F0.9936
tp1119
a(S'get'
p1120
S'VB'
p1121
F0.9373
tp1122
a(S'rid'
p1123
S'JJ'
p1124
F0.8429
tp1125
a(S'of'
p1126
S'IN'
p1127
F0.9871
tp1128
a(S'all'
p1129
S'DT'
p1130
F0.9846
tp1131
a(S'the'
p1132
S'DT'
p1133
F0.9899
tp1134
a(S'stupid'
p1135
S'JJ'
p1136
F0.8928
tp1137
a(S'blurs'
p1138
S'VBZ'
p1139
F0.5493
tp1140
a(S'in'
p1141
S'IN'
p1142
F0.9803
tp1143
a(S'iOS'
p1144
S'NNP'
p1145
F0.9274
tp1146
a(S'9'
p1147
S'CD'
p1148
F0.9763
tp1149
a(S'to'
p1150
S'TO'
p1151
F0.9968
tp1152
a(S'make'
p1153
S'VB'
p1154
F0.9984
tp1155
a(S'it'
p1156
S'PRP'
p1157
F0.9939
tp1158
a(S'fast'
p1159
S'RB'
p1160
F0.6657
tp1161
a(S'again'
p1162
S'RB'
p1163
F0.9629
tp1164
a(g66
g66
F0.9917
tp1165
a(S'Apple'
p1166
S'NNP'
p1167
F0.9163
tp1168
a(S'sucks'
p1169
S'VBZ'
p1170
F0.969
tp1171
a(S'so'
p1172
S'RB'
p1173
F0.6939
tp1174
a(S'fucking'
p1175
S'RB'
p1176
F0.7899
tp1177
a(S'much'
p1178
S'RB'
p1179
F0.8077
tp1180
ag175
tp1181
a((lp1182
(S"let's"
p1183
S'PRP'
p1184
F0.2142
tp1185
a(S'be'
p1186
S'VB'
p1187
F0.9934
tp1188
a(S'honest'
p1189
S'JJ'
p1190
F0.4724
tp1191
a(g14
g14
F0.9899
tp1192
a(S'the'
p1193
S'DT'
p1194
F0.9887
tp1195
a(S'apple'
p1196
S'NN'
p1197
F0.6562
tp1198
a(S'music'
p1199
S'NN'
p1200
F0.9935
tp1201
a(S'app'
p1202
S'NN'
p1203
F0.9118
tp1204
a(S'sucks'
p1205
S'VBZ'
p1206
F0.9465
tp1207
ag175
tp1208
a((lp1209
(g137
S'PRP'
p1210
F0.992
tp1211
a(S'just'
p1212
S'RB'
p1213
F0.9969
tp1214
a(S'noticed'
p1215
S'VBD'
p1216
F0.7772
tp1217
a(S'the'
p1218
S'DT'
p1219
F0.9945
tp1220
a(S'same'
p1221
S'JJ'
p1222
F0.9457
tp1223
a(S'sex'
p1224
S'NN'
p1225
F0.9776
tp1226
a(S'parent'
p1227
S'NN'
p1228
F0.9928
tp1229
a(S'emojis'
p1230
S'NNS'
p1231
F0.9666
tp1232
a(g66
g66
F0.9928
tp1233
a(S'Good'
p1234
S'JJ'
p1235
F0.8114
tp1236
a(S'job'
p1237
S'NN'
p1238
F0.9534
tp1239
a(S'Apple'
p1240
S'NNP'
p1241
F0.897
tp1242
a(S'good'
p1243
S'JJ'
p1244
F0.9366
tp1245
a(S'job'
p1246
S'NN'
p1247
F0.9856
tp1248
a(S'????'
p1249
g66
F0.9827
tp1250
ag62
tp1251
a((lp1252
(S'why'
p1253
S'WRB'
p1254
F0.9591
tp1255
a(S"can't"
p1256
S'MD'
p1257
F0.7594
tp1258
a(S'we'
p1259
S'PRP'
p1260
F0.9721
tp1261
a(S'buy'
p1262
S'VBP'
p1263
F0.8787
tp1264
a(S'books'
p1265
S'NNS'
p1266
F0.9571
tp1267
a(S'on'
p1268
S'IN'
p1269
F0.9968
tp1270
a(S'ipad'
p1271
S'NN'
p1272
F0.4485
tp1273
a(S'?'
p1274
g66
F0.9904
tp1275
a(S'Apple'
p1276
S'NNP'
p1277
F0.8521
tp1278
a(S'sucks'
p1279
S'VBZ'
p1280
F0.945
tp1281
a(g14
g14
F0.9869
tp1282
a(S'that'
p1283
S'DT'
p1284
F0.5991
tp1285
a(S'is'
p1286
S'VBZ'
p1287
F0.9975
tp1288
a(S'why'
p1289
S'WRB'
p1290
F0.9138
tp1291
a(g66
g66
F0.9943
tp1292
ag175
tp1293
a((lp1294
(S'After'
p1295
S'IN'
p1296
F0.9838
tp1297
a(S'the'
p1298
S'DT'
p1299
F0.9875
tp1300
a(S'update'
p1301
S'NN'
p1302
F0.936
tp1303
a(S'my'
p1304
S'PRP$'
p1305
F0.9867
tp1306
a(S'MBP'
p1307
S'NN'
p1308
F0.5366
tp1309
a(S'('
p1310
S'-LRB-'
p1311
F0.9249
tp1312
a(S'mid-2012'
p1313
S'JJ'
p1314
F0.9686
tp1315
a(S'Retina'
p1316
S'NN'
p1317
F0.7326
tp1318
a(S')'
p1319
S'-RRB-'
p1320
F0.9413
tp1321
a(S'actually'
p1322
S'RB'
p1323
F0.9956
tp1324
a(S'got'
p1325
S'VBD'
p1326
F0.7744
tp1327
a(S'faster'
p1328
S'JJR'
p1329
F0.7817
tp1330
a(S'and'
p1331
S'CC'
p1332
F0.9913
tp1333
a(S'snappier'
p1334
S'JJR'
p1335
F0.682
tp1336
a(g287
g66
F0.9881
tp1337
a(S"Can't"
p1338
S'MD'
p1339
F0.8795
tp1340
a(S'believe'
p1341
S'VB'
p1342
F0.9973
tp1343
a(S'it'
p1344
S'PRP'
p1345
F0.997
tp1346
a(g66
g66
F0.9928
tp1347
a(S'Very'
p1348
S'RB'
p1349
F0.9807
tp1350
a(S'good'
p1351
S'JJ'
p1352
F0.951
tp1353
a(S'upgrade'
p1354
S'NN'
p1355
F0.8931
tp1356
a(g287
g66
F0.9959
tp1357
ag62
tp1358
a((lp1359
(S'RT'
p1360
S'RT'
p1361
F0.9635
tp1362
a(S'Much'
p1363
S'RB'
p1364
F0.7033
tp1365
a(S'worse'
p1366
S'JJ'
p1367
F0.5731
tp1368
a(g400
g400
F0.9645
tp1369
a(S'requests'
p1370
S'NNS'
p1371
F0.9911
tp1372
a(S'to'
p1373
S'TO'
p1374
F0.9957
tp1375
a(S'play'
p1376
S'VB'
p1377
F0.9977
tp1378
a(S'music'
p1379
S'NN'
p1380
F0.9941
tp1381
a(S'default'
p1382
S'NN'
p1383
F0.97
tp1384
a(S'to'
p1385
S'TO'
p1386
F0.9757
tp1387
a(S'Apple'
p1388
S'NNP'
p1389
F0.9881
tp1390
a(S'Music'
p1391
S'NNP'
p1392
F0.5241
tp1393
a(S'even'
p1394
S'RB'
p1395
F0.9863
tp1396
a(S'if'
p1397
S'IN'
p1398
F0.992
tp1399
a(S'you'
p1400
S'PRP'
p1401
F0.9997
tp1402
a(S'have'
p1403
S'VBP'
p1404
F0.9794
tp1405
a(S'the'
p1406
S'DT'
p1407
F0.9962
tp1408
a(S'music'
p1409
S'NN'
p1410
F0.9922
tp1411
a(S'in'
p1412
S'IN'
p1413
F0.9935
tp1414
a(S'your'
p1415
S'PRP$'
p1416
F0.9734
tp1417
a(S'library'
p1418
S'NN'
p1419
F0.9953
tp1420
a(g66
g66
F0.996
tp1421
ag175
tp1422
a((lp1423
(g137
S'PRP'
p1424
F0.9967
tp1425
a(S'feel'
p1426
S'VBP'
p1427
F0.827
tp1428
a(S'complete'
p1429
S'JJ'
p1430
F0.9006
tp1431
a(S'there'
p1432
S'RB'
p1433
F0.5352
tp1434
a(S'is'
p1435
S'VBZ'
p1436
F0.9939
tp1437
a(S'now'
p1438
S'RB'
p1439
F0.9896
tp1440
a(g166
S'DT'
p1441
F0.9933
tp1442
a(S'middle'
p1443
S'NN'
p1444
F0.9722
tp1445
a(S'finger'
p1446
S'NN'
p1447
F0.982
tp1448
a(S'and'
p1449
S'CC'
p1450
F0.9898
tp1451
a(S'unicorn'
p1452
S'NN'
p1453
F0.499
tp1454
a(S'emoji'
p1455
S'NN'
p1456
F0.881
tp1457
a(g66
g66
F0.993
tp1458
a(S'Good'
p1459
S'JJ'
p1460
F0.8114
tp1461
a(S'job'
p1462
S'NN'
p1463
F0.9499
tp1464
a(S'Apple'
p1465
S'NNP'
p1466
F0.8546
tp1467
a(S'????????????'
p1468
g66
F0.9736
tp1469
ag62
tp1470
a((lp1471
(S'Hey'
p1472
S'UH'
p1473
F0.9479
tp1474
a(S'APPLE'
p1475
S'NNP'
p1476
F0.8796
tp1477
a(S'-'
p1478
g400
F0.9873
tp1479
a(S'El'
p1480
S'NNP'
p1481
F0.9646
tp1482
a(S'Capitan'
p1483
S'NNP'
p1484
F0.9993
tp1485
a(S'SUCKS'
p1486
S'VBZ'
p1487
F0.807
tp1488
a(g1478
g400
F0.9599
tp1489
a(S'thanks'
p1490
S'UH'
p1491
F0.7907
tp1492
ag175
tp1493
a((lp1494
(S'This'
p1495
S'DT'
p1496
F0.9635
tp1497
a(S'sucks'
p1498
S'VBZ'
p1499
F0.8575
tp1500
a(g66
g66
F0.9939
tp1501
a(S'Rather'
p1502
S'RB'
p1503
F0.991
tp1504
a(S'have'
p1505
S'VB'
p1506
F0.7584
tp1507
a(S'the'
p1508
S'DT'
p1509
F0.995
tp1510
a(S'gym'
p1511
S'NN'
p1512
F0.9546
tp1513
a(S'than'
p1514
S'IN'
p1515
F0.9934
tp1516
a(S'another'
p1517
S'DT'
p1518
F0.9911
tp1519
a(S'apple'
p1520
S'NN'
p1521
F0.7929
tp1522
a(S'store'
p1523
S'NN'
p1524
F0.9747
tp1525
a(g66
g66
F0.9969
tp1526
ag175
tp1527
a((lp1528
(S'Worse'
p1529
S'JJR'
p1530
F0.3421
tp1531
a(g400
g400
F0.9784
tp1532
a(S'they'
p1533
S'PRP'
p1534
F0.9562
tp1535
a(S'employ'
p1536
S'VBP'
p1537
F0.876
tp1538
a(S'the'
p1539
S'DT'
p1540
F0.9857
tp1541
a(S'"'
p1542
S"''"
p1543
F0.9784
tp1544
a(S'god'
p1545
S'NNP'
p1546
F0.6677
tp1547
a(S'moves'
p1548
S'VBZ'
p1549
F0.9079
tp1550
a(S'in'
p1551
S'IN'
p1552
F0.9804
tp1553
a(S'mysterious'
p1554
S'JJ'
p1555
F0.8881
tp1556
a(S'ways'
p1557
S'NNS'
p1558
F0.9352
tp1559
a(g1542
S"''"
p1560
F0.9835
tp1561
a(S'argument'
p1562
S'NN'
p1563
F0.9831
tp1564
a(S'and'
p1565
S'CC'
p1566
F0.9943
tp1567
a(S'just'
p1568
S'RB'
p1569
F0.9981
tp1570
a(S'blindingly'
p1571
S'RB'
p1572
F0.8061
tp1573
a(S'accept'
p1574
S'VB'
p1575
F0.4674
tp1576
a(S'this'
p1577
S'DT'
p1578
F0.9846
tp1579
a(S'is'
p1580
S'VBZ'
p1581
F0.99
tp1582
a(S'how'
p1583
S'WRB'
p1584
F0.9559
tp1585
a(S'Apple'
p1586
S'NNP'
p1587
F0.9603
tp1588
a(S'intends'
p1589
S'VBZ'
p1590
F0.9412
tp1591
a(S'it'
p1592
S'PRP'
p1593
F0.9954
tp1594
a(g14
g14
F0.9901
tp1595
a(S'for'
p1596
S'IN'
p1597
F0.9605
tp1598
a(S'better'
p1599
S'JJR'
p1600
F0.5337
tp1601
a(S'or'
p1602
S'CC'
p1603
F0.976
tp1604
a(S'worse'
p1605
S'JJ'
p1606
F0.5013
tp1607
a(g66
g66
F0.995
tp1608
ag175
tp1609
a((lp1610
(S'Including'
p1611
S'VBG'
p1612
F0.855
tp1613
a(S'new'
p1614
S'JJ'
p1615
F0.9894
tp1616
a(S'emojis'
p1617
S'NNS'
p1618
F0.9702
tp1619
a(S'is'
p1620
S'VBZ'
p1621
F0.9883
tp1622
a(g166
S'DT'
p1623
F0.9932
tp1624
a(S'great'
p1625
S'JJ'
p1626
F0.9962
tp1627
a(S'way'
p1628
S'NN'
p1629
F0.9194
tp1630
a(S'to'
p1631
S'TO'
p1632
F0.9965
tp1633
a(S'get'
p1634
S'VB'
p1635
F0.9977
tp1636
a(S'the'
p1637
S'DT'
p1638
F0.9879
tp1639
a(S'tech-illiterate'
p1640
S'JJ'
p1641
F0.5914
tp1642
a(S'to'
p1643
S'TO'
p1644
F0.9947
tp1645
a(S'be'
p1646
S'VB'
p1647
F0.999
tp1648
a(S'on'
p1649
S'IN'
p1650
F0.9861
tp1651
a(S'the'
p1652
S'DT'
p1653
F0.9932
tp1654
a(S'newest'
p1655
S'JJS'
p1656
F0.6284
tp1657
a(g1310
S'-LRB-'
p1658
F0.9201
tp1659
a(S'and'
p1660
S'CC'
p1661
F0.9919
tp1662
a(S'most'
p1663
S'JJS'
p1664
F0.6688
tp1665
a(S'secure'
p1666
S'JJ'
p1667
F0.3934
tp1668
a(g1319
S'-RRB-'
p1669
F0.9398
tp1670
a(S'OS'
p1671
S'NNP'
p1672
F0.6243
tp1673
a(g66
g66
F0.9925
tp1674
a(S'Good'
p1675
S'JJ'
p1676
F0.8114
tp1677
a(S'job'
p1678
S'NN'
p1679
F0.9592
tp1680
a(S'Apple'
p1681
S'NNP'
p1682
F0.8605
tp1683
a(g66
g66
F0.9958
tp1684
ag62
tp1685
a((lp1686
(S'RT'
p1687
S'RT'
p1688
F0.9751
tp1689
a(S'the'
p1690
S'DT'
p1691
F0.9939
tp1692
a(S'apple'
p1693
S'NN'
p1694
F0.6333
tp1695
a(S'music'
p1696
S'NN'
p1697
F0.9916
tp1698
a(S'sucks'
p1699
S'VBZ'
p1700
F0.946
tp1701
a(g14
g14
F0.9851
tp1702
a(S'sorry'
p1703
S'JJ'
p1704
F0.7895
tp1705
a(g66
g66
F0.9907
tp1706
ag175
tp1707
a((lp1708
(S'Middle'
p1709
S'NN'
p1710
F0.3826
tp1711
a(S'finger'
p1712
S'NN'
p1713
F0.9927
tp1714
a(S'emoji'
p1715
S'NN'
p1716
F0.676
tp1717
a(S'plus'
p1718
S'IN'
p1719
F0.3807
tp1720
a(g166
S'DT'
p1721
F0.9946
tp1722
a(S'unicorn'
p1723
S'NN'
p1724
F0.9697
tp1725
a(g14
g14
F0.9923
tp1726
a(S'good'
p1727
S'JJ'
p1728
F0.9363
tp1729
a(S'job'
p1730
S'NN'
p1731
F0.9367
tp1732
a(S'Apple'
p1733
S'NNP'
p1734
F0.8399
tp1735
a(S'????????????'
p1736
g66
F0.9738
tp1737
ag62
tp1738
a((lp1739
(S'this'
p1740
S'DT'
p1741
F0.9773
tp1742
a(S'is'
p1743
S'VBZ'
p1744
F0.9903
tp1745
a(S'definitely'
p1746
S'RB'
p1747
F0.9987
tp1748
a(S'how'
p1749
S'WRB'
p1750
F0.968
tp1751
a(S'Apple'
p1752
S'NNP'
p1753
F0.9647
tp1754
a(S'would'
p1755
S'MD'
p1756
F0.9601
tp1757
a(S'present'
p1758
S'VB'
p1759
F0.9414
tp1760
a(S'their'
p1761
S'PRP$'
p1762
F0.9462
tp1763
a(S'burgers'
p1764
S'NNS'
p1765
F0.8434
tp1766
a(g14
g14
F0.989
tp1767
a(S'good'
p1768
S'JJ'
p1769
F0.9363
tp1770
a(S'job'
p1771
S'NN'
p1772
F0.9929
tp1773
a(S':)'
p1774
S'UH'
p1775
F0.9973
tp1776
a(g287
g66
F0.9844
tp1777
ag62
tp1778
a((lp1779
(S'apple'
p1780
S'NNP'
p1781
F0.7966
tp1782
a(S'sucks'
p1783
S'VBZ'
p1784
F0.9617
tp1785
a(g14
g14
F0.988
tp1786
a(S'overrated'
p1787
S'JJ'
p1788
F0.489
tp1789
a(S'and'
p1790
S'CC'
p1791
F0.9857
tp1792
a(S'overhyped'
p1793
S'JJ'
p1794
F0.6944
tp1795
a(S'!!!'
p1796
g66
F0.9927
tp1797
ag175
tp1798
a((lp1799
(S'Good'
p1800
S'JJ'
p1801
F0.7659
tp1802
a(S'job'
p1803
S'NN'
p1804
F0.9488
tp1805
a(S'apple'
p1806
S'NN'
p1807
F0.6959
tp1808
ag62
tp1809
a((lp1810
(S'New'
p1811
S'NNP'
p1812
F0.5158
tp1813
a(S'Apple'
p1814
S'NNP'
p1815
F0.9992
tp1816
a(S'Mouse'
p1817
S'NNP'
p1818
F0.9221
tp1819
a(S'*'
p1820
g400
F0.1939
tp1821
a(S'feels'
p1822
S'VBZ'
p1823
F0.8393
tp1824
a(g1820
S"''"
p1825
F0.1836
tp1826
a(S'really'
p1827
S'RB'
p1828
F0.9903
tp1829
a(S'good'
p1830
S'JJ'
p1831
F0.9705
tp1832
a(S'in'
p1833
S'IN'
p1834
F0.9942
tp1835
a(g166
S'DT'
p1836
F0.9963
tp1837
a(S'hand'
p1838
S'NN'
p1839
F0.9926
tp1840
a(g66
g66
F0.9949
tp1841
a(S'And'
p1842
S'CC'
p1843
F0.9839
tp1844
a(S'new'
p1845
S'JJ'
p1846
F0.984
tp1847
a(S'pairing'
p1848
S'NN'
p1849
F0.9815
tp1850
a(S'process'
p1851
S'NN'
p1852
F0.9495
tp1853
a(S'is'
p1854
S'VBZ'
p1855
F0.9946
tp1856
a(S'super'
p1857
S'RB'
p1858
F0.5038
tp1859
a(S'easy'
p1860
S'JJ'
p1861
F0.9359
tp1862
a(g66
g66
F0.992
tp1863
a(S'Good'
p1864
S'JJ'
p1865
F0.7821
tp1866
a(S'job'
p1867
S'NN'
p1868
F0.9911
tp1869
a(g287
g66
F0.9974
tp1870
ag62
tp1871
a((lp1872
(S'Yesss'
p1873
S'UH'
p1874
F0.9493
tp1875
a(S'the'
p1876
S'DT'
p1877
F0.991
tp1878
a(S'new'
p1879
S'JJ'
p1880
F0.9721
tp1881
a(S'emojis'
p1882
S'NNS'
p1883
F0.9844
tp1884
a(S'are'
p1885
S'VBP'
p1886
F0.9763
tp1887
a(S'awesome'
p1888
S'JJ'
p1889
F0.9895
tp1890
a(S'good'
p1891
S'JJ'
p1892
F0.9652
tp1893
a(S'job'
p1894
S'NN'
p1895
F0.9406
tp1896
a(S'Apple'
p1897
S'NNP'
p1898
F0.8797
tp1899
ag62
tp1900
a((lp1901
(S'RT'
p1902
S'RT'
p1903
F0.9684
tp1904
a(S'????'
p1905
g66
F0.873
tp1906
a(S'Apple'
p1907
S'NNP'
p1908
F0.9531
tp1909
a(S'approved'
p1910
S'VBD'
p1911
F0.6403
tp1912
a(S'my'
p1913
S'PRP$'
p1914
F0.9935
tp1915
a(S'tvOS/iOS'
p1916
S'NNP'
p1917
F0.7164
tp1918
a(S'game'
p1919
S'NN'
p1920
F0.9451
tp1921
a(g66
g66
F0.9941
tp1922
a(S'One'
p1923
S'CD'
p1924
F0.9397
tp1925
a(S'code'
p1926
S'NN'
p1927
F0.9878
tp1928
a(S'base'
p1929
S'NN'
p1930
F0.9365
tp1931
a(S'and'
p1932
S'CC'
p1933
F0.9895
tp1934
a(S'one'
p1935
S'CD'
p1936
F0.9728
tp1937
a(S'purchase'
p1938
S'NN'
p1939
F0.8628
tp1940
a(S'runs'
p1941
S'VBZ'
p1942
F0.8287
tp1943
a(S'on'
p1944
S'IN'
p1945
F0.9658
tp1946
a(S'all'
p1947
S'DT'
p1948
F0.9954
tp1949
a(S'devices'
p1950
S'NNS'
p1951
F0.8987
tp1952
a(S'good'
p1953
S'JJ'
p1954
F0.9724
tp1955
a(S'job'
p1956
S'NN'
p1957
F0.9888
tp1958
a(g14
g14
F0.9871
tp1959
a(S'Apple'
p1960
S'NNP'
p1961
F0.9809
tp1962
a(g287
g66
F0.9872
tp1963
a(S'Any'
p1964
S'DT'
p1965
F0.885
tp1966
a(S'journalists'
p1967
S'NNS'
p1968
F0.9845
tp1969
a(S'wan'
p1970
S'JJ'
p1971
F0.4883
tp1972
ag62
tp1973
a((lp1974
(g1310
S'-LRB-'
p1975
F0.8888
tp1976
a(S'And'
p1977
S'CC'
p1978
F0.9543
tp1979
a(S'thatll'
p1980
S'PRP'
p1981
F0.3167
tp1982
a(S'be'
p1983
S'VB'
p1984
F0.9847
tp1985
a(S'the'
p1986
S'DT'
p1987
F0.9873
tp1988
a(S'only'
p1989
S'JJ'
p1990
F0.8813
tp1991
a(S'time'
p1992
S'NN'
p1993
F0.9624
tp1994
a(g137
S'PRP'
p1995
F0.982
tp1996
a(S'praise'
p1997
S'VBP'
p1998
F0.9662
tp1999
a(S'Apple'
p2000
S'NNP'
p2001
F0.963
tp2002
a(S'for'
p2003
S'IN'
p2004
F0.981
tp2005
a(S'improved'
p2006
S'VBD'
p2007
F0.526
tp2008
a(S'functionality'
p2009
S'NN'
p2010
F0.2543
tp2011
a(g66
g66
F0.9906
tp2012
a(S'iTunes'
p2013
S'NNP'
p2014
F0.5416
tp2015
a(S'still'
p2016
S'RB'
p2017
F0.9864
tp2018
a(S'SUCKS'
p2019
S'VBZ'
p2020
F0.912
tp2021
a(S'ARSE'
p2022
S'NN'
p2023
F0.5971
tp2024
a(g66
g66
F0.9875
tp2025
a(g1319
S'-RRB-'
p2026
F0.8676
tp2027
ag175
tp2028
a((lp2029
(S'APPLE'
p2030
S'NNP'
p2031
F0.9493
tp2032
a(S'WATCH'
p2033
S'VBP'
p2034
F0.3126
tp2035
a(S'SUCKS'
p2036
S'VBZ'
p2037
F0.6227
tp2038
a(g1478
g400
F0.9456
tp2039
ag175
tp2040
a((lp2041
(S'w/'
p2042
S'IN'
p2043
F0.6089
tp2044
a(S'apple'
p2045
S'NNP'
p2046
F0.5262
tp2047
a(S'computers'
p2048
S'NNS'
p2049
F0.9385
tp2050
a(g14
g14
F0.9907
tp2051
a(S'USB'
p2052
S'NNP'
p2053
F0.8074
tp2054
a(S'3.0'
p2055
S'CD'
p2056
F0.5054
tp2057
a(S'implementation'
p2058
S'NN'
p2059
F0.9697
tp2060
a(S'kinda'
p2061
S'RB'
p2062
F0.9251
tp2063
a(S'sucks'
p2064
S'VBZ'
p2065
F0.8395
tp2066
a(g66
g66
F0.9907
tp2067
a(S'Thunderbolt'
p2068
S'NN'
p2069
F0.3366
tp2070
a(S'has'
p2071
S'VBZ'
p2072
F0.9698
tp2073
a(S'been'
p2074
S'VBN'
p2075
F0.9704
tp2076
a(S'more'
p2077
S'RBR'
p2078
F0.6296
tp2079
a(S'consistent'
p2080
S'JJ'
p2081
F0.9304
tp2082
a(S'w/'
p2083
S'IN'
p2084
F0.8021
tp2085
a(S'fewer'
p2086
S'JJ'
p2087
F0.7147
tp2088
a(S'headaches'
p2089
S'NNS'
p2090
F0.9951
tp2091
a(S'for'
p2092
S'IN'
p2093
F0.9983
tp2094
a(S'me'
p2095
S'PRP'
p2096
F0.9856
tp2097
a(g66
g66
F0.9948
tp2098
ag175
tp2099
a((lp2100
(S'RT'
p2101
S'RT'
p2102
F0.9651
tp2103
a(S'for'
p2104
S'IN'
p2105
F0.9934
tp2106
a(S'mac'
p2107
S'NNP'
p2108
F0.9032
tp2109
a(S'user'
p2110
S'NN'
p2111
F0.5509
tp2112
a(S'please'
p2113
S'UH'
p2114
F0.8874
tp2115
a(S'dont'
p2116
S'VB'
p2117
F0.6535
tp2118
a(S'upgrade'
p2119
S'VB'
p2120
F0.9097
tp2121
a(S'to'
p2122
S'TO'
p2123
F0.9923
tp2124
a(S'OS'
p2125
S'NNP'
p2126
F0.8646
tp2127
a(S'X'
p2128
S'UH'
p2129
F0.7446
tp2130
a(S'EL'
p2131
S'NNP'
p2132
F0.8557
tp2133
a(S'Capitan'
p2134
S'NNP'
p2135
F0.9979
tp2136
a(g287
g66
F0.9878
tp2137
a(S'worse'
p2138
S'JJR'
p2139
F0.4569
tp2140
a(S'update'
p2141
S'NN'
p2142
F0.9728
tp2143
a(S'from'
p2144
S'IN'
p2145
F0.9964
tp2146
a(S'apple'
p2147
S'NNP'
p2148
F0.4957
tp2149
a(g66
g66
F0.9942
tp2150
a(S'the'
p2151
S'DT'
p2152
F0.994
tp2153
a(S'new'
p2154
S'JJ'
p2155
F0.9732
tp2156
a(S'os'
p2157
S'NN'
p2158
F0.63
tp2159
a(S'still'
p2160
S'RB'
p2161
F0.9733
tp2162
a(S'not'
p2163
S'RB'
p2164
F0.9963
tp2165
a(S'stable'
p2166
S'JJ'
p2167
F0.9674
tp2168
a(S'????'
p2169
g66
F0.9697
tp2170
ag175
tp2171
a((lp2172
(S'RT'
p2173
S'RT'
p2174
F0.9751
tp2175
a(S'The'
p2176
S'DT'
p2177
F0.8615
tp2178
a(S'new'
p2179
S'JJ'
p2180
F0.9596
tp2181
a(S'MacBook'
p2182
S'NN'
p2183
F0.7762
tp2184
a(S'has'
p2185
S'VBZ'
p2186
F0.9767
tp2187
a(g166
S'DT'
p2188
F0.9937
tp2189
a(S'loud'
p2190
S'JJ'
p2191
F0.922
tp2192
a(S'siren'
p2193
S'NN'
p2194
F0.9899
tp2195
a(S'that'
p2196
S'IN'
p2197
F0.4152
tp2198
a(S'alerts'
p2199
S'VBZ'
p2200
F0.8227
tp2201
a(S'the'
p2202
S'DT'
p2203
F0.9928
tp2204
a(S'other'
p2205
S'JJ'
p2206
F0.9038
tp2207
a(S'people'
p2208
S'NNS'
p2209
F0.9576
tp2210
a(S'at'
p2211
S'IN'
p2212
F0.9964
tp2213
a(S'Starbucks'
p2214
S'NNP'
p2215
F0.989
tp2216
a(S'that'
p2217
S'IN'
p2218
F0.7519
tp2219
a(S'you'
p2220
S'PRP'
p2221
F0.9978
tp2222
a(S'are'
p2223
S'VBP'
p2224
F0.9945
tp2225
a(S'writing'
p2226
S'VBG'
p2227
F0.9843
tp2228
a(S'an'
p2229
S'DT'
p2230
F0.9548
tp2231
a(S'important'
p2232
S'JJ'
p2233
F0.9052
tp2234
a(S'screenplay'
p2235
S'NN'
p2236
F0.9931
tp2237
a(g66
g66
F0.9976
tp2238
ag175
tp2239
a((lp2240
(S'yet'
p2241
S'RB'
p2242
F0.741
tp2243
a(S'to'
p2244
S'TO'
p2245
F0.9977
tp2246
a(S'see'
p2247
S'VB'
p2248
F0.9992
tp2249
a(S'the'
p2250
S'DT'
p2251
F0.8778
tp2252
a(S'need'
p2253
S'VBP'
p2254
F0.5669
tp2255
a(S'for'
p2256
S'IN'
p2257
F0.993
tp2258
a(g166
S'DT'
p2259
F0.9952
tp2260
a(S'tablet'
p2261
S'NN'
p2262
F0.9931
tp2263
a(g66
g66
F0.9954
tp2264
a(S'My'
p2265
S'PRP$'
p2266
F0.9664
tp2267
a(S'13'
p2268
S'CD'
p2269
F0.9031
tp2270
a(S'MBP'
p2271
S'NNP'
p2272
F0.7773
tp2273
a(S'w/'
p2274
S'IN'
p2275
F0.6783
tp2276
a(S'Retina'
p2277
S'NNP'
p2278
F0.6048
tp2279
a(S'is'
p2280
S'VBZ'
p2281
F0.9941
tp2282
a(S'as'
p2283
S'RB'
p2284
F0.5747
tp2285
a(S'good'
p2286
S'JJ'
p2287
F0.9233
tp2288
a(S'as'
p2289
S'IN'
p2290
F0.9517
tp2291
a(S'it'
p2292
S'PRP'
p2293
F0.9982
tp2294
a(S'gets'
p2295
S'VBZ'
p2296
F0.9709
tp2297
a(S'with'
p2298
S'IN'
p2299
F0.9908
tp2300
a(S'regards'
p2301
S'VBZ'
p2302
F0.3584
tp2303
a(S'to'
p2304
S'TO'
p2305
F0.9913
tp2306
a(S'portability'
p2307
S'VB'
p2308
F0.5368
tp2309
ag62
tp2310
a((lp2311
(S'Including'
p2312
S'VBG'
p2313
F0.8619
tp2314
a(S'Apple'
p2315
S'NNP'
p2316
F0.9844
tp2317
a(S'Pay'
p2318
S'NNP'
p2319
F0.4754
tp2320
a(S'seems'
p2321
S'VBZ'
p2322
F0.8958
tp2323
a(S'to'
p2324
S'TO'
p2325
F0.9972
tp2326
a(S'make'
p2327
S'VB'
p2328
F0.9979
tp2329
a(S'review'
p2330
S'NN'
p2331
F0.9587
tp2332
a(S'times'
p2333
S'NNS'
p2334
F0.7426
tp2335
a(S'way'
p2336
S'NN'
p2337
F0.6717
tp2338
a(S'worse'
p2339
S'JJR'
p2340
F0.38
tp2341
a(S'than'
p2342
S'IN'
p2343
F0.9966
tp2344
a(S'they'
p2345
S'PRP'
p2346
F0.9507
tp2347
a(S'already'
p2348
S'RB'
p2349
F0.9884
tp2350
a(S'are'
p2351
S'VBP'
p2352
F0.9533
tp2353
a(g66
g66
F0.9952
tp2354
ag175
tp2355
a((lp2356
(S'RT'
p2357
S'RT'
p2358
F0.9556
tp2359
a(g400
g400
F0.9747
tp2360
a(S'ronaldrojas__'
p2361
S'NN'
p2362
F0.2085
tp2363
a(g400
g400
F0.9646
tp2364
a(S'Apple'
p2365
S'NNP'
p2366
F0.9327
tp2367
a(S'music'
p2368
S'NN'
p2369
F0.9752
tp2370
a(S'sucks'
p2371
S'VBZ'
p2372
F0.946
tp2373
a(g14
g14
F0.9867
tp2374
a(S'it'
p2375
S'PRP'
p2376
F0.9972
tp2377
a(S'stays'
p2378
S'VBZ'
p2379
F0.9679
tp2380
a(S'deleting'
p2381
S'VBG'
p2382
F0.9912
tp2383
a(S'music'
p2384
S'NN'
p2385
F0.9827
tp2386
a(S'#etcPB'
p2387
S'HT'
p2388
F0.9654
tp2389
ag175
tp2390
a((lp2391
(S'RT'
p2392
S'RT'
p2393
F0.9539
tp2394
a(S'Apple'
p2395
S'NNP'
p2396
F0.9877
tp2397
a(S'Music'
p2398
S'NNP'
p2399
F0.5925
tp2400
a(S'sucks'
p2401
S'VBZ'
p2402
F0.9193
tp2403
a(S'ass'
p2404
S'NN'
p2405
F0.7687
tp2406
ag175
tp2407
a((lp2408
(S'Good'
p2409
S'JJ'
p2410
F0.777
tp2411
a(S'job'
p2412
S'NN'
p2413
F0.9842
tp2414
a(S'on'
p2415
S'IN'
p2416
F0.9983
tp2417
a(S'the'
p2418
S'DT'
p2419
F0.9965
tp2420
a(S'emojis'
p2421
S'NNS'
p2422
F0.9658
tp2423
a(S'Apple'
p2424
S'NNP'
p2425
F0.8797
tp2426
a(S'????????'
p2427
g66
F0.9728
tp2428
ag62
tp2429
a((lp2430
(S'Just'
p2431
S'RB'
p2432
F0.9969
tp2433
a(S'updated'
p2434
S'VBD'
p2435
F0.6287
tp2436
a(S'to'
p2437
S'TO'
p2438
F0.9915
tp2439
a(S'os'
p2440
S'NNS'
p2441
F0.3975
tp2442
a(S'x'
p2443
S'UH'
p2444
F0.8716
tp2445
a(S'10.11.1'
p2446
S'CD'
p2447
F0.8994
tp2448
a(S'the'
p2449
S'DT'
p2450
F0.9947
tp2451
a(S'performance'
p2452
S'NN'
p2453
F0.9929
tp2454
a(S'is'
p2455
S'VBZ'
p2456
F0.9941
tp2457
a(S'actually'
p2458
S'RB'
p2459
F0.9988
tp2460
a(S'better'
p2461
S'JJR'
p2462
F0.7991
tp2463
a(g66
g66
F0.9927
tp2464
a(S'Good'
p2465
S'JJ'
p2466
F0.8114
tp2467
a(S'job'
p2468
S'NN'
p2469
F0.9532
tp2470
a(S'Apple'
p2471
S'NNP'
p2472
F0.8534
tp2473
a(S':D'
p2474
S'UH'
p2475
F0.971
tp2476
ag62
tp2477
a((lp2478
(S'Second'
p2479
S'JJ'
p2480
F0.983
tp2481
a(S'day'
p2482
S'NN'
p2483
F0.9972
tp2484
a(S'on'
p2485
S'IN'
p2486
F0.9972
tp2487
a(S'EL'
p2488
S'NNP'
p2489
F0.9909
tp2490
a(S'Capitan'
p2491
S'NNP'
p2492
F0.9986
tp2493
a(g66
g66
F0.9939
tp2494
a(S'So'
p2495
S'RB'
p2496
F0.9407
tp2497
a(S'far'
p2498
S'RB'
p2499
F0.9316
tp2500
a(S'so'
p2501
S'RB'
p2502
F0.9429
tp2503
a(S'good'
p2504
S'JJ'
p2505
F0.9772
tp2506
a(g66
g66
F0.9878
tp2507
a(S'Leaps'
p2508
S'NNS'
p2509
F0.7318
tp2510
a(S'and'
p2511
S'CC'
p2512
F0.988
tp2513
a(S'bounds'
p2514
S'NNS'
p2515
F0.5812
tp2516
a(S'better'
p2517
S'JJR'
p2518
F0.7064
tp2519
a(S'than'
p2520
S'IN'
p2521
F0.9964
tp2522
a(S'Yosemite'
p2523
S'NNP'
p2524
F0.998
tp2525
a(g66
g66
F0.9928
tp2526
a(S'Snappy'
p2527
S'JJ'
p2528
F0.8819
tp2529
a(S'even'
p2530
S'RB'
p2531
F0.9961
tp2532
a(S'on'
p2533
S'IN'
p2534
F0.9939
tp2535
a(S'an'
p2536
S'DT'
p2537
F0.977
tp2538
a(S'older'
p2539
S'JJR'
p2540
F0.8048
tp2541
a(S'MBP'
p2542
S'NNP'
p2543
F0.5883
tp2544
a(g66
g66
F0.9961
tp2545
ag62
tp2546
a((lp2547
(S'odd'
p2548
S'JJ'
p2549
F0.8739
tp2550
a(S'how'
p2551
S'WRB'
p2552
F0.9545
tp2553
a(S'the'
p2554
S'DT'
p2555
F0.9872
tp2556
a(S'#AAPL'
p2557
S'HT'
p2558
F0.9368
tp2559
a(S'earnings'
p2560
S'NNS'
p2561
F0.9815
tp2562
a(S'keep'
p2563
S'VBP'
p2564
F0.4377
tp2565
a(S'beating'
p2566
S'VBG'
p2567
F0.9887
tp2568
a(S'expectations'
p2569
S'NNS'
p2570
F0.9902
tp2571
a(S'while'
p2572
S'IN'
p2573
F0.9567
tp2574
a(S'Apple'
p2575
S'NNP'
p2576
F0.9769
tp2577
a(S'products'
p2578
S'NNS'
p2579
F0.9169
tp2580
a(S'keep'
p2581
S'VBP'
p2582
F0.4371
tp2583
a(S'getting'
p2584
S'VBG'
p2585
F0.9962
tp2586
a(S'worse'
p2587
S'JJ'
p2588
F0.5537
tp2589
a(S'and'
p2590
S'CC'
p2591
F0.9875
tp2592
a(S'worse'
p2593
S'JJ'
p2594
F0.5978
tp2595
ag175
tp2596
a((lp2597
(S'Good'
p2598
S'JJ'
p2599
F0.777
tp2600
a(S'job'
p2601
S'NN'
p2602
F0.9488
tp2603
a(S'apple'
p2604
S'NN'
p2605
F0.76
tp2606
a(S'????????????????'
p2607
g66
F0.9765
tp2608
ag62
tp2609
a((lp2610
(S'RT'
p2611
S'RT'
p2612
F0.9493
tp2613
a(S'Good'
p2614
S'JJ'
p2615
F0.7994
tp2616
a(S'job'
p2617
S'NN'
p2618
F0.9502
tp2619
a(S'Apple'
p2620
S'NNP'
p2621
F0.8776
tp2622
a(S"I'm"
p2623
S'PRP'
p2624
F0.4942
tp2625
a(S'impressed'
p2626
S'VBD'
p2627
F0.6009
tp2628
a(S'with'
p2629
S'IN'
p2630
F0.9995
tp2631
a(S'the'
p2632
S'DT'
p2633
F0.9941
tp2634
a(S'new'
p2635
S'JJ'
p2636
F0.9805
tp2637
a(S'emojis'
p2638
S'NNS'
p2639
F0.97
tp2640
a(S'but'
p2641
S'CC'
p2642
F0.9739
tp2643
a(S'now'
p2644
S'RB'
p2645
F0.9908
tp2646
a(S'can'
p2647
S'MD'
p2648
F0.9334
tp2649
a(S'you'
p2650
S'PRP'
p2651
F0.9949
tp2652
a(S'make'
p2653
S'VBP'
p2654
F0.9607
tp2655
a(g166
S'DT'
p2656
F0.992
tp2657
a(S'brain'
p2658
S'NN'
p2659
F0.9925
tp2660
a(g14
g14
F0.9914
tp2661
a(S'an'
p2662
S'DT'
p2663
F0.9694
tp2664
a(S'athlete'
p2665
S'NN'
p2666
F0.9953
tp2667
a(g14
g14
F0.9911
tp2668
a(g166
S'DT'
p2669
F0.9909
tp2670
a(S'basket'
p2671
S'NN'
p2672
F0.9971
tp2673
a(S'case'
p2674
S'NN'
p2675
F0.9941
tp2676
a(g14
g14
F0.991
tp2677
a(g166
S'DT'
p2678
F0.9887
tp2679
a(S'princess'
p2680
S'NN'
p2681
F0.9805
tp2682
a(g14
g14
F0.986
tp2683
ag62
tp2684
a((lp2685
(S'that'
p2686
S'DT'
p2687
F0.4858
tp2688
a(S'is'
p2689
S'VBZ'
p2690
F0.9985
tp2691
a(S'the'
p2692
S'DT'
p2693
F0.9949
tp2694
a(S'stupidest'
p2695
S'JJS'
p2696
F0.5414
tp2697
a(S'emoji'
p2698
S'NN'
p2699
F0.7386
tp2700
a(g66
g66
F0.9935
tp2701
a(S'Further'
p2702
S'RB'
p2703
F0.4349
tp2704
a(g14
g14
F0.992
tp2705
a(S"I'd"
p2706
S'PRP'
p2707
F0.8568
tp2708
a(S'like'
p2709
S'VB'
p2710
F0.5787
tp2711
a(S'to'
p2712
S'TO'
p2713
F0.9962
tp2714
a(S'say'
p2715
S'VB'
p2716
F0.9952
tp2717
a(S'that'
p2718
S'DT'
p2719
F0.4721
tp2720
a(S'Citi'
p2721
S'NNP'
p2722
F0.9428
tp2723
a(S'field'
p2724
S'NN'
p2725
F0.9748
tp2726
a(S'sucks'
p2727
S'VBZ'
p2728
F0.9397
tp2729
a(g14
g14
F0.9887
tp2730
a(S'with'
p2731
S'IN'
p2732
F0.9868
tp2733
a(S'sole'
p2734
S'JJ'
p2735
F0.443
tp2736
a(S'exception'
p2737
S'NN'
p2738
F0.9838
tp2739
a(S'of'
p2740
S'IN'
p2741
F0.9973
tp2742
a(S'the'
p2743
S'DT'
p2744
F0.9968
tp2745
a(S'food'
p2746
S'NN'
p2747
F0.9914
tp2748
a(g66
g66
F0.9951
tp2749
a(S'The'
p2750
S'DT'
p2751
F0.7278
tp2752
a(S'Apple'
p2753
S'NNP'
p2754
F0.9337
tp2755
a(S'is'
p2756
S'VBZ'
p2757
F0.994
tp2758
a(S'dumb'
p2759
S'JJ'
p2760
F0.9508
tp2761
a(g66
g66
F0.9948
tp2762
ag175
tp2763
a((lp2764
(S'Apple'
p2765
S'NNP'
p2766
F0.9095
tp2767
a(S'iTunes'
p2768
S'NNP'
p2769
F0.9827
tp2770
a(S'packaging'
p2771
S'NN'
p2772
F0.9205
tp2773
a(S'SUCKS'
p2774
S'VBZ'
p2775
F0.9448
tp2776
a(g400
g400
F0.9779
tp2777
a(S'Apple'
p2778
S'NNP'
p2779
F0.9332
tp2780
a(S'iTunes'
p2781
S'NNP'
p2782
F0.9654
tp2783
a(S'&'
p2784
S'CC'
p2785
F0.9451
tp2786
a(S'QuickTime'
p2787
S'NNP'
p2788
F0.818
tp2789
a(S'Named'
p2790
S'VBD'
p2791
F0.653
tp2792
a(S"'"
p2793
S"''"
p2794
F0.9502
tp2795
a(S'Most'
p2796
S'JJS'
p2797
F0.549
tp2798
a(S'Exposed'
p2799
S'VBD'
p2800
F0.3965
tp2801
a(g2793
S"''"
p2802
F0.9505
tp2803
a(S'To'
p2804
S'TO'
p2805
F0.9554
tp2806
a(S'Threats'
p2807
S'NNS'
p2808
F0.6238
tp2809
a(S'In'
p2810
S'IN'
p2811
F0.9858
tp2812
a(S'US'
p2813
S'PRP'
p2814
F0.5886
tp2815
ag175
tp2816
a((lp2817
(S'On'
p2818
S'IN'
p2819
F0.9783
tp2820
a(S'the'
p2821
S'DT'
p2822
F0.9893
tp2823
a(S'trusty'
p2824
S'NN'
p2825
F0.8314
tp2826
a(S'MBP'
p2827
S'NNP'
p2828
F0.4574
tp2829
a(S'retina'
p2830
S'NN'
p2831
F0.7053
tp2832
a(S'edition'
p2833
S'NN'
p2834
F0.9972
tp2835
a(g14
g14
F0.9913
tp2836
a(S'upgraded'
p2837
S'VBD'
p2838
F0.772
tp2839
a(S'to'
p2840
S'TO'
p2841
F0.9854
tp2842
a(S'El'
p2843
S'NNP'
p2844
F0.9725
tp2845
a(S'Capitan'
p2846
S'NNP'
p2847
F0.9991
tp2848
a(S'over'
p2849
S'IN'
p2850
F0.9751
tp2851
a(S'24'
p2852
S'CD'
p2853
F0.9818
tp2854
a(S'hours'
p2855
S'NNS'
p2856
F0.9561
tp2857
a(S'now'
p2858
S'RB'
p2859
F0.9777
tp2860
a(g66
g66
F0.9941
tp2861
a(S'So'
p2862
S'RB'
p2863
F0.9407
tp2864
a(S'far'
p2865
S'RB'
p2866
F0.9316
tp2867
a(S'so'
p2868
S'RB'
p2869
F0.9429
tp2870
a(S'good'
p2871
S'JJ'
p2872
F0.9772
tp2873
a(g66
g66
F0.9909
tp2874
a(S'Backed'
p2875
S'VBD'
p2876
F0.6627
tp2877
a(S'up'
p2878
S'RP'
p2879
F0.7441
tp2880
a(S'to'
p2881
S'TO'
p2882
F0.9862
tp2883
a(S'time'
p2884
S'NN'
p2885
F0.7889
tp2886
a(S'machine'
p2887
S'NN'
p2888
F0.9963
tp2889
a(S'beforehand'
p2890
S'RB'
p2891
F0.742
tp2892
a(S'...'
p2893
g400
F0.9936
tp2894
ag62
tp2895
a((lp2896
(S'no'
p2897
S'DT'
p2898
F0.4836
tp2899
a(S'kidding'
p2900
S'VBG'
p2901
F0.5151
tp2902
a(S'what'
p2903
S'WP'
p2904
F0.9796
tp2905
a(S'is'
p2906
S'VBZ'
p2907
F0.9976
tp2908
a(S'the'
p2909
S'DT'
p2910
F0.9863
tp2911
a(S'big'
p2912
S'JJ'
p2913
F0.966
tp2914
a(S'deal'
p2915
S'NN'
p2916
F0.9732
tp2917
a(g14
g14
F0.9877
tp2918
a(S'oh'
p2919
S'UH'
p2920
F0.9583
tp2921
a(S"that's"
p2922
S'DT'
p2923
F0.4512
tp2924
a(S'right'
p2925
S'RB'
p2926
F0.8406
tp2927
a(S'there'
p2928
S'RB'
p2929
F0.5862
tp2930
a(S'is'
p2931
S'VBZ'
p2932
F0.9924
tp2933
a(S'not'
p2934
S'RB'
p2935
F0.9933
tp2936
a(S'one'
p2937
S'CD'
p2938
F0.8567
tp2939
a(S'...'
p2940
g400
F0.9963
tp2941
a(S'big'
p2942
S'JJ'
p2943
F0.9826
tp2944
a(S'deal'
p2945
S'NN'
p2946
F0.9732
tp2947
a(g14
g14
F0.9895
tp2948
a(S'the'
p2949
S'DT'
p2950
F0.9909
tp2951
a(S'guy'
p2952
S'NN'
p2953
F0.9637
tp2954
a(S'is'
p2955
S'VBZ'
p2956
F0.9963
tp2957
a(S'dead'
p2958
S'JJ'
p2959
F0.7626
tp2960
a(S'...'
p2961
g400
F0.9954
tp2962
a(S'Apple'
p2963
S'NNP'
p2964
F0.8784
tp2965
a(S'sucks'
p2966
S'VBZ'
p2967
F0.9575
tp2968
a(S'...'
p2969
g400
F0.9942
tp2970
ag175
tp2971
a((lp2972
(S'Apple'
p2973
S'NNP'
p2974
F0.9036
tp2975
a(S'TV'
p2976
S'NNP'
p2977
F0.8267
tp2978
a(S'2015'
p2979
S'CD'
p2980
F0.6965
tp2981
a(S'review'
p2982
S'NN'
p2983
F0.9791
tp2984
a(g400
g400
F0.9695
tp2985
a(S'fast'
p2986
S'RB'
p2987
F0.6323
tp2988
a(S'and'
p2989
S'CC'
p2990
F0.9898
tp2991
a(S'easy'
p2992
S'JJ'
p2993
F0.9097
tp2994
a(S'to'
p2995
S'TO'
p2996
F0.9954
tp2997
a(S'navigate'
p2998
S'VB'
p2999
F0.9865
tp3000
a(g14
g14
F0.9868
tp3001
a(S'but'
p3002
S'CC'
p3003
F0.9939
tp3004
a(S'keyboard'
p3005
S'NN'
p3006
F0.8972
tp3007
a(S'worse'
p3008
S'JJ'
p3009
F0.3493
tp3010
a(g14
g14
F0.9893
tp3011
a(S'Siri'
p3012
S'NNP'
p3013
F0.9995
tp3014
a(S'limited'
p3015
S'JJ'
p3016
F0.3843
tp3017
a(g14
g14
F0.9885
tp3018
a(S'feels'
p3019
S'VBZ'
p3020
F0.8515
tp3021
a(S'like'
p3022
S'IN'
p3023
F0.7121
tp3024
a(S'first'
p3025
S'JJ'
p3026
F0.9491
tp3027
a(S'effort'
p3028
S'NN'
p3029
F0.9867
tp3030
a(S'in'
p3031
S'IN'
p3032
F0.9817
tp3033
a(S'new'
p3034
S'JJ'
p3035
F0.9676
tp3036
ag175
tp3037
a((lp3038
(S'RT'
p3039
S'RT'
p3040
F0.9727
tp3041
a(S'GreggBennett'
p3042
S'NNP'
p3043
F0.3952
tp3044
a(g400
g400
F0.964
tp3045
a(S'MBP'
p3046
S'NN'
p3047
F0.3831
tp3048
a(S'...'
p3049
g400
F0.997
tp3050
a(S'always'
p3051
S'RB'
p3052
F0.982
tp3053
a(g166
S'DT'
p3054
F0.9916
tp3055
a(S'good'
p3056
S'JJ'
p3057
F0.9837
tp3058
a(S'sign'
p3059
S'NN'
p3060
F0.9291
tp3061
a(S'when'
p3062
S'WRB'
p3063
F0.9841
tp3064
a(S'starting'
p3065
S'VBG'
p3066
F0.961
tp3067
a(g166
S'DT'
p3068
F0.9914
tp3069
a(S'new'
p3070
S'JJ'
p3071
F0.9932
tp3072
a(S'position'
p3073
S'NN'
p3074
F0.9976
tp3075
a(g66
g66
F0.9925
tp3076
a(S'Bel'
p3077
S'NNP'
p3078
F0.897
tp3079
a(S'Air'
p3080
S'NNP'
p3081
F0.993
tp3082
a(S'Church'
p3083
S'NNP'
p3084
F0.9881
tp3085
ag62
tp3086
a((lp3087
(g1478
g400
F0.9272
tp3088
a(S'Good'
p3089
S'JJ'
p3090
F0.747
tp3091
a(S'job'
p3092
S'NN'
p3093
F0.9929
tp3094
a(g14
g14
F0.9906
tp3095
a(S"here's"
p3096
S'RB'
p3097
F0.4985
tp3098
a(g166
S'DT'
p3099
F0.9956
tp3100
a(S'couple'
p3101
S'NN'
p3102
F0.921
tp3103
a(S'quick'
p3104
S'JJ'
p3105
F0.8293
tp3106
a(S'pics'
p3107
S'NNS'
p3108
F0.9908
tp3109
a(S'of'
p3110
S'IN'
p3111
F0.9944
tp3112
a(S'you'
p3113
S'PRP'
p3114
F0.999
tp3115
a(S'grabbing'
p3116
S'VBG'
p3117
F0.9872
tp3118
a(S'up'
p3119
S'RP'
p3120
F0.7617
tp3121
a(S'that'
p3122
S'IN'
p3123
F0.9039
tp3124
a(S'Apple'
p3125
S'NNP'
p3126
F0.9551
tp3127
a(S'TV'
p3128
S'NN'
p3129
F0.5885
tp3130
a(g66
g66
F0.9961
tp3131
a(S'Good'
p3132
S'JJ'
p3133
F0.803
tp3134
a(S'job'
p3135
S'NN'
p3136
F0.993
tp3137
a(g66
g66
F0.9957
tp3138
ag62
tp3139
a((lp3140
(S'Apple'
p3141
S'NNP'
p3142
F0.9095
tp3143
a(S'sucks'
p3144
S'VBZ'
p3145
F0.9713
tp3146
a(S'!!!'
p3147
g66
F0.9858
tp3148
a(S'The'
p3149
S'DT'
p3150
F0.969
tp3151
a(S'fuckers'
p3152
S'NNS'
p3153
F0.9968
tp3154
a(S'play'
p3155
S'VB'
p3156
F0.7464
tp3157
a(S'around'
p3158
S'IN'
p3159
F0.5612
tp3160
a(S'with'
p3161
S'IN'
p3162
F0.9965
tp3163
a(S'chargers'
p3164
S'NNP'
p3165
F0.7157
tp3166
a(S'to'
p3167
S'TO'
p3168
F0.9883
tp3169
a(S'hog'
p3170
S'NN'
p3171
F0.4375
tp3172
a(S'the'
p3173
S'DT'
p3174
F0.9952
tp3175
a(S'markets'
p3176
S'NNS'
p3177
F0.9794
tp3178
a(g66
g66
F0.9939
tp3179
a(S'The'
p3180
S'DT'
p3181
F0.9351
tp3182
a(S'greedy'
p3183
S'JJ'
p3184
F0.9816
tp3185
a(S'bastards'
p3186
S'NNS'
p3187
F0.9877
tp3188
a(S'are'
p3189
S'VBP'
p3190
F0.9811
tp3191
a(S'hiding'
p3192
S'VBG'
p3193
F0.973
tp3194
a(S'$1B'
p3195
S'NN'
p3196
F0.4935
tp3197
a(S'in'
p3198
S'IN'
p3199
F0.9964
tp3200
a(S'China'
p3201
S'NNP'
p3202
F0.9956
tp3203
a(S'!!'
p3204
g66
F0.9926
tp3205
ag175
tp3206
a((lp3207
(S'Good'
p3208
S'JJ'
p3209
F0.6001
tp3210
a(S'Job'
p3211
S'NNP'
p3212
F0.9293
tp3213
a(S'Apple'
p3214
S'NNP'
p3215
F0.9979
tp3216
a(g66
g66
F0.996
tp3217
ag62
tp3218
a((lp3219
(S'Much'
p3220
S'RB'
p3221
F0.8341
tp3222
a(S'worse'
p3223
S'JJ'
p3224
F0.5942
tp3225
a(g400
g400
F0.9789
tp3226
a(S'requests'
p3227
S'NNS'
p3228
F0.9916
tp3229
a(S'to'
p3230
S'TO'
p3231
F0.9957
tp3232
a(S'play'
p3233
S'VB'
p3234
F0.9977
tp3235
a(S'music'
p3236
S'NN'
p3237
F0.9941
tp3238
a(S'default'
p3239
S'NN'
p3240
F0.97
tp3241
a(S'to'
p3242
S'TO'
p3243
F0.9757
tp3244
a(S'Apple'
p3245
S'NNP'
p3246
F0.9881
tp3247
a(S'Music'
p3248
S'NNP'
p3249
F0.5241
tp3250
a(S'even'
p3251
S'RB'
p3252
F0.9863
tp3253
a(S'if'
p3254
S'IN'
p3255
F0.992
tp3256
a(S'you'
p3257
S'PRP'
p3258
F0.9997
tp3259
a(S'have'
p3260
S'VBP'
p3261
F0.9794
tp3262
a(S'the'
p3263
S'DT'
p3264
F0.9962
tp3265
a(S'music'
p3266
S'NN'
p3267
F0.9922
tp3268
a(S'in'
p3269
S'IN'
p3270
F0.9935
tp3271
a(S'your'
p3272
S'PRP$'
p3273
F0.9725
tp3274
a(S'library'
p3275
S'NN'
p3276
F0.9955
tp3277
a(g66
g66
F0.9969
tp3278
ag175
tp3279
a((lp3280
(S'RT'
p3281
S'RT'
p3282
F0.9656
tp3283
a(S'Well'
p3284
S'UH'
p3285
F0.6939
tp3286
a(S'...'
p3287
g400
F0.9974
tp3288
a(S'It'
p3289
S'PRP'
p3290
F0.9938
tp3291
a(S'looks'
p3292
S'VBZ'
p3293
F0.959
tp3294
a(S'like'
p3295
S'IN'
p3296
F0.6566
tp3297
a(S"I'm"
p3298
S'PRP'
p3299
F0.7679
tp3300
a(S'getting'
p3301
S'VBG'
p3302
F0.9971
tp3303
a(g166
S'DT'
p3304
F0.9918
tp3305
a(S'google'
p3306
S'NNP'
p3307
F0.4445
tp3308
a(S'phone'
p3309
S'NN'
p3310
F0.9747
tp3311
a(g66
g66
F0.9941
tp3312
a(S'Apple'
p3313
S'NNP'
p3314
F0.8417
tp3315
a(S'products'
p3316
S'NNS'
p3317
F0.8663
tp3318
a(g137
S'PRP'
p3319
F0.9943
tp3320
a(S'feel'
p3321
S'VBP'
p3322
F0.9319
tp3323
a(S'have'
p3324
S'VB'
p3325
F0.7319
tp3326
a(S'gotten'
p3327
S'VBN'
p3328
F0.8891
tp3329
a(S'worse'
p3330
S'JJ'
p3331
F0.5465
tp3332
a(S'ever'
p3333
S'RB'
p3334
F0.9574
tp3335
a(S'since'
p3336
S'IN'
p3337
F0.9826
tp3338
a(S'Jobs'
p3339
S'NNP'
p3340
F0.6486
tp3341
a(S'died'
p3342
S'VBD'
p3343
F0.933
tp3344
a(g66
g66
F0.9958
tp3345
ag175
tp3346
a((lp3347
(S'Nvmd'
p3348
S'UH'
p3349
F0.9799
tp3350
a(g66
g66
F0.9081
tp3351
a(S'app'
p3352
S'NN'
p3353
F0.4659
tp3354
a(S'on'
p3355
S'IN'
p3356
F0.9966
tp3357
a(S'Apple'
p3358
S'NNP'
p3359
F0.9954
tp3360
a(S'TV'
p3361
S'NN'
p3362
F0.5329
tp3363
a(S'sucks'
p3364
S'VBZ'
p3365
F0.9008
tp3366
a(g66
g66
F0.9945
tp3367
a(S'Pay'
p3368
S'VB'
p3369
F0.9304
tp3370
a(S'for'
p3371
S'IN'
p3372
F0.9911
tp3373
a(S'something'
p3374
S'NN'
p3375
F0.9947
tp3376
a(S"I'm"
p3377
S'PRP'
p3378
F0.5615
tp3379
a(S'getting'
p3380
S'VBG'
p3381
F0.9981
tp3382
a(S'for'
p3383
S'IN'
p3384
F0.9721
tp3385
a(S'free'
p3386
S'JJ'
p3387
F0.9648
tp3388
a(S'with'
p3389
S'IN'
p3390
F0.999
tp3391
a(S'my'
p3392
S'PRP$'
p3393
F0.9918
tp3394
a(S'antenna'
p3395
S'NN'
p3396
F0.9758
tp3397
a(g1274
g66
F0.9934
tp3398
a(S'Nope'
p3399
S'UH'
p3400
F0.9912
tp3401
a(g66
g66
F0.9737
tp3402
a(S'Looks'
p3403
S'VBZ'
p3404
F0.6499
tp3405
a(S'like'
p3406
S'IN'
p3407
F0.8794
tp3408
a(g137
S'PRP'
p3409
F0.9934
tp3410
a(S"won't"
p3411
S'MD'
p3412
F0.7918
tp3413
a(S'be'
p3414
S'VB'
p3415
F0.9953
tp3416
a(S'watching'
p3417
S'VBG'
p3418
F0.994
tp3419
a(S'your'
p3420
S'PRP$'
p3421
F0.7319
tp3422
a(S'shows'
p3423
S'NNS'
p3424
F0.7861
tp3425
a(g287
g66
F0.9973
tp3426
ag175
tp3427
a((lp3428
(S'Good'
p3429
S'JJ'
p3430
F0.777
tp3431
a(S'job'
p3432
S'NN'
p3433
F0.9364
tp3434
a(S'Apple'
p3435
S'NNP'
p3436
F0.919
tp3437
a(S'for'
p3438
S'IN'
p3439
F0.9641
tp3440
a(S'stepping'
p3441
S'VBG'
p3442
F0.965
tp3443
a(S'up'
p3444
S'RP'
p3445
F0.8919
tp3446
a(S'your'
p3447
S'PRP$'
p3448
F0.9909
tp3449
a(S'game'
p3450
S'NN'
p3451
F0.9938
tp3452
a(S'and'
p3453
S'CC'
p3454
F0.9945
tp3455
a(S'adding'
p3456
S'VBG'
p3457
F0.9905
tp3458
a(S'some'
p3459
S'DT'
p3460
F0.9762
tp3461
a(S'new'
p3462
S'JJ'
p3463
F0.99
tp3464
a(S'emojis'
p3465
S'NNS'
p3466
F0.9753
tp3467
a(S'????'
p3468
g66
F0.9745
tp3469
ag62
tp3470
a((lp3471
(S'so'
p3472
S'RB'
p3473
F0.7426
tp3474
a(S'after'
p3475
S'IN'
p3476
F0.9695
tp3477
a(g166
S'DT'
p3478
F0.9977
tp3479
a(S'couple'
p3480
S'NN'
p3481
F0.9511
tp3482
a(S'of'
p3483
S'IN'
p3484
F0.9823
tp3485
a(S'testings'
p3486
S'NNS'
p3487
F0.6231
tp3488
a(S'this'
p3489
S'DT'
p3490
F0.9948
tp3491
a(S'mbp'
p3492
S'NN'
p3493
F0.9444
tp3494
a(S'is'
p3495
S'VBZ'
p3496
F0.9909
tp3497
a(S'pretty'
p3498
S'RB'
p3499
F0.9878
tp3500
a(S'good'
p3501
S'JJ'
p3502
F0.9099
tp3503
a(g14
g14
F0.9903
tp3504
a(S'streamed'
p3505
S'VBD'
p3506
F0.4557
tp3507
a(S'dota'
p3508
S'NNP'
p3509
F0.3545
tp3510
a(S'2'
p3511
S'CD'
p3512
F0.4221
tp3513
a(S'apparently'
p3514
S'RB'
p3515
F0.8982
tp3516
a(S'p'
p3517
S'RB'
p3518
F0.2499
tp3519
a(S'good'
p3520
S'JJ'
p3521
F0.8635
tp3522
a(S'iono'
p3523
S'UH'
p3524
F0.8981
tp3525
ag62
tp3526
a((lp3527
(S'IMO'
p3528
S'NNP'
p3529
F0.3084
tp3530
a(g14
g14
F0.974
tp3531
a(S'Apple'
p3532
S'NNP'
p3533
F0.9948
tp3534
a(S'sucks'
p3535
S'VBZ'
p3536
F0.9752
tp3537
a(S'now'
p3538
S'RB'
p3539
F0.9869
tp3540
a(S'that'
p3541
S'IN'
p3542
F0.5416
tp3543
a(S'Jobs'
p3544
S'NNS'
p3545
F0.536
tp3546
a(S'is'
p3547
S'VBZ'
p3548
F0.9896
tp3549
a(S'gone'
p3550
S'VBN'
p3551
F0.965
tp3552
a(g66
g66
F0.9937
tp3553
a(S'Innovation'
p3554
S'NN'
p3555
F0.5785
tp3556
a(S'has'
p3557
S'VBZ'
p3558
F0.9733
tp3559
a(S'slowed'
p3560
S'VBN'
p3561
F0.7818
tp3562
a(S'tremendously'
p3563
S'RB'
p3564
F0.9762
tp3565
a(S'--'
p3566
g400
F0.7999
tp3567
a(S'derivative'
p3568
S'NN'
p3569
F0.4269
tp3570
a(g2784
S'CC'
p3571
F0.9526
tp3572
a(S'copycat'
p3573
S'NN'
p3574
F0.6225
tp3575
a(S'features'
p3576
S'NNS'
p3577
F0.9465
tp3578
a(g66
g66
F0.992
tp3579
a(S'smh'
p3580
S'UH'
p3581
F0.9517
tp3582
ag175
tp3583
a((lp3584
(S'RT'
p3585
S'RT'
p3586
F0.9702
tp3587
a(S'So'
p3588
S'RB'
p3589
F0.5441
tp3590
a(S'basically'
p3591
S'RB'
p3592
F0.9983
tp3593
a(S'with'
p3594
S'IN'
p3595
F0.9977
tp3596
a(S'the'
p3597
S'DT'
p3598
F0.9966
tp3599
a(S'6S'
p3600
S'NNS'
p3601
F0.7901
tp3602
a(S'hardly'
p3603
S'RB'
p3604
F0.9878
tp3605
a(S'anything'
p3606
S'NN'
p3607
F0.8965
tp3608
a(S'has'
p3609
S'VBZ'
p3610
F0.979
tp3611
a(S'changed'
p3612
S'VBN'
p3613
F0.8347
tp3614
a(g66
g66
F0.9941
tp3615
a(S'Good'
p3616
S'JJ'
p3617
F0.8114
tp3618
a(S'job'
p3619
S'NN'
p3620
F0.9507
tp3621
a(S'Apple'
p3622
S'NNP'
p3623
F0.8591
tp3624
a(S'????'
p3625
g66
F0.9744
tp3626
ag175
tp3627
a((lp3628
(S'Apple'
p3629
S'NNP'
p3630
F0.9036
tp3631
a(S'TV'
p3632
S'NNP'
p3633
F0.8267
tp3634
a(S'2015'
p3635
S'CD'
p3636
F0.7422
tp3637
a(g400
g400
F0.9767
tp3638
a(S'fast'
p3639
S'RB'
p3640
F0.6323
tp3641
a(S'and'
p3642
S'CC'
p3643
F0.9898
tp3644
a(S'easy'
p3645
S'JJ'
p3646
F0.9097
tp3647
a(S'to'
p3648
S'TO'
p3649
F0.9954
tp3650
a(S'navigate'
p3651
S'VB'
p3652
F0.9865
tp3653
a(g14
g14
F0.9868
tp3654
a(S'but'
p3655
S'CC'
p3656
F0.9939
tp3657
a(S'keyboard'
p3658
S'NN'
p3659
F0.8972
tp3660
a(S'worse'
p3661
S'JJ'
p3662
F0.3493
tp3663
a(g14
g14
F0.9893
tp3664
a(S'Siri'
p3665
S'NNP'
p3666
F0.9995
tp3667
a(S'limited'
p3668
S'JJ'
p3669
F0.3843
tp3670
a(g14
g14
F0.9885
tp3671
a(S'feels'
p3672
S'VBZ'
p3673
F0.8515
tp3674
a(S'like'
p3675
S'IN'
p3676
F0.7121
tp3677
a(S'first'
p3678
S'JJ'
p3679
F0.9491
tp3680
a(S'effort'
p3681
S'NN'
p3682
F0.9864
tp3683
a(S'in'
p3684
S'IN'
p3685
F0.9806
tp3686
a(S'new'
p3687
S'JJ'
p3688
F0.9817
tp3689
a(S'approach'
p3690
S'NN'
p3691
F0.9619
tp3692
ag175
tp3693
a((lp3694
(S'Good'
p3695
S'JJ'
p3696
F0.777
tp3697
a(S'job'
p3698
S'NN'
p3699
F0.902
tp3700
a(S'Apple'
p3701
S'NNP'
p3702
F0.8928
tp3703
a(S'????????????????????????????????????????'
p3704
g66
F0.2825
tp3705
ag62
tp3706
a((lp3707
(S'my'
p3708
S'PRP$'
p3709
F0.9814
tp3710
a(S'phone'
p3711
S'NN'
p3712
F0.9915
tp3713
a(S'wont'
p3714
S'MD'
p3715
F0.5074
tp3716
a(S'charge'
p3717
S'VB'
p3718
F0.958
tp3719
a(S'apple'
p3720
S'NN'
p3721
F0.4618
tp3722
a(S'sucks'
p3723
S'VBZ'
p3724
F0.9836
tp3725
a(S'????'
p3726
g66
F0.9778
tp3727
ag175
tp3728
a((lp3729
(S'Apple'
p3730
S'NNP'
p3731
F0.9036
tp3732
a(S'TV'
p3733
S'NNP'
p3734
F0.8267
tp3735
a(S'2015'
p3736
S'CD'
p3737
F0.6965
tp3738
a(S'review'
p3739
S'NN'
p3740
F0.9791
tp3741
a(g400
g400
F0.9695
tp3742
a(S'fast'
p3743
S'RB'
p3744
F0.6323
tp3745
a(S'and'
p3746
S'CC'
p3747
F0.9898
tp3748
a(S'easy'
p3749
S'JJ'
p3750
F0.9097
tp3751
a(S'to'
p3752
S'TO'
p3753
F0.9954
tp3754
a(S'navigate'
p3755
S'VB'
p3756
F0.9865
tp3757
a(g14
g14
F0.9868
tp3758
a(S'but'
p3759
S'CC'
p3760
F0.9939
tp3761
a(S'keyboard'
p3762
S'NN'
p3763
F0.8972
tp3764
a(S'worse'
p3765
S'JJ'
p3766
F0.3493
tp3767
a(g14
g14
F0.9893
tp3768
a(S'Siri'
p3769
S'NNP'
p3770
F0.9995
tp3771
a(S'limited'
p3772
S'JJ'
p3773
F0.3843
tp3774
a(g14
g14
F0.9885
tp3775
a(S'feels'
p3776
S'VBZ'
p3777
F0.8515
tp3778
a(S'like'
p3779
S'IN'
p3780
F0.7121
tp3781
a(S'first'
p3782
S'JJ'
p3783
F0.9491
tp3784
a(S'effort'
p3785
S'NN'
p3786
F0.9864
tp3787
a(S'in'
p3788
S'IN'
p3789
F0.9817
tp3790
a(S'new'
p3791
S'JJ'
p3792
F0.972
tp3793
a(g166
S'DT'
p3794
F0.9659
tp3795
ag175
tp3796
a((lp3797
(g137
S'PRP'
p3798
F0.9981
tp3799
a(S'have'
p3800
S'VBP'
p3801
F0.9779
tp3802
a(S'Apple'
p3803
S'NNP'
p3804
F0.904
tp3805
a(S'TV'
p3806
S'NN'
p3807
F0.5045
tp3808
a(g66
g66
F0.9963
tp3809
a(S'It'
p3810
S'PRP'
p3811
F0.9959
tp3812
a(S'sucks'
p3813
S'VBZ'
p3814
F0.9768
tp3815
a(g287
g66
F0.9893
tp3816
a(S'????'
p3817
g66
F0.9454
tp3818
ag175
tp3819
a((lp3820
(S'One'
p3821
S'CD'
p3822
F0.8922
tp3823
a(S'thing'
p3824
S'NN'
p3825
F0.9461
tp3826
a(g137
S'PRP'
p3827
F0.9924
tp3828
a(S'love'
p3829
S'VBP'
p3830
F0.9896
tp3831
a(S'about'
p3832
S'IN'
p3833
F0.9674
tp3834
a(S'this'
p3835
S'DT'
p3836
F0.9903
tp3837
a(S'update'
p3838
S'NN'
p3839
F0.9971
tp3840
a(S'is'
p3841
S'VBZ'
p3842
F0.995
tp3843
a(S'the'
p3844
S'DT'
p3845
F0.9799
tp3846
a(S'back-to-the-app-you-were-on'
p3847
S'NN'
p3848
F0.5582
tp3849
a(S'button'
p3850
S'NN'
p3851
F0.9869
tp3852
a(S'that'
p3853
S'IN'
p3854
F0.7831
tp3855
a(S'you'
p3856
S'PRP'
p3857
F0.9975
tp3858
a(S'get'
p3859
S'VBP'
p3860
F0.9768
tp3861
a(S'when'
p3862
S'WRB'
p3863
F0.9803
tp3864
a(S'you'
p3865
S'PRP'
p3866
F0.9988
tp3867
a(S'open'
p3868
S'JJ'
p3869
F0.3677
tp3870
a(g166
S'DT'
p3871
F0.9919
tp3872
a(S'message'
p3873
S'NN'
p3874
F0.9969
tp3875
a(g66
g66
F0.9951
tp3876
a(S'Good'
p3877
S'JJ'
p3878
F0.7821
tp3879
a(S'job'
p3880
S'NN'
p3881
F0.9542
tp3882
a(S'Apple'
p3883
S'NNP'
p3884
F0.8942
tp3885
ag62
tp3886
a((lp3887
(S'aw'
p3888
S'UH'
p3889
F0.9947
tp3890
a(S'wth'
p3891
S'UH'
p3892
F0.9786
tp3893
a(S'that'
p3894
S'DT'
p3895
F0.4422
tp3896
a(S'sucks'
p3897
S'VBZ'
p3898
F0.9834
tp3899
a(S':('
p3900
S'UH'
p3901
F0.8679
tp3902
a(S'go'
p3903
S'VB'
p3904
F0.6358
tp3905
a(S'to'
p3906
S'TO'
p3907
F0.9895
tp3908
a(S'the'
p3909
S'DT'
p3910
F0.9806
tp3911
a(S'Apple'
p3912
S'NNP'
p3913
F0.9966
tp3914
a(S'Store'
p3915
S'NNP'
p3916
F0.917
tp3917
a(S'they'
p3918
S'PRP'
p3919
F0.9777
tp3920
a(S'might'
p3921
S'MD'
p3922
F0.9502
tp3923
a(S'help'
p3924
S'VB'
p3925
F0.9929
tp3926
a(S'u'
p3927
S'PRP'
p3928
F0.9893
tp3929
a(S'there'
p3930
S'RB'
p3931
F0.916
tp3932
a(g14
g14
F0.9898
tp3933
a(S'of'
p3934
S'IN'
p3935
F0.9251
tp3936
a(S'course'
p3937
S'NN'
p3938
F0.9653
tp3939
ag175
tp3940
a((lp3941
(S'They'
p3942
S'PRP'
p3943
F0.9824
tp3944
a(S'feel'
p3945
S'VBP'
p3946
F0.8252
tp3947
a(S'good'
p3948
S'JJ'
p3949
F0.9337
tp3950
a(g66
g66
F0.9892
tp3951
a(S'A'
p3952
S'DT'
p3953
F0.9748
tp3954
a(S'little'
p3955
S'JJ'
p3956
F0.8584
tp3957
a(S'less'
p3958
S'JJR'
p3959
F0.4891
tp3960
a(S'travel'
p3961
S'NN'
p3962
F0.9391
tp3963
a(S'than'
p3964
S'IN'
p3965
F0.9959
tp3966
a(S'the'
p3967
S'DT'
p3968
F0.9956
tp3969
a(S'MBP'
p3970
S'NNP'
p3971
F0.6118
tp3972
a(S'keys'
p3973
S'NNS'
p3974
F0.8801
tp3975
a(g14
g14
F0.989
tp3976
a(S'but'
p3977
S'CC'
p3978
F0.9966
tp3979
a(S'not'
p3980
S'RB'
p3981
F0.9986
tp3982
a(S'much'
p3983
S'RB'
p3984
F0.6672
tp3985
a(g66
g66
F0.9919
tp3986
a(S'Not'
p3987
S'RB'
p3988
F0.9976
tp3989
a(S'like'
p3990
S'IN'
p3991
F0.7808
tp3992
a(S'the'
p3993
S'DT'
p3994
F0.9969
tp3995
a(S'MacBook'
p3996
S'NNP'
p3997
F0.5119
tp3998
a(g66
g66
F0.9946
tp3999
a(g137
S'PRP'
p4000
F0.9962
tp4001
a(S'can'
p4002
S'MD'
p4003
F0.9769
tp4004
a(S'type'
p4005
S'VB'
p4006
F0.8913
tp4007
a(S'fast'
p4008
S'RB'
p4009
F0.8367
tp4010
a(S'on'
p4011
S'IN'
p4012
F0.9954
tp4013
a(S'the'
p4014
S'DT'
p4015
F0.9932
tp4016
a(S'new'
p4017
S'JJ'
p4018
F0.9681
tp4019
a(S'keyboard'
p4020
S'NN'
p4021
F0.9854
tp4022
a(g66
g66
F0.9966
tp4023
ag62
tp4024
a((lp4025
(S'RT'
p4026
S'RT'
p4027
F0.9539
tp4028
a(S'Apple'
p4029
S'NNP'
p4030
F0.9877
tp4031
a(S'Music'
p4032
S'NNP'
p4033
F0.5153
tp4034
a(S'fucking'
p4035
S'VBG'
p4036
F0.4415
tp4037
a(S'sucks'
p4038
S'VBZ'
p4039
F0.9415
tp4040
ag175
tp4041
a((lp4042
(S'good'
p4043
S'JJ'
p4044
F0.7479
tp4045
a(S'job'
p4046
S'NN'
p4047
F0.9146
tp4048
a(S'Apple'
p4049
S'NNP'
p4050
F0.919
tp4051
a(g14
g14
F0.9888
tp4052
a(g137
S'PRP'
p4053
F0.9792
tp4054
a(S"won't"
p4055
S'MD'
p4056
F0.6472
tp4057
a(S'use'
p4058
S'VB'
p4059
F0.9552
tp4060
a(S'half'
p4061
S'JJ'
p4062
F0.3815
tp4063
a(S'these'
p4064
S'DT'
p4065
F0.9771
tp4066
a(S'emojis'
p4067
S'NNS'
p4068
F0.9748
tp4069
a(S'but'
p4070
S'CC'
p4071
F0.9678
tp4072
a(S'you'
p4073
S'PRP'
p4074
F0.9991
tp4075
a(S'did'
p4076
S'VBD'
p4077
F0.9282
tp4078
a(S'well'
p4079
S'RB'
p4080
F0.4357
tp4081
a(S'fam'
p4082
S'JJ'
p4083
F0.4167
tp4084
a(S'????????????????'
p4085
g66
F0.9695
tp4086
ag62
tp4087
a((lp4088
(g3952
S'DT'
p4089
F0.9553
tp4090
a(S'full-charged'
p4091
S'JJ'
p4092
F0.9861
tp4093
a(S'MBP'
p4094
S'NN'
p4095
F0.7125
tp4096
a(S'is'
p4097
S'VBZ'
p4098
F0.9928
tp4099
a(S'good'
p4100
S'JJ'
p4101
F0.9763
tp4102
a(S'enough'
p4103
S'RB'
p4104
F0.844
tp4105
a(S'to'
p4106
S'TO'
p4107
F0.9946
tp4108
a(S'cover'
p4109
S'VB'
p4110
F0.928
tp4111
a(g3511
S'CD'
p4112
F0.7041
tp4113
a(S'days'
p4114
S'NNS'
p4115
F0.8849
tp4116
a(S'business'
p4117
S'NN'
p4118
F0.7786
tp4119
a(S'work'
p4120
S'NN'
p4121
F0.9894
tp4122
a(S'in'
p4123
S'IN'
p4124
F0.9916
tp4125
a(S'weekend'
p4126
S'NN'
p4127
F0.9651
tp4128
a(S'#Razorfish'
p4129
S'HT'
p4130
F0.9587
tp4131
a(S'#RazorfishHK'
p4132
S'HT'
p4133
F0.9717
tp4134
a(S'#MBP'
p4135
S'HT'
p4136
F0.9649
tp4137
ag62
tp4138
a((lp4139
(S'RT'
p4140
S'RT'
p4141
F0.9588
tp4142
a(S"WC's"
p4143
S'NNP'
p4144
F0.5573
tp4145
a(S'album'
p4146
S'NN'
p4147
F0.832
tp4148
a(S'is'
p4149
S'VBZ'
p4150
F0.9943
tp4151
a(S'????????????,'
p4152
S'NNP'
p4153
F0.5207
tp4154
a(S'Apple'
p4155
S'NNP'
p4156
F0.9992
tp4157
a(S'Music'
p4158
S'NN'
p4159
F0.4976
tp4160
a(S'with'
p4161
S'IN'
p4162
F0.9993
tp4163
a(S'the'
p4164
S'DT'
p4165
F0.9878
tp4166
a(S'connect'
p4167
S'NN'
p4168
F0.9619
tp4169
a(g14
g14
F0.9901
tp4170
a(S'good'
p4171
S'JJ'
p4172
F0.9217
tp4173
a(S'job'
p4174
S'NN'
p4175
F0.9808
tp4176
ag62
tp4177
a((lp4178
(S'So'
p4179
S'RB'
p4180
F0.8246
tp4181
a(S'far'
p4182
S'RB'
p4183
F0.9607
tp4184
a(S'has'
p4185
S'VBZ'
p4186
F0.9471
tp4187
a(S'El'
p4188
S'NNP'
p4189
F0.9597
tp4190
a(S'Capitan'
p4191
S'NNP'
p4192
F0.9989
tp4193
a(S'been'
p4194
S'VBN'
p4195
F0.8768
tp4196
a(g166
S'DT'
p4197
F0.9906
tp4198
a(S'complete'
p4199
S'JJ'
p4200
F0.9592
tp4201
a(S'success'
p4202
S'NN'
p4203
F0.7524
tp4204
a(S'on'
p4205
S'IN'
p4206
F0.9947
tp4207
a(S'my'
p4208
S'PRP$'
p4209
F0.9962
tp4210
a(S'4'
p4211
S'CD'
p4212
F0.7675
tp4213
a(g14
g14
F0.9902
tp4214
a(S'5'
p4215
S'CD'
p4216
F0.9937
tp4217
a(S'years'
p4218
S'NNS'
p4219
F0.9694
tp4220
a(S'old'
p4221
S'JJ'
p4222
F0.9773
tp4223
a(S'MBP'
p4224
S'NN'
p4225
F0.4882
tp4226
a(g66
g66
F0.9932
tp4227
a(S'Feels'
p4228
S'VBZ'
p4229
F0.6928
tp4230
a(S'snappier'
p4231
S'JJR'
p4232
F0.7365
tp4233
a(S'and'
p4234
S'CC'
p4235
F0.9963
tp4236
a(S'overall'
p4237
S'RB'
p4238
F0.3229
tp4239
a(S'like'
p4240
S'IN'
p4241
F0.9048
tp4242
a(g166
S'DT'
p4243
F0.9959
tp4244
a(S'newer'
p4245
S'JJ'
p4246
F0.9645
tp4247
a(S'machine'
p4248
S'NN'
p4249
F0.9955
tp4250
a(g66
g66
F0.9949
tp4251
a(S'Good'
p4252
S'JJ'
p4253
F0.8114
tp4254
a(S'job'
p4255
S'NN'
p4256
F0.9525
tp4257
a(S'Apple'
p4258
S'NNP'
p4259
F0.8045
tp4260
a(g287
g66
F0.9949
tp4261
ag62
tp4262
a((lp4263
(g137
S'PRP'
p4264
F0.9968
tp4265
a(S"can't"
p4266
S'MD'
p4267
F0.8392
tp4268
a(S'c'
p4269
S'VB'
p4270
F0.376
tp4271
a(S'la'
p4272
S'NNP'
p4273
F0.931
tp4274
a(S'wth'
p4275
S'UH'
p4276
F0.5633
tp4277
a(S'apple'
p4278
S'NNP'
p4279
F0.4939
tp4280
a(S'sucks'
p4281
S'VBZ'
p4282
F0.9831
tp4283
a(S'????????????????????????'
p4284
g66
F0.9682
tp4285
ag175
tp4286
a((lp4287
(S'RT'
p4288
S'RT'
p4289
F0.9702
tp4290
a(S'ugh'
p4291
S'UH'
p4292
F0.7344
tp4293
a(S'Jobs'
p4294
S'NNS'
p4295
F0.4773
tp4296
a(g1820
S'UH'
p4297
F0.4196
tp4298
a(S'dammit'
p4299
S'UH'
p4300
F0.9954
tp4301
a(S'apple'
p4302
S'UH'
p4303
F0.2955
tp4304
a(S'your'
p4305
S'PRP$'
p4306
F0.8936
tp4307
a(S'autocorrect'
p4308
S'NN'
p4309
F0.8556
tp4310
a(S'sucks'
p4311
S'VBZ'
p4312
F0.958
tp4313
a(S'just'
p4314
S'RB'
p4315
F0.9996
tp4316
a(S'like'
p4317
S'IN'
p4318
F0.5067
tp4319
a(S'your'
p4320
S'PRP$'
p4321
F0.9652
tp4322
a(S'founder'
p4323
S'NN'
p4324
F0.9878
tp4325
ag175
tp4326
a((lp4327
(S'apple'
p4328
S'NNP'
p4329
F0.7966
tp4330
a(S'sucks'
p4331
S'VBZ'
p4332
F0.9755
tp4333
a(S'dick'
p4334
S'NN'
p4335
F0.7106
tp4336
a(S'thats'
p4337
S'DT'
p4338
F0.4226
tp4339
a(S'why'
p4340
S'WRB'
p4341
F0.9104
tp4342
ag175
tp4343
a((lp4344
(S'THE'
p4345
S'DT'
p4346
F0.9151
tp4347
a(S'NEW'
p4348
S'JJ'
p4349
F0.9084
tp4350
a(S'EMOJIS'
p4351
S'NNS'
p4352
F0.9673
tp4353
a(S'ARE'
p4354
S'VBP'
p4355
F0.9567
tp4356
a(S'ON'
p4357
S'IN'
p4358
F0.9286
tp4359
a(S'POINT'
p4360
S'NN'
p4361
F0.4669
tp4362
a(S'GOOD'
p4363
S'JJ'
p4364
F0.8999
tp4365
a(S'JOB'
p4366
S'NN'
p4367
F0.5924
tp4368
a(S'APPLE-Zoe'
p4369
S'NNP'
p4370
F0.7194
tp4371
ag62
tp4372
a((lp4373
(S'Good'
p4374
S'JJ'
p4375
F0.777
tp4376
a(S'job'
p4377
S'NN'
p4378
F0.9488
tp4379
a(S'apple'
p4380
S'NN'
p4381
F0.76
tp4382
a(S'????'
p4383
g66
F0.9764
tp4384
ag62
tp4385
a((lp4386
(S'Dear'
p4387
S'UH'
p4388
F0.7271
tp4389
a(S'Apple'
p4390
S'NNP'
p4391
F0.936
tp4392
a(g14
g14
F0.9881
tp4393
a(S'EL'
p4394
S'NNP'
p4395
F0.979
tp4396
a(S'Capitan'
p4397
S'NNP'
p4398
F0.9994
tp4399
a(S'update'
p4400
S'NN'
p4401
F0.9548
tp4402
a(S'sucks'
p4403
S'VBZ'
p4404
F0.9215
tp4405
a(S'and'
p4406
S'CC'
p4407
F0.9889
tp4408
a(S'ruins'
p4409
S'VBZ'
p4410
F0.3987
tp4411
a(S'all'
p4412
S'DT'
p4413
F0.928
tp4414
a(S'your'
p4415
S'PRP$'
p4416
F0.9764
tp4417
a(S'music'
p4418
S'NN'
p4419
F0.9963
tp4420
a(S'plug-ins'
p4421
S'NNS'
p4422
F0.8669
tp4423
a(S'Sincerely'
p4424
S'RB'
p4425
F0.9891
tp4426
a(g14
g14
F0.9913
tp4427
a(S'All'
p4428
S'DT'
p4429
F0.97
tp4430
a(S'Producers'
p4431
S'NNS'
p4432
F0.9415
tp4433
a(S'#fuckyouapple'
p4434
S'HT'
p4435
F0.9347
tp4436
a(S'#housemusic'
p4437
S'HT'
p4438
F0.985
tp4439
a(S'#producerproblems'
p4440
S'HT'
p4441
F0.9781
tp4442
ag175
tp4443
a((lp4444
(S'these'
p4445
S'DT'
p4446
F0.9072
tp4447
a(S'Apple'
p4448
S'NNP'
p4449
F0.9696
tp4450
a(S'watch'
p4451
S'VB'
p4452
F0.3423
tp4453
a(S'commercials'
p4454
S'NNS'
p4455
F0.9893
tp4456
a(S'are'
p4457
S'VBP'
p4458
F0.9729
tp4459
a(S'worse'
p4460
S'JJ'
p4461
F0.4705
tp4462
a(S'than'
p4463
S'IN'
p4464
F0.9967
tp4465
a(S'the'
p4466
S'DT'
p4467
F0.993
tp4468
a(S'#GOPDebate'
p4469
S'HT'
p4470
F0.9902
tp4471
ag175
tp4472
a((lp4473
(S'good'
p4474
S'JJ'
p4475
F0.7287
tp4476
a(S'job'
p4477
S'NN'
p4478
F0.9308
tp4479
a(S'apple'
p4480
S'NN'
p4481
F0.6959
tp4482
ag62
tp4483
a((lp4484
(S'my'
p4485
S'PRP$'
p4486
F0.9651
tp4487
a(S'new'
p4488
S'JJ'
p4489
F0.9807
tp4490
a(S'macbook'
p4491
S'NN'
p4492
F0.9606
tp4493
a(S'pro'
p4494
S'NN'
p4495
F0.8529
tp4496
a(S'has'
p4497
S'VBZ'
p4498
F0.977
tp4499
a(g166
S'DT'
p4500
F0.9875
tp4501
a(S'SHOCKINGLY'
p4502
S'RB'
p4503
F0.9937
tp4504
a(S'loud'
p4505
S'JJ'
p4506
F0.9681
tp4507
a(S'keyboard'
p4508
S'NN'
p4509
F0.9756
tp4510
a(g66
g66
F0.9961
tp4511
ag175
tp4512
a((lp4513
(S'MBP'
p4514
S'NNP'
p4515
F0.5792
tp4516
a(S'15'
p4517
S'CD'
p4518
F0.9376
tp4519
a(g1542
S"''"
p4520
F0.9841
tp4521
a(g166
S'DT'
p4522
F0.9723
tp4523
a(S'good'
p4524
S'JJ'
p4525
F0.9834
tp4526
a(S'laptop'
p4527
S'NN'
p4528
F0.9129
tp4529
a(S"that's"
p4530
S'WDT'
p4531
F0.2711
tp4532
a(S'for'
p4533
S'IN'
p4534
F0.9702
tp4535
a(S'sure'
p4536
S'JJ'
p4537
F0.9726
tp4538
a(g66
g66
F0.9912
tp4539
a(S"Don't"
p4540
S'VB'
p4541
F0.3921
tp4542
a(S'think'
p4543
S'VB'
p4544
F0.8299
tp4545
a(S'SB'
p4546
S'NNP'
p4547
F0.9103
tp4548
a(S'could'
p4549
S'MD'
p4550
F0.9782
tp4551
a(S'replace'
p4552
S'VB'
p4553
F0.9982
tp4554
a(S'my'
p4555
S'PRP$'
p4556
F0.9736
tp4557
a(S'Aorus'
p4558
S'NNP'
p4559
F0.4858
tp4560
a(S'13'
p4561
S'CD'
p4562
F0.9236
tp4563
a(g1542
S"''"
p4564
F0.9841
tp4565
a(S'but'
p4566
S'CC'
p4567
F0.9773
tp4568
a(S'will'
p4569
S'MD'
p4570
F0.9855
tp4571
a(S'have'
p4572
S'VB'
p4573
F0.995
tp4574
a(S'to'
p4575
S'TO'
p4576
F0.9981
tp4577
a(S'wait'
p4578
S'VB'
p4579
F0.9817
tp4580
a(S'and'
p4581
S'CC'
p4582
F0.992
tp4583
a(S'see'
p4584
S'VB'
p4585
F0.9466
tp4586
a(g66
g66
F0.9951
tp4587
ag62
tp4588
a((lp4589
(S'RT'
p4590
S'RT'
p4591
F0.9679
tp4592
a(S'apple'
p4593
S'NN'
p4594
F0.4675
tp4595
a(S'music'
p4596
S'NN'
p4597
F0.9934
tp4598
a(S'sucks'
p4599
S'VBZ'
p4600
F0.9663
tp4601
a(S'fucking'
p4602
S'JJ'
p4603
F0.4179
tp4604
a(S'dick'
p4605
S'NN'
p4606
F0.8513
tp4607
ag175
tp4608
a((lp4609
(S'No'
p4610
S'DT'
p4611
F0.7999
tp4612
a(S'way'
p4613
S'NN'
p4614
F0.9716
tp4615
a(g14
g14
F0.9888
tp4616
a(S'lol'
p4617
S'UH'
p4618
F0.9732
tp4619
a(S'...'
p4620
g400
F0.9954
tp4621
a(g137
S'PRP'
p4622
F0.9969
tp4623
a(S"don't"
p4624
S'VBP'
p4625
F0.9059
tp4626
a(S'trust'
p4627
S'VB'
p4628
F0.9217
tp4629
a(S'Apple'
p4630
S'NNP'
p4631
F0.9524
tp4632
a(S'updates'
p4633
S'NNS'
p4634
F0.8258
tp4635
a(S'anymore'
p4636
S'RB'
p4637
F0.9187
tp4638
a(g66
g66
F0.9923
tp4639
a(S'Every'
p4640
S'DT'
p4641
F0.8983
tp4642
a(S'new'
p4643
S'JJ'
p4644
F0.9902
tp4645
a(S'version'
p4646
S'NN'
p4647
F0.9939
tp4648
a(S'of'
p4649
S'IN'
p4650
F0.9924
tp4651
a(S'iOS'
p4652
S'NNP'
p4653
F0.9238
tp4654
a(S'is'
p4655
S'VBZ'
p4656
F0.9906
tp4657
a(S'worse'
p4658
S'JJ'
p4659
F0.5505
tp4660
a(g66
g66
F0.9934
tp4661
ag175
tp4662
a((lp4663
(S'The'
p4664
S'DT'
p4665
F0.9573
tp4666
a(S'fan'
p4667
S'NN'
p4668
F0.9596
tp4669
a(S'on'
p4670
S'IN'
p4671
F0.9964
tp4672
a(S'my'
p4673
S'PRP$'
p4674
F0.9964
tp4675
a(S'Macbook'
p4676
S'NN'
p4677
F0.8212
tp4678
a(S'is'
p4679
S'VBZ'
p4680
F0.9922
tp4681
a(S'dying'
p4682
S'VBG'
p4683
F0.9722
tp4684
a(g166
S'DT'
p4685
F0.9913
tp4686
a(S'slow'
p4687
S'JJ'
p4688
F0.8796
tp4689
a(g14
g14
F0.9909
tp4690
a(S'loud'
p4691
S'JJ'
p4692
F0.8768
tp4693
a(S'death'
p4694
S'NN'
p4695
F0.9714
tp4696
a(g66
g66
F0.9959
tp4697
a(S'Guess'
p4698
S'VBP'
p4699
F0.7387
tp4700
a(S"I'll"
p4701
S'PRP'
p4702
F0.9592
tp4703
a(S'have'
p4704
S'VB'
p4705
F0.738
tp4706
a(S'to'
p4707
S'TO'
p4708
F0.9976
tp4709
a(S'order'
p4710
S'VB'
p4711
F0.9913
tp4712
a(g166
S'DT'
p4713
F0.9903
tp4714
a(S'new'
p4715
S'JJ'
p4716
F0.9923
tp4717
a(S'one'
p4718
S'CD'
p4719
F0.5365
tp4720
a(S'once'
p4721
S'RB'
p4722
F0.8625
tp4723
a(S"I'm"
p4724
S'PRP'
p4725
F0.6262
tp4726
a(S'in'
p4727
S'IN'
p4728
F0.995
tp4729
a(S'LA'
p4730
S'NNP'
p4731
F0.9985
tp4732
a(S':('
p4733
S'UH'
p4734
F0.9403
tp4735
ag175
tp4736
a((lp4737
(S"It's"
p4738
S'PRP'
p4739
F0.8257
tp4740
a(S'good'
p4741
S'JJ'
p4742
F0.8504
tp4743
a(g66
g66
F0.9897
tp4744
a(S'Been'
p4745
S'VBN'
p4746
F0.6892
tp4747
a(S'running'
p4748
S'VBG'
p4749
F0.8831
tp4750
a(S'it'
p4751
S'PRP'
p4752
F0.9897
tp4753
a(S'on'
p4754
S'IN'
p4755
F0.9859
tp4756
a(g3511
S'CD'
p4757
F0.6679
tp4758
a(g2443
S'UH'
p4759
F0.6301
tp4760
a(S'MBP'
p4761
S'NNP'
p4762
F0.7686
tp4763
a(S'for'
p4764
S'IN'
p4765
F0.985
tp4766
a(S'about'
p4767
S'IN'
p4768
F0.8833
tp4769
a(g3511
S'CD'
p4770
F0.7765
tp4771
a(S'weeks'
p4772
S'NNS'
p4773
F0.9747
tp4774
a(S'now'
p4775
S'RB'
p4776
F0.9487
tp4777
a(S'....'
p4778
g400
F0.9896
tp4779
a(S'no'
p4780
S'DT'
p4781
F0.8097
tp4782
a(S'probs'
p4783
S'RB'
p4784
F0.551
tp4785
a(S'...'
p4786
g400
F0.9936
tp4787
a(S'but'
p4788
S'CC'
p4789
F0.9721
tp4790
a(S'preparation'
p4791
S'NN'
p4792
F0.9893
tp4793
a(S'is'
p4794
S'VBZ'
p4795
F0.9961
tp4796
a(S'the'
p4797
S'DT'
p4798
F0.9939
tp4799
a(S'important'
p4800
S'JJ'
p4801
F0.9532
tp4802
a(S'part'
p4803
S'NN'
p4804
F0.9938
tp4805
a(S'..'
p4806
g400
F0.8775
tp4807
ag62
tp4808
a((lp4809
(S'good'
p4810
S'JJ'
p4811
F0.7479
tp4812
a(S'job'
p4813
S'NN'
p4814
F0.9146
tp4815
a(S'Apple'
p4816
S'NNP'
p4817
F0.919
tp4818
a(g14
g14
F0.9903
tp4819
a(S'you'
p4820
S'PRP'
p4821
F0.9968
tp4822
a(S'finally'
p4823
S'RB'
p4824
F0.9949
tp4825
a(S'came'
p4826
S'VBD'
p4827
F0.7408
tp4828
a(S'up'
p4829
S'RP'
p4830
F0.8783
tp4831
a(S'with'
p4832
S'IN'
p4833
F0.9995
tp4834
a(g166
S'DT'
p4835
F0.9928
tp4836
a(S'useful'
p4837
S'JJ'
p4838
F0.9537
tp4839
a(S'update'
p4840
S'NN'
p4841
F0.9895
tp4842
a(S'????????'
p4843
g66
F0.9782
tp4844
ag62
tp4845
a((lp4846
(S'GOOD'
p4847
S'JJ'
p4848
F0.756
tp4849
a(S'JOB'
p4850
S'NNP'
p4851
F0.5276
tp4852
a(S'APPLE'
p4853
S'NNP'
p4854
F0.9949
tp4855
a(S'THATS'
p4856
S'WDT'
p4857
F0.2714
tp4858
a(S'WHAT'
p4859
S'WP'
p4860
F0.9415
tp4861
a(S'IVE'
p4862
S'PRP'
p4863
F0.9523
tp4864
a(S'BEEN'
p4865
S'VBN'
p4866
F0.8808
tp4867
a(S'WAITING'
p4868
S'VBG'
p4869
F0.9807
tp4870
a(S'FOR'
p4871
S'IN'
p4872
F0.9163
tp4873
a(S'????????'
p4874
g66
F0.9716
tp4875
ag62
tp4876
a((lp4877
(S'Apple'
p4878
S'NNP'
p4879
F0.9625
tp4880
a(S'Music'
p4881
S'NNP'
p4882
F0.6717
tp4883
a(S'sucks'
p4884
S'VBZ'
p4885
F0.9553
tp4886
a(S'to'
p4887
S'TO'
p4888
F0.9912
tp4889
a(S'me'
p4890
S'PRP'
p4891
F0.9845
tp4892
ag175
tp4893
a((lp4894
(S"I've"
p4895
S'PRP'
p4896
F0.9597
tp4897
a(S'been'
p4898
S'VBN'
p4899
F0.7726
tp4900
a(S'updating'
p4901
S'VBG'
p4902
F0.9955
tp4903
a(S'and'
p4904
S'CC'
p4905
F0.9917
tp4906
a(S'upgrading'
p4907
S'VBG'
p4908
F0.9762
tp4909
a(S'my'
p4910
S'PRP$'
p4911
F0.996
tp4912
a(S'entire'
p4913
S'JJ'
p4914
F0.9589
tp4915
a(S'toolkit'
p4916
S'NN'
p4917
F0.9607
tp4918
a(S'for'
p4919
S'IN'
p4920
F0.9987
tp4921
a(S'the'
p4922
S'DT'
p4923
F0.9954
tp4924
a(S'last'
p4925
S'JJ'
p4926
F0.9225
tp4927
a(g4211
S'CD'
p4928
F0.7797
tp4929
a(S'hours'
p4930
S'NNS'
p4931
F0.9821
tp4932
a(g66
g66
F0.995
tp4933
a(S'Apple'
p4934
S'NNP'
p4935
F0.9163
tp4936
a(S'sucks'
p4937
S'VBZ'
p4938
F0.9241
tp4939
a(S'for'
p4940
S'IN'
p4941
F0.9884
tp4942
a(S'not'
p4943
S'RB'
p4944
F0.9854
tp4945
a(S'doing'
p4946
S'VBG'
p4947
F0.9825
tp4948
a(S'this'
p4949
S'DT'
p4950
F0.9848
tp4951
a(g166
S'DT'
p4952
F0.9762
tp4953
a(S'simple'
p4954
S'JJ'
p4955
F0.8327
tp4956
a(S'and'
p4957
S'CC'
p4958
F0.9899
tp4959
a(S'seamless'
p4960
S'JJ'
p4961
F0.9652
tp4962
a(S'process'
p4963
S'NN'
p4964
F0.8535
tp4965
a(g66
g66
F0.9974
tp4966
ag175
tp4967
a((lp4968
(S'This'
p4969
S'DT'
p4970
F0.9951
tp4971
a(S'middle'
p4972
S'NN'
p4973
F0.9685
tp4974
a(S'finger'
p4975
S'NN'
p4976
F0.988
tp4977
a(S'emoji'
p4978
S'NN'
p4979
F0.6079
tp4980
a(S'might'
p4981
S'MD'
p4982
F0.9614
tp4983
a(S'be'
p4984
S'VB'
p4985
F0.9984
tp4986
a(S'the'
p4987
S'DT'
p4988
F0.9917
tp4989
a(S'best'
p4990
S'JJS'
p4991
F0.9641
tp4992
a(S'update'
p4993
S'NN'
p4994
F0.9876
tp4995
a(S'yet'
p4996
S'RB'
p4997
F0.7093
tp4998
a(S'...'
p4999
g400
F0.9951
tp5000
a(S'Good'
p5001
S'JJ'
p5002
F0.8792
tp5003
a(S'job'
p5004
S'NN'
p5005
F0.9507
tp5006
a(S'Apple'
p5007
S'NNP'
p5008
F0.8591
tp5009
a(S'????????????'
p5010
g66
F0.9745
tp5011
ag62
tp5012
a((lp5013
(g137
S'PRP'
p5014
F0.9968
tp5015
a(S"can't"
p5016
S'MD'
p5017
F0.9266
tp5018
a(S'take'
p5019
S'VB'
p5020
F0.9987
tp5021
a(S'my'
p5022
S'PRP$'
p5023
F0.9898
tp5024
a(S'27'
p5025
S'CD'
p5026
F0.9387
tp5027
a(g1542
S"''"
p5028
F0.9846
tp5029
a(S'iMac'
p5030
S'NNP'
p5031
F0.6923
tp5032
a(S'home'
p5033
S'NN'
p5034
F0.7513
tp5035
a(S'either'
p5036
S'RB'
p5037
F0.3663
tp5038
a(g66
g66
F0.9941
tp5039
a(S"That's"
p5040
S'DT'
p5041
F0.5309
tp5042
a(g166
S'DT'
p5043
F0.9863
tp5044
a(S'good'
p5045
S'JJ'
p5046
F0.9901
tp5047
a(S'thing'
p5048
S'NN'
p5049
F0.9885
tp5050
a(g66
g66
F0.9921
tp5051
a(g137
S'PRP'
p5052
F0.9975
tp5053
a(S'have'
p5054
S'VBP'
p5055
F0.9852
tp5056
a(g166
S'DT'
p5057
F0.9917
tp5058
a(S'15'
p5059
S'CD'
p5060
F0.9751
tp5061
a(g1542
S"''"
p5062
F0.9849
tp5063
a(S'MBP'
p5064
S'NNP'
p5065
F0.5956
tp5066
a(S'if'
p5067
S'IN'
p5068
F0.9931
tp5069
a(g137
S'PRP'
p5070
F0.9991
tp5071
a(S'need'
p5072
S'VBP'
p5073
F0.9784
tp5074
a(g166
S'DT'
p5075
F0.9931
tp5076
a(S'mobile'
p5077
S'JJ'
p5078
F0.5082
tp5079
a(S'machine'
p5080
S'NN'
p5081
F0.9975
tp5082
a(g66
g66
F0.9968
tp5083
ag62
tp5084
a((lp5085
(S'Good'
p5086
S'JJ'
p5087
F0.777
tp5088
a(S'job'
p5089
S'NN'
p5090
F0.9364
tp5091
a(S'Apple'
p5092
S'NNP'
p5093
F0.919
tp5094
a(S'for'
p5095
S'IN'
p5096
F0.9722
tp5097
a(S'making'
p5098
S'VBG'
p5099
F0.9758
tp5100
a(S'Mexican'
p5101
S'NNP'
p5102
F0.7186
tp5103
a(S'food'
p5104
S'NN'
p5105
F0.9504
tp5106
a(S'????????'
p5107
g66
F0.9788
tp5108
ag62
tp5109
a((lp5110
(S'Like'
p5111
S'IN'
p5112
F0.6504
tp5113
a(S"there's"
p5114
S'VBZ'
p5115
F0.2104
tp5116
a(g166
S'DT'
p5117
F0.9938
tp5118
a(S'rude'
p5119
S'JJ'
p5120
F0.9904
tp5121
a(S'finger'
p5122
S'NN'
p5123
F0.9777
tp5124
a(S'and'
p5125
S'CC'
p5126
F0.9945
tp5127
a(g166
S'DT'
p5128
F0.9872
tp5129
a(S'unicorn'
p5130
S'NN'
p5131
F0.9429
tp5132
a(S'emoji'
p5133
S'NN'
p5134
F0.881
tp5135
a(g66
g66
F0.9916
tp5136
a(S'My'
p5137
S'PRP$'
p5138
F0.9928
tp5139
a(S'life'
p5140
S'NN'
p5141
F0.9983
tp5142
a(S'is'
p5143
S'VBZ'
p5144
F0.9963
tp5145
a(S'complete'
p5146
S'JJ'
p5147
F0.9527
tp5148
a(g66
g66
F0.9918
tp5149
a(S'Good'
p5150
S'JJ'
p5151
F0.8114
tp5152
a(S'job'
p5153
S'NN'
p5154
F0.9534
tp5155
a(S'Apple'
p5156
S'NNP'
p5157
F0.9057
tp5158
a(g14
g14
F0.9897
tp5159
a(S'good'
p5160
S'JJ'
p5161
F0.924
tp5162
a(S'job'
p5163
S'NN'
p5164
F0.9859
tp5165
a(g66
g66
F0.9958
tp5166
ag62
tp5167
a((lp5168
(S'Not'
p5169
S'RB'
p5170
F0.9839
tp5171
a(S'keen'
p5172
S'JJ'
p5173
F0.8327
tp5174
a(S'for'
p5175
S'IN'
p5176
F0.9924
tp5177
a(S'relying'
p5178
S'VBG'
p5179
F0.9764
tp5180
a(S'on'
p5181
S'IN'
p5182
F0.9846
tp5183
a(S'3G'
p5184
S'NNP'
p5185
F0.4144
tp5186
a(S'connection'
p5187
S'NN'
p5188
F0.9871
tp5189
a(S'to'
p5190
S'TO'
p5191
F0.9957
tp5192
a(S'play'
p5193
S'VB'
p5194
F0.9977
tp5195
a(S'music'
p5196
S'NN'
p5197
F0.9963
tp5198
a(g14
g14
F0.9882
tp5199
a(S'soz'
p5200
S'UH'
p5201
F0.6349
tp5202
a(S'apple'
p5203
S'UH'
p5204
F0.4781
tp5205
a(g14
g14
F0.9877
tp5206
a(S'most'
p5207
S'JJS'
p5208
F0.8529
tp5209
a(S'of'
p5210
S'IN'
p5211
F0.9951
tp5212
a(S'the'
p5213
S'DT'
p5214
F0.9947
tp5215
a(S'other'
p5216
S'JJ'
p5217
F0.8667
tp5218
a(S'stuff'
p5219
S'NN'
p5220
F0.9573
tp5221
a(S"you've"
p5222
S'PRP'
p5223
F0.952
tp5224
a(S'done'
p5225
S'VBN'
p5226
F0.7754
tp5227
a(S'is'
p5228
S'VBZ'
p5229
F0.985
tp5230
a(S'awesome'
p5231
S'JJ'
p5232
F0.9819
tp5233
a(S'but'
p5234
S'CC'
p5235
F0.9579
tp5236
a(S'this'
p5237
S'DT'
p5238
F0.9717
tp5239
a(S'sucks'
p5240
S'VBZ'
p5241
F0.9321
tp5242
ag175
tp5243
a((lp5244
(S'The'
p5245
S'DT'
p5246
F0.9263
tp5247
a(S'internal'
p5248
S'JJ'
p5249
F0.9033
tp5250
a(S'speakers'
p5251
S'NNS'
p5252
F0.9945
tp5253
a(S'of'
p5254
S'IN'
p5255
F0.9965
tp5256
a(S'the'
p5257
S'DT'
p5258
F0.9946
tp5259
a(S'new'
p5260
S'JJ'
p5261
F0.9577
tp5262
a(S'MacBook'
p5263
S'NN'
p5264
F0.5904
tp5265
a(S'Air'
p5266
S'NN'
p5267
F0.8328
tp5268
a(S'are'
p5269
S'VBP'
p5270
F0.9405
tp5271
a(S'actually'
p5272
S'RB'
p5273
F0.9978
tp5274
a(S'pretty'
p5275
S'RB'
p5276
F0.7538
tp5277
a(S'shit'
p5278
S'NN'
p5279
F0.8601
tp5280
a(g66
g66
F0.9936
tp5281
a(S'Loud'
p5282
S'JJ'
p5283
F0.8052
tp5284
a(S'music'
p5285
S'NN'
p5286
F0.9933
tp5287
a(S'sounds'
p5288
S'VBZ'
p5289
F0.7705
tp5290
a(S'worse'
p5291
S'JJ'
p5292
F0.5425
tp5293
a(S'and'
p5294
S'CC'
p5295
F0.9918
tp5296
a(S'rattlier'
p5297
S'VB'
p5298
F0.2153
tp5299
a(S'than'
p5300
S'IN'
p5301
F0.96
tp5302
a(S'out'
p5303
S'IN'
p5304
F0.6877
tp5305
a(S'of'
p5306
S'IN'
p5307
F0.989
tp5308
a(S'my'
p5309
S'PRP$'
p5310
F0.9768
tp5311
a(S'old'
p5312
S'JJ'
p5313
F0.857
tp5314
a(S'92'
p5315
S'CD'
p5316
F0.8885
tp5317
a(S'Escort'
p5318
S'NN'
p5319
F0.4687
tp5320
a(g66
g66
F0.9957
tp5321
ag175
tp5322
a((lp5323
(g137
S'PRP'
p5324
F0.9957
tp5325
a(S'used'
p5326
S'VBD'
p5327
F0.9932
tp5328
a(g166
S'DT'
p5329
F0.9931
tp5330
a(S'13'
p5331
S'CD'
p5332
F0.9566
tp5333
a(g1542
S"''"
p5334
F0.9838
tp5335
a(S'mbp'
p5336
S'NN'
p5337
F0.7471
tp5338
a(S'for'
p5339
S'IN'
p5340
F0.995
tp5341
a(g4211
S'CD'
p5342
F0.9032
tp5343
a(S'or'
p5344
S'CC'
p5345
F0.9483
tp5346
a(g4215
S'CD'
p5347
F0.9983
tp5348
a(S'years'
p5349
S'NNS'
p5350
F0.9909
tp5351
a(S'and'
p5352
S'CC'
p5353
F0.9893
tp5354
a(S'it'
p5355
S'PRP'
p5356
F0.9977
tp5357
a(S'was'
p5358
S'VBD'
p5359
F0.9756
tp5360
a(S'as'
p5361
S'IN'
p5362
F0.5195
tp5363
a(S'good'
p5364
S'JJ'
p5365
F0.8984
tp5366
a(S'as'
p5367
S'IN'
p5368
F0.974
tp5369
a(S'the'
p5370
S'DT'
p5371
F0.998
tp5372
a(S'day'
p5373
S'NN'
p5374
F0.9951
tp5375
a(g137
S'PRP'
p5376
F0.9971
tp5377
a(S'got'
p5378
S'VBD'
p5379
F0.9846
tp5380
a(S'it'
p5381
S'PRP'
p5382
F0.9961
tp5383
ag62
tp5384
a((lp5385
(S'cope'
p5386
S'VB'
p5387
F0.6634
tp5388
a(g1820
g400
F0.2319
tp5389
a(S'Apple'
p5390
S'NNP'
p5391
F0.9786
tp5392
a(S'sucks'
p5393
S'VBZ'
p5394
F0.9577
tp5395
a(S'cock'
p5396
S'NN'
p5397
F0.9928
tp5398
a(g14
g14
F0.9909
tp5399
a(S'like'
p5400
S'IN'
p5401
F0.611
tp5402
a(S'you'
p5403
S'PRP'
p5404
F0.9782
tp5405
a(S'cod'
p5406
S'NN'
p5407
F0.7022
tp5408
ag175
tp5409
a((lp5410
(S'Stupid'
p5411
S'JJ'
p5412
F0.7937
tp5413
a(S'Apple'
p5414
S'NNP'
p5415
F0.9253
tp5416
a(g287
g66
F0.9844
tp5417
a(S'Since'
p5418
S'IN'
p5419
F0.7572
tp5420
a(S'updating'
p5421
S'VBG'
p5422
F0.9967
tp5423
a(S'to'
p5424
S'TO'
p5425
F0.9908
tp5426
a(S'the'
p5427
S'DT'
p5428
F0.994
tp5429
a(S'new'
p5430
S'JJ'
p5431
F0.9576
tp5432
a(S'iOS'
p5433
S'NNS'
p5434
F0.6113
tp5435
a(S'my'
p5436
S'PRP$'
p5437
F0.9942
tp5438
a(S'battery'
p5439
S'NN'
p5440
F0.9961
tp5441
a(S'is'
p5442
S'VBZ'
p5443
F0.9939
tp5444
a(S'even'
p5445
S'RB'
p5446
F0.9958
tp5447
a(S'worse'
p5448
S'JJR'
p5449
F0.4608
tp5450
a(g287
g66
F0.9836
tp5451
a(S'#apple'
p5452
S'HT'
p5453
F0.902
tp5454
a(S'#iOS9'
p5455
S'HT'
p5456
F0.923
tp5457
a(S'#batterylifesucks'
p5458
S'HT'
p5459
F0.9782
tp5460
ag175
tp5461
a((lp5462
(S'So'
p5463
S'UH'
p5464
F0.3915
tp5465
a(S'apple'
p5466
S'NNP'
p5467
F0.4662
tp5468
a(S'already'
p5469
S'RB'
p5470
F0.9963
tp5471
a(S'talking'
p5472
S'VBG'
p5473
F0.9854
tp5474
a(S'about'
p5475
S'IN'
p5476
F0.9833
tp5477
a(S'iPhone'
p5478
S'NNP'
p5479
F0.8734
tp5480
a(S'7'
p5481
S'CD'
p5482
F0.9596
tp5483
a(S'..'
p5484
g400
F0.9549
tp5485
a(S'sucks'
p5486
S'VBZ'
p5487
F0.7283
tp5488
a(S'for'
p5489
S'IN'
p5490
F0.9969
tp5491
a(S'those'
p5492
S'DT'
p5493
F0.9826
tp5494
a(S'who'
p5495
S'WP'
p5496
F0.9478
tp5497
a(S'just'
p5498
S'RB'
p5499
F0.9986
tp5500
a(S'upgrade'
p5501
S'VB'
p5502
F0.5077
tp5503
a(S'to'
p5504
S'TO'
p5505
F0.9923
tp5506
a(S'iPhone'
p5507
S'NNP'
p5508
F0.8824
tp5509
a(S'6s'
p5510
S'CD'
p5511
F0.5553
tp5512
a(g66
g66
F0.9878
tp5513
a(S'..'
p5514
g400
F0.8906
tp5515
a(S'crazy'
p5516
S'JJ'
p5517
F0.965
tp5518
a(S'how'
p5519
S'WRB'
p5520
F0.9448
tp5521
a(S'tech'
p5522
S'JJ'
p5523
F0.5857
tp5524
a(S'companies'
p5525
S'NNS'
p5526
F0.9949
tp5527
a(S'extort'
p5528
S'VBP'
p5529
F0.5992
tp5530
a(S'customers'
p5531
S'NNS'
p5532
F0.9808
tp5533
ag175
tp5534
a((lp5535
(S'can'
p5536
S'MD'
p5537
F0.9271
tp5538
a(S'you'
p5539
S'PRP'
p5540
F0.9591
tp5541
a(S'folks'
p5542
S'NNS'
p5543
F0.9929
tp5544
a(S'buy'
p5545
S'VB'
p5546
F0.53
tp5547
a(S'Indian'
p5548
S'NNP'
p5549
F0.7914
tp5550
a(S'music'
p5551
S'NN'
p5552
F0.9464
tp5553
a(S'streaming'
p5554
S'NN'
p5555
F0.7561
tp5556
a(S'outlet'
p5557
S'NN'
p5558
F0.9973
tp5559
a(g14
g14
F0.9916
tp5560
a(S'saavn'
p5561
S'NNP'
p5562
F0.235
tp5563
a(S'or'
p5564
S'CC'
p5565
F0.9786
tp5566
a(S'gaana'
p5567
S'VBG'
p5568
F0.6349
tp5569
a(g1274
g66
F0.9839
tp5570
a(S'Indian'
p5571
S'NNP'
p5572
F0.5591
tp5573
a(S'music'
p5574
S'NN'
p5575
F0.9497
tp5576
a(S'repertoire'
p5577
S'NN'
p5578
F0.9662
tp5579
a(S'sucks'
p5580
S'VBZ'
p5581
F0.9509
tp5582
a(S'on'
p5583
S'IN'
p5584
F0.9949
tp5585
a(S'Apple'
p5586
S'NNP'
p5587
F0.9985
tp5588
a(S'Music'
p5589
S'NNP'
p5590
F0.5935
tp5591
a(S'!!'
p5592
g66
F0.9912
tp5593
ag175
tp5594
a((lp5595
(S'Honestly'
p5596
S'RB'
p5597
F0.8869
tp5598
a(S'Apple'
p5599
S'NNP'
p5600
F0.9743
tp5601
a(S'needs'
p5602
S'VBZ'
p5603
F0.9687
tp5604
a(S'to'
p5605
S'TO'
p5606
F0.998
tp5607
a(S'figure'
p5608
S'VB'
p5609
F0.9936
tp5610
a(S'it'
p5611
S'PRP'
p5612
F0.9909
tp5613
a(S'the'
p5614
S'DT'
p5615
F0.9777
tp5616
a(S'fuck'
p5617
S'NN'
p5618
F0.6275
tp5619
a(S'out'
p5620
S'RP'
p5621
F0.6161
tp5622
a(S'the'
p5623
S'DT'
p5624
F0.9925
tp5625
a(S'new'
p5626
S'JJ'
p5627
F0.9293
tp5628
a(S'update'
p5629
S'NN'
p5630
F0.9933
tp5631
a(S'should'
p5632
S'MD'
p5633
F0.9682
tp5634
a(S'make'
p5635
S'VB'
p5636
F0.9984
tp5637
a(S'your'
p5638
S'PRP$'
p5639
F0.9763
tp5640
a(S'phone'
p5641
S'NN'
p5642
F0.9961
tp5643
a(S'better'
p5644
S'JJR'
p5645
F0.4904
tp5646
a(S'not'
p5647
S'RB'
p5648
F0.9969
tp5649
a(S'worse'
p5650
S'JJ'
p5651
F0.6806
tp5652
a(S'????????????'
p5653
g66
F0.9642
tp5654
ag175
tp5655
a((lp5656
(S'????????????????????????????????????????'
p5657
S'NNP'
p5658
F0.1885
tp5659
a(S'finally'
p5660
S'RB'
p5661
F0.9785
tp5662
a(g287
g66
F0.9857
tp5663
a(S'Good'
p5664
S'JJ'
p5665
F0.8376
tp5666
a(S'job'
p5667
S'NN'
p5668
F0.9534
tp5669
a(S'Apple'
p5670
S'NNP'
p5671
F0.8353
tp5672
a(g287
g66
F0.9898
tp5673
a(S'????????'
p5674
g66
F0.9215
tp5675
ag62
tp5676
a((lp5677
(S'hope'
p5678
S'VBP'
p5679
F0.9519
tp5680
a(S"it's"
p5681
S'PRP'
p5682
F0.8175
tp5683
a(S'better'
p5684
S'JJR'
p5685
F0.7097
tp5686
a(S'than'
p5687
S'IN'
p5688
F0.9916
tp5689
a(S'the'
p5690
S'DT'
p5691
F0.9877
tp5692
a(S'bloated'
p5693
S'JJ'
p5694
F0.8963
tp5695
a(S'mess'
p5696
S'NN'
p5697
F0.707
tp5698
a(S'that'
p5699
S'IN'
p5700
F0.3522
tp5701
a(S'is'
p5702
S'VBZ'
p5703
F0.9971
tp5704
a(S'iTunes'
p5705
S'NNP'
p5706
F0.8842
tp5707
a(S'on'
p5708
S'IN'
p5709
F0.9891
tp5710
a(S'Windows'
p5711
S'NNP'
p5712
F0.9202
tp5713
a(g66
g66
F0.9944
tp5714
a(S"Apple's"
p5715
S'NNP'
p5716
F0.4778
tp5717
a(S'software'
p5718
S'NN'
p5719
F0.9479
tp5720
a(S'sucks'
p5721
S'VBZ'
p5722
F0.9629
tp5723
a(S'on'
p5724
S'IN'
p5725
F0.9869
tp5726
a(S'platforms'
p5727
S'NNS'
p5728
F0.8651
tp5729
a(S'they'
p5730
S'PRP'
p5731
F0.971
tp5732
a(S"don't"
p5733
S'VBP'
p5734
F0.8958
tp5735
a(S'control'
p5736
S'VB'
p5737
F0.5207
tp5738
ag175
tp5739
a((lp5740
(S'Was'
p5741
S'VBD'
p5742
F0.9407
tp5743
a(S'also'
p5744
S'RB'
p5745
F0.997
tp5746
a(S'cool'
p5747
S'JJ'
p5748
F0.9675
tp5749
a(S'to'
p5750
S'TO'
p5751
F0.9956
tp5752
a(S'see'
p5753
S'VB'
p5754
F0.9992
tp5755
a(S'my'
p5756
S'PRP$'
p5757
F0.9718
tp5758
a(S'refurb'
p5759
S'NN'
p5760
F0.9321
tp5761
a(S'MBP'
p5762
S'NN'
p5763
F0.5489
tp5764
a(S'register'
p5765
S'NN'
p5766
F0.6244
tp5767
a(S'as'
p5768
S'IN'
p5769
F0.8363
tp5770
a(S'having'
p5771
S'VBG'
p5772
F0.9831
tp5773
a(S'AppleCare'
p5774
S'NNP'
p5775
F0.5709
tp5776
a(S'shortly'
p5777
S'RB'
p5778
F0.9584
tp5779
a(S'after'
p5780
S'IN'
p5781
F0.9882
tp5782
a(g137
S'PRP'
p5783
F0.9909
tp5784
a(S'activated'
p5785
S'VBD'
p5786
F0.9512
tp5787
a(S'it'
p5788
S'PRP'
p5789
F0.9922
tp5790
a(g66
g66
F0.9908
tp5791
a(S'Always'
p5792
S'RB'
p5793
F0.9969
tp5794
a(S'good'
p5795
S'JJ'
p5796
F0.9615
tp5797
a(S'for'
p5798
S'IN'
p5799
F0.9951
tp5800
a(S'portables'
p5801
S'NNS'
p5802
F0.9701
tp5803
a(S'IMHO'
p5804
S'UH'
p5805
F0.2507
tp5806
a(g66
g66
F0.9651
tp5807
ag62
tp5808
a((lp5809
(S'the'
p5810
S'DT'
p5811
F0.978
tp5812
a(S'mbp'
p5813
S'NN'
p5814
F0.9059
tp5815
a(S'is'
p5816
S'VBZ'
p5817
F0.9927
tp5818
a(S'good'
p5819
S'JJ'
p5820
F0.8798
tp5821
a(g14
g14
F0.9903
tp5822
a(S'runs'
p5823
S'VBZ'
p5824
F0.6506
tp5825
a(S'win'
p5826
S'VB'
p5827
F0.7283
tp5828
a(S'8'
p5829
S'CD'
p5830
F0.9537
tp5831
a(S'but'
p5832
S'CC'
p5833
F0.9776
tp5834
a(S'wont'
p5835
S'MD'
p5836
F0.3076
tp5837
a(S'upg'
p5838
S'VB'
p5839
F0.2388
tp5840
a(S'to'
p5841
S'TO'
p5842
F0.9971
tp5843
a(S'win'
p5844
S'VB'
p5845
F0.9966
tp5846
a(S'10'
p5847
S'CD'
p5848
F0.9939
tp5849
a(g14
g14
F0.9917
tp5850
a(S'no'
p5851
S'DT'
p5852
F0.8825
tp5853
a(S'boot'
p5854
S'NN'
p5855
F0.997
tp5856
a(S'camp'
p5857
S'NN'
p5858
F0.9713
tp5859
a(S'support'
p5860
S'NN'
p5861
F0.9483
tp5862
a(g66
g66
F0.9939
tp5863
a(S'Good'
p5864
S'JJ'
p5865
F0.8391
tp5866
a(S'kit'
p5867
S'NN'
p5868
F0.9706
tp5869
a(g14
g14
F0.9912
tp5870
a(S'bad'
p5871
S'JJ'
p5872
F0.9578
tp5873
a(S'sw'
p5874
S'NNP'
p5875
F0.2987
tp5876
a(S'upg'
p5877
S'NNP'
p5878
F0.719
tp5879
a(S'path'
p5880
S'NN'
p5881
F0.9282
tp5882
a(S'for'
p5883
S'IN'
p5884
F0.9964
tp5885
a(S'3k'
p5886
S'CD'
p5887
F0.882
tp5888
a(S'of'
p5889
S'IN'
p5890
F0.9748
tp5891
a(S'kit'
p5892
S'NN'
p5893
F0.8333
tp5894
ag62
tp5895
a((lp5896
(g137
S'PRP'
p5897
F0.9957
tp5898
a(S'added'
p5899
S'VBD'
p5900
F0.8722
tp5901
a(g166
S'DT'
p5902
F0.9945
tp5903
a(S'video'
p5904
S'NN'
p5905
F0.9945
tp5906
a(S'to'
p5907
S'TO'
p5908
F0.9924
tp5909
a(g166
S'DT'
p5910
F0.9931
tp5911
a(S'playlist'
p5912
S'NN'
p5913
F0.9145
tp5914
a(S'APPLE'
p5915
S'NNP'
p5916
F0.6984
tp5917
a(S'WATCH'
p5918
S'VBP'
p5919
F0.323
tp5920
a(S'SUCKS'
p5921
S'VBZ'
p5922
F0.8069
tp5923
ag175
tp5924
a((lp5925
(S'Samsung'
p5926
S'NNP'
p5927
F0.9371
tp5928
a(S'keyboards'
p5929
S'NNS'
p5930
F0.9388
tp5931
a(S'are'
p5932
S'VBP'
p5933
F0.9498
tp5934
a(S'absolute'
p5935
S'JJ'
p5936
F0.9873
tp5937
a(S'shit'
p5938
S'NN'
p5939
F0.9874
tp5940
a(S'yet'
p5941
S'RB'
p5942
F0.6541
tp5943
a(S"apple's"
p5944
S'NNP'
p5945
F0.6418
tp5946
a(S'tend'
p5947
S'VBD'
p5948
F0.5378
tp5949
a(S'to'
p5950
S'TO'
p5951
F0.9973
tp5952
a(S'be'
p5953
S'VB'
p5954
F0.9993
tp5955
a(S'worse'
p5956
S'JJR'
p5957
F0.4935
tp5958
ag175
tp5959
a((lp5960
(S'The'
p5961
S'DT'
p5962
F0.8416
tp5963
a(S'New'
p5964
S'NNP'
p5965
F0.5518
tp5966
a(S'MacBook'
p5967
S'NNP'
p5968
F0.7805
tp5969
a(S'is'
p5970
S'VBZ'
p5971
F0.9943
tp5972
a(S'the'
p5973
S'DT'
p5974
F0.9941
tp5975
a(S'thinnest'
p5976
S'JJS'
p5977
F0.733
tp5978
a(g14
g14
F0.9916
tp5979
a(S'lightest'
p5980
S'JJS'
p5981
F0.784
tp5982
a(S'thing'
p5983
S'NN'
p5984
F0.9882
tp5985
a(S'ever'
p5986
S'RB'
p5987
F0.9847
tp5988
a(g14
g14
F0.9922
tp5989
a(S'and'
p5990
S'CC'
p5991
F0.9987
tp5992
a(S"it's"
p5993
S'PRP'
p5994
F0.8068
tp5995
a(S'LOUD'
p5996
S'JJ'
p5997
F0.563
tp5998
a(g14
g14
F0.9901
tp5999
a(S'but'
p6000
S'CC'
p6001
F0.996
tp6002
a(S'the'
p6003
S'DT'
p6004
F0.9955
tp6005
a(S'processor'
p6006
S'NN'
p6007
F0.9875
tp6008
a(S'is'
p6009
S'VBZ'
p6010
F0.9958
tp6011
a(S'weak'
p6012
S'JJ'
p6013
F0.9041
tp6014
a(S'and'
p6015
S'CC'
p6016
F0.9928
tp6017
a(S'the'
p6018
S'DT'
p6019
F0.9933
tp6020
a(S'keyboard'
p6021
S'NN'
p6022
F0.9922
tp6023
a(S'is'
p6024
S'VBZ'
p6025
F0.9942
tp6026
a(S'GARBAGE'
p6027
S'NNP'
p6028
F0.6757
tp6029
ag175
tp6030
a((lp6031
(S'Anyone'
p6032
S'NN'
p6033
F0.8533
tp6034
a(S'else'
p6035
S'RB'
p6036
F0.9172
tp6037
a(S'think'
p6038
S'VBP'
p6039
F0.7147
tp6040
a(S'the'
p6041
S'DT'
p6042
F0.9944
tp6043
a(S'new'
p6044
S'JJ'
p6045
F0.9805
tp6046
a(S'MacBooks'
p6047
S'NNS'
p6048
F0.7806
tp6049
a(S'keyboard'
p6050
S'NN'
p6051
F0.9698
tp6052
a(S'is'
p6053
S'VBZ'
p6054
F0.994
tp6055
a(S'loud'
p6056
S'JJ'
p6057
F0.8777
tp6058
a(g1274
g66
F0.9843
tp6059
a(S'The'
p6060
S'DT'
p6061
F0.9677
tp6062
a(S'travel'
p6063
S'NN'
p6064
F0.9862
tp6065
a(S'doesnt'
p6066
S'NN'
p6067
F0.1786
tp6068
a(S'bother'
p6069
S'VB'
p6070
F0.8407
tp6071
a(S'me'
p6072
S'PRP'
p6073
F0.9962
tp6074
a(S'as'
p6075
S'RB'
p6076
F0.5821
tp6077
a(S'much'
p6078
S'RB'
p6079
F0.9656
tp6080
a(S'as'
p6081
S'IN'
p6082
F0.9617
tp6083
a(S'the'
p6084
S'DT'
p6085
F0.9952
tp6086
a(S'noticeable'
p6087
S'JJ'
p6088
F0.8959
tp6089
a(S'clacking'
p6090
S'NN'
p6091
F0.8786
tp6092
a(S'despite'
p6093
S'IN'
p6094
F0.9576
tp6095
a(S'store'
p6096
S'NN'
p6097
F0.8738
tp6098
a(S'noise'
p6099
S'NN'
p6100
F0.9682
tp6101
a(g66
g66
F0.9972
tp6102
ag175
tp6103
a((lp6104
(S'RT'
p6105
S'RT'
p6106
F0.9653
tp6107
a(S'Bro'
p6108
S'UH'
p6109
F0.4416
tp6110
a(S'the'
p6111
S'DT'
p6112
F0.9937
tp6113
a(S'6s'
p6114
S'NNS'
p6115
F0.8793
tp6116
a(S'and'
p6117
S'CC'
p6118
F0.9868
tp6119
a(S'6s'
p6120
S'CD'
p6121
F0.6505
tp6122
a(S'plus'
p6123
S'IN'
p6124
F0.2685
tp6125
a(S'are'
p6126
S'VBP'
p6127
F0.959
tp6128
a(S'practically'
p6129
S'RB'
p6130
F0.979
tp6131
a(S'waterproof'
p6132
S'NN'
p6133
F0.5335
tp6134
a(S'and'
p6135
S'CC'
p6136
F0.9918
tp6137
a(S'drop'
p6138
S'VB'
p6139
F0.8186
tp6140
a(S'proof'
p6141
S'NN'
p6142
F0.9163
tp6143
a(g287
g66
F0.9923
tp6144
a(S'Good'
p6145
S'JJ'
p6146
F0.8509
tp6147
a(S'job'
p6148
S'NN'
p6149
F0.96
tp6150
a(S'Apple'
p6151
S'NNP'
p6152
F0.8396
tp6153
a(g287
g66
F0.9949
tp6154
ag62
tp6155
a((lp6156
(g137
S'PRP'
p6157
F0.9965
tp6158
a(S'love'
p6159
S'VBP'
p6160
F0.9949
tp6161
a(S'jammin'
p6162
S'VBG'
p6163
F0.8482
tp6164
a(S'out'
p6165
S'RP'
p6166
F0.8947
tp6167
a(S'with'
p6168
S'IN'
p6169
F0.9993
tp6170
a(S'the'
p6171
S'DT'
p6172
F0.9963
tp6173
a(S'music'
p6174
S'NN'
p6175
F0.9878
tp6176
a(S'loud'
p6177
S'JJ'
p6178
F0.5098
tp6179
a(S'as'
p6180
S'IN'
p6181
F0.8935
tp6182
a(S'fuck'
p6183
S'VB'
p6184
F0.6302
tp6185
a(S'with'
p6186
S'IN'
p6187
F0.9965
tp6188
a(S'my'
p6189
S'PRP$'
p6190
F0.9881
tp6191
a(S'new'
p6192
S'JJ'
p6193
F0.9845
tp6194
a(S'macbook'
p6195
S'NN'
p6196
F0.9591
tp6197
a(S'pro'
p6198
S'NN'
p6199
F0.7754
tp6200
a(S'and'
p6201
S'CC'
p6202
F0.996
tp6203
a(S'all'
p6204
S'DT'
p6205
F0.9584
tp6206
a(S'my'
p6207
S'PRP$'
p6208
F0.9914
tp6209
a(S'new'
p6210
S'JJ'
p6211
F0.987
tp6212
a(S'music'
p6213
S'NN'
p6214
F0.9884
tp6215
a(S'!!'
p6216
g66
F0.9845
tp6217
a(S'Makes'
p6218
S'VBZ'
p6219
F0.8563
tp6220
a(S'my'
p6221
S'PRP$'
p6222
F0.9898
tp6223
a(S'day'
p6224
S'NN'
p6225
F0.9965
tp6226
a(S'go'
p6227
S'VB'
p6228
F0.5364
tp6229
a(S'by'
p6230
S'IN'
p6231
F0.88
tp6232
a(S'so'
p6233
S'RB'
p6234
F0.9587
tp6235
a(S'much'
p6236
S'RB'
p6237
F0.8691
tp6238
a(S'better'
p6239
S'JJR'
p6240
F0.7584
tp6241
ag62
tp6242
a((lp6243
(S'SO'
p6244
S'RB'
p6245
F0.3859
tp6246
a(S'MANY'
p6247
S'JJ'
p6248
F0.5295
tp6249
a(S'GOOD'
p6250
S'JJ'
p6251
F0.9208
tp6252
a(S'NEW'
p6253
S'JJ'
p6254
F0.9708
tp6255
a(S'EMOJIS'
p6256
S'NNS'
p6257
F0.8688
tp6258
a(S'GOOD'
p6259
S'JJ'
p6260
F0.9293
tp6261
a(S'JOB'
p6262
S'NN'
p6263
F0.5489
tp6264
a(S'APPLE'
p6265
S'NNP'
p6266
F0.764
tp6267
a(S'????????????????????????????????????????????????????????'
p6268
g66
F0.2821
tp6269
ag62
tp6270
a((lp6271
(S'RT'
p6272
S'RT'
p6273
F0.9709
tp6274
a(S'How'
p6275
S'WRB'
p6276
F0.9672
tp6277
a(S'good'
p6278
S'JJ'
p6279
F0.9415
tp6280
a(S'is'
p6281
S'VBZ'
p6282
F0.9864
tp6283
a(S'3D'
p6284
S'NNP'
p6285
F0.3898
tp6286
a(S'Touch'
p6287
S'NNP'
p6288
F0.7822
tp6289
a(S'on'
p6290
S'IN'
p6291
F0.9927
tp6292
a(S'the'
p6293
S'DT'
p6294
F0.9932
tp6295
a(S'new'
p6296
S'JJ'
p6297
F0.9576
tp6298
a(S'iPhone'
p6299
S'NN'
p6300
F0.7981
tp6301
a(g1274
g66
F0.9915
tp6302
a(g137
S'PRP'
p6303
F0.995
tp6304
a(S'now'
p6305
S'RB'
p6306
F0.9905
tp6307
a(S'try'
p6308
S'VB'
p6309
F0.7668
tp6310
a(S'to'
p6311
S'TO'
p6312
F0.9925
tp6313
a(S'3D'
p6314
S'VB'
p6315
F0.3064
tp6316
a(S'touch'
p6317
S'NN'
p6318
F0.8835
tp6319
a(S'also'
p6320
S'RB'
p6321
F0.9985
tp6322
a(S'on'
p6323
S'IN'
p6324
F0.986
tp6325
a(S'my'
p6326
S'PRP$'
p6327
F0.9963
tp6328
a(S'iPad'
p6329
S'NNP'
p6330
F0.5804
tp6331
a(g66
g66
F0.9952
tp6332
a(S'Yes'
p6333
S'UH'
p6334
F0.9533
tp6335
a(g14
g14
F0.9835
tp6336
a(S"it's"
p6337
S'PRP'
p6338
F0.8237
tp6339
a(S'that'
p6340
S'DT'
p6341
F0.7394
tp6342
a(S'good'
p6343
S'JJ'
p6344
F0.8935
tp6345
a(g14
g14
F0.9902
tp6346
a(S'great'
p6347
S'JJ'
p6348
F0.9862
tp6349
a(S'job'
p6350
S'NN'
p6351
F0.9554
tp6352
a(S'Apple'
p6353
S'NNP'
p6354
F0.8399
tp6355
a(g287
g66
F0.9958
tp6356
ag62
tp6357
a((lp6358
(S'for'
p6359
S'IN'
p6360
F0.9747
tp6361
a(S'mac'
p6362
S'NNP'
p6363
F0.9275
tp6364
a(S'user'
p6365
S'NN'
p6366
F0.6075
tp6367
a(S'please'
p6368
S'UH'
p6369
F0.9126
tp6370
a(S'dont'
p6371
S'VB'
p6372
F0.6535
tp6373
a(S'upgrade'
p6374
S'VB'
p6375
F0.9097
tp6376
a(S'to'
p6377
S'TO'
p6378
F0.9923
tp6379
a(S'OS'
p6380
S'NNP'
p6381
F0.8646
tp6382
a(g2128
S'UH'
p6383
F0.7446
tp6384
a(S'EL'
p6385
S'NNP'
p6386
F0.8557
tp6387
a(S'Capitan'
p6388
S'NNP'
p6389
F0.9979
tp6390
a(g287
g66
F0.9878
tp6391
a(S'worse'
p6392
S'JJR'
p6393
F0.4569
tp6394
a(S'update'
p6395
S'NN'
p6396
F0.9728
tp6397
a(S'from'
p6398
S'IN'
p6399
F0.9964
tp6400
a(S'apple'
p6401
S'NNP'
p6402
F0.4957
tp6403
a(g66
g66
F0.9942
tp6404
a(S'the'
p6405
S'DT'
p6406
F0.994
tp6407
a(S'new'
p6408
S'JJ'
p6409
F0.9732
tp6410
a(S'os'
p6411
S'NN'
p6412
F0.63
tp6413
a(S'still'
p6414
S'RB'
p6415
F0.9733
tp6416
a(S'not'
p6417
S'RB'
p6418
F0.9963
tp6419
a(S'stable'
p6420
S'JJ'
p6421
F0.9697
tp6422
a(S'????'
p6423
g66
F0.9671
tp6424
ag175
tp6425
a((lp6426
(S'apple'
p6427
S'NNP'
p6428
F0.8145
tp6429
a(S'turn'
p6430
S'VBP'
p6431
F0.5447
tp6432
a(S'overs'
p6433
S'NNS'
p6434
F0.9522
tp6435
a(S'were'
p6436
S'VBD'
p6437
F0.9186
tp6438
a(g166
S'DT'
p6439
F0.9976
tp6440
a(S'success'
p6441
S'NN'
p6442
F0.9388
tp6443
a(S'good'
p6444
S'JJ'
p6445
F0.9349
tp6446
a(S'job'
p6447
S'NN'
p6448
F0.9771
tp6449
a(S'donna'
p6450
S'NNP'
p6451
F0.4392
tp6452
a(S'!!!'
p6453
g66
F0.9954
tp6454
ag62
tp6455
a((lp6456
(S'Apple'
p6457
S'NNP'
p6458
F0.9625
tp6459
a(S'Music'
p6460
S'NN'
p6461
F0.5627
tp6462
a(S'is'
p6463
S'VBZ'
p6464
F0.9891
tp6465
a(S'so'
p6466
S'RB'
p6467
F0.9853
tp6468
a(S'much'
p6469
S'RB'
p6470
F0.8692
tp6471
a(S'better'
p6472
S'JJR'
p6473
F0.7648
tp6474
a(S'than'
p6475
S'IN'
p6476
F0.9889
tp6477
a(S'Spotify'
p6478
S'NNP'
p6479
F0.9918
tp6480
a(g66
g66
F0.9936
tp6481
a(S'Good'
p6482
S'JJ'
p6483
F0.8114
tp6484
a(S'job'
p6485
S'NN'
p6486
F0.991
tp6487
a(S'Jobs'
p6488
S'NNS'
p6489
F0.8614
tp6490
a(g66
g66
F0.9956
tp6491
a(S'#rip'
p6492
S'HT'
p6493
F0.9781
tp6494
ag62
tp6495
a((lp6496
(S'So'
p6497
S'RB'
p6498
F0.8246
tp6499
a(S'far'
p6500
S'RB'
p6501
F0.9344
tp6502
a(S'so'
p6503
S'RB'
p6504
F0.9459
tp6505
a(S'good'
p6506
S'JJ'
p6507
F0.9617
tp6508
a(g14
g14
F0.985
tp6509
a(S'El'
p6510
S'NNP'
p6511
F0.99
tp6512
a(S'Capitan'
p6513
S'NNP'
p6514
F0.9988
tp6515
a(g66
g66
F0.9923
tp6516
a(S'Still'
p6517
S'RB'
p6518
F0.9907
tp6519
a(S'working'
p6520
S'VBG'
p6521
F0.9299
tp6522
a(S'fine'
p6523
S'JJ'
p6524
F0.7338
tp6525
a(S'with'
p6526
S'IN'
p6527
F0.999
tp6528
a(S'my'
p6529
S'PRP$'
p6530
F0.9881
tp6531
a(S'ppc'
p6532
S'NN'
p6533
F0.7948
tp6534
a(S'mbp'
p6535
S'NN'
p6536
F0.8932
tp6537
a(g66
g66
F0.9949
tp6538
ag62
tp6539
a((lp6540
(g137
S'PRP'
p6541
F0.992
tp6542
a(S'just'
p6543
S'RB'
p6544
F0.9967
tp6545
a(S'watched'
p6546
S'VBD'
p6547
F0.8498
tp6548
a(S'Turbo'
p6549
S'NNP'
p6550
F0.9709
tp6551
a(S'Kid'
p6552
S'NNP'
p6553
F0.9463
tp6554
a(S'today'
p6555
S'NN'
p6556
F0.9839
tp6557
a(S'and'
p6558
S'CC'
p6559
F0.998
tp6560
a(g137
S'PRP'
p6561
F0.9945
tp6562
a(S'love'
p6563
S'VBP'
p6564
F0.99
tp6565
a(S'Apple'
p6566
S'NNP'
p6567
F0.945
tp6568
a(S':)'
p6569
S'UH'
p6570
F0.9156
tp6571
a(S'good'
p6572
S'JJ'
p6573
F0.9018
tp6574
a(S'job'
p6575
S'NN'
p6576
F0.9834
tp6577
a(g287
g66
F0.9964
tp6578
ag62
tp6579
a((lp6580
(S'RT'
p6581
S'RT'
p6582
F0.9667
tp6583
a(S'Yes'
p6584
S'UH'
p6585
F0.9202
tp6586
a(g14
g14
F0.9852
tp6587
a(S'one'
p6588
S'CD'
p6589
F0.9385
tp6590
a(S'reason'
p6591
S'NN'
p6592
F0.9601
tp6593
a(S'why'
p6594
S'WRB'
p6595
F0.9193
tp6596
a(g137
S'PRP'
p6597
F0.9948
tp6598
a(S'lean'
p6599
S'VBP'
p6600
F0.591
tp6601
a(S'towards'
p6602
S'IN'
p6603
F0.9766
tp6604
a(S'using'
p6605
S'VBG'
p6606
F0.9822
tp6607
a(S'Apples'
p6608
S'NNS'
p6609
F0.6401
tp6610
a(S'own'
p6611
S'JJ'
p6612
F0.9443
tp6613
a(S'apps'
p6614
S'NNS'
p6615
F0.6386
tp6616
a(S'for'
p6617
S'IN'
p6618
F0.9942
tp6619
a(S'better'
p6620
S'JJR'
p6621
F0.5337
tp6622
a(S'or'
p6623
S'CC'
p6624
F0.9766
tp6625
a(S'worse'
p6626
S'JJ'
p6627
F0.4905
tp6628
a(g66
g66
F0.9951
tp6629
ag62
tp6630
a((lp6631
(S'this'
p6632
S'DT'
p6633
F0.9942
tp6634
a(S'mantra'
p6635
S'NN'
p6636
F0.9016
tp6637
a(S'from'
p6638
S'IN'
p6639
F0.9992
tp6640
a(S'Apple'
p6641
S'NNP'
p6642
F0.9949
tp6643
a(S'sucks'
p6644
S'VBZ'
p6645
F0.9173
tp6646
a(g66
g66
F0.9939
tp6647
a(S'Honestly'
p6648
S'RB'
p6649
F0.975
tp6650
a(g400
g400
F0.9595
tp6651
a(S'Theres'
p6652
S'NNS'
p6653
F0.2826
tp6654
a(S'enough'
p6655
S'JJ'
p6656
F0.6061
tp6657
a(S'information'
p6658
S'NN'
p6659
F0.9746
tp6660
a(S'in'
p6661
S'IN'
p6662
F0.9923
tp6663
a(S'my'
p6664
S'PRP$'
p6665
F0.9824
tp6666
a(S'tweet'
p6667
S'NN'
p6668
F0.9252
tp6669
a(g66
g66
F0.9873
tp6670
a(S'If'
p6671
S'IN'
p6672
F0.9675
tp6673
a(S'you'
p6674
S'PRP'
p6675
F0.9996
tp6676
a(S'cared'
p6677
S'VBD'
p6678
F0.8775
tp6679
a(g14
g14
F0.989
tp6680
a(S'you'
p6681
S'PRP'
p6682
F0.998
tp6683
a(S'could'
p6684
S'MD'
p6685
F0.9473
tp6686
a(S'file'
p6687
S'VB'
p6688
F0.9944
tp6689
a(S'it'
p6690
S'PRP'
p6691
F0.9962
tp6692
a(S'yourself'
p6693
S'PRP'
p6694
F0.9483
tp6695
a(g66
g66
F0.9948
tp6696
ag175
tp6697
a((lp6698
(S'Also'
p6699
S'RB'
p6700
F0.9611
tp6701
a(S'the'
p6702
S'DT'
p6703
F0.9889
tp6704
a(S'multitasking'
p6705
S'NNP'
p6706
F0.6147
tp6707
a(S'is'
p6708
S'VBZ'
p6709
F0.9945
tp6710
a(S'now'
p6711
S'RB'
p6712
F0.9969
tp6713
a(S'WORSE'
p6714
S'JJ'
p6715
F0.3764
tp6716
a(g14
g14
F0.9906
tp6717
a(S'like'
p6718
S'IN'
p6719
F0.7023
tp6720
a(S'that'
p6721
S'DT'
p6722
F0.9082
tp6723
a(S'shitty'
p6724
S'JJ'
p6725
F0.9066
tp6726
a(S'windows'
p6727
S'NN'
p6728
F0.7029
tp6729
a(S'vista'
p6730
S'NN'
p6731
F0.866
tp6732
a(S'multitasking'
p6733
S'NN'
p6734
F0.324
tp6735
a(S'shit'
p6736
S'NN'
p6737
F0.9869
tp6738
a(S'...'
p6739
g400
F0.9967
tp6740
a(S'Apple'
p6741
S'NNP'
p6742
F0.8045
tp6743
a(S'is'
p6744
S'VBZ'
p6745
F0.9948
tp6746
a(S'out'
p6747
S'RP'
p6748
F0.6951
tp6749
a(S'to'
p6750
S'TO'
p6751
F0.995
tp6752
a(S'lunch'
p6753
S'NN'
p6754
F0.6935
tp6755
a(S'with'
p6756
S'IN'
p6757
F0.9987
tp6758
a(S'their'
p6759
S'PRP$'
p6760
F0.8904
tp6761
a(S'new'
p6762
S'JJ'
p6763
F0.9942
tp6764
a(S'shit'
p6765
S'NN'
p6766
F0.9738
tp6767
a(g137
S'PRP'
p6768
F0.9956
tp6769
a(S'swear'
p6770
S'VBP'
p6771
F0.9401
tp6772
a(g66
g66
F0.9955
tp6773
ag175
tp6774
a((lp6775
(S'stick'
p6776
S'VB'
p6777
F0.8321
tp6778
a(S'your'
p6779
S'PRP$'
p6780
F0.9262
tp6781
a(S'apple'
p6782
S'NN'
p6783
F0.8088
tp6784
a(S'tv'
p6785
S'NN'
p6786
F0.9728
tp6787
a(S'up'
p6788
S'RP'
p6789
F0.6728
tp6790
a(S'your'
p6791
S'PRP$'
p6792
F0.9959
tp6793
a(S'ass'
p6794
S'NN'
p6795
F0.9379
tp6796
a(g66
g66
F0.9941
tp6797
a(S'Everyone'
p6798
S'NN'
p6799
F0.9591
tp6800
a(g382
S'PRP'
p6801
F0.9712
tp6802
a(S'know'
p6803
S'VBP'
p6804
F0.9831
tp6805
a(S'had'
p6806
S'VBD'
p6807
F0.6167
tp6808
a(S'trouble'
p6809
S'NN'
p6810
F0.9852
tp6811
a(S'streaming'
p6812
S'VBG'
p6813
F0.5389
tp6814
a(S'the'
p6815
S'DT'
p6816
F0.9955
tp6817
a(S'game'
p6818
S'NN'
p6819
F0.9909
tp6820
a(g66
g66
F0.9939
tp6821
a(S'Goodell'
p6822
S'NNP'
p6823
F0.829
tp6824
a(S'and'
p6825
S'CC'
p6826
F0.9964
tp6827
a(S'his'
p6828
S'PRP$'
p6829
F0.7968
tp6830
a(S'london'
p6831
S'NNP'
p6832
F0.8997
tp6833
a(S'yahoo'
p6834
S'NNP'
p6835
F0.7098
tp6836
a(S'crap'
p6837
S'NN'
p6838
F0.8099
tp6839
a(S'sucks'
p6840
S'VBZ'
p6841
F0.9584
tp6842
ag175
tp6843
a((lp6844
(S'RT'
p6845
S'RT'
p6846
F0.9539
tp6847
a(S'Apple'
p6848
S'NNP'
p6849
F0.9531
tp6850
a(S'is'
p6851
S'VBZ'
p6852
F0.9941
tp6853
a(S'worse'
p6854
S'JJ'
p6855
F0.7321
tp6856
a(S'...'
p6857
g400
F0.9945
tp6858
a(S'and'
p6859
S'CC'
p6860
F0.994
tp6861
a(S'the'
p6862
S'DT'
p6863
F0.9954
tp6864
a(S'updates'
p6865
S'NNS'
p6866
F0.9825
tp6867
a(S'are'
p6868
S'VBP'
p6869
F0.9725
tp6870
a(S'massive'
p6871
S'JJ'
p6872
F0.9751
tp6873
a(S'...'
p6874
g400
F0.9971
tp6875
a(S'these'
p6876
S'DT'
p6877
F0.9871
tp6878
a(S'smart'
p6879
S'JJ'
p6880
F0.8938
tp6881
a(S'phones'
p6882
S'NNS'
p6883
F0.8904
tp6884
a(S'sold'
p6885
S'VBD'
p6886
F0.8351
tp6887
a(S'us'
p6888
S'PRP'
p6889
F0.7095
tp6890
a(S'dreams'
p6891
S'NNS'
p6892
F0.9224
tp6893
a(S'...'
p6894
g400
F0.9963
tp6895
a(S'mxm'
p6896
S'UH'
p6897
F0.8125
tp6898
a(g287
g66
F0.9662
tp6899
ag175
tp6900
a((lp6901
(S'Updated'
p6902
S'VBD'
p6903
F0.7632
tp6904
a(S'my'
p6905
S'PRP$'
p6906
F0.9945
tp6907
a(S'iMac'
p6908
S'NN'
p6909
F0.5055
tp6910
a(g14
g14
F0.9908
tp6911
a(S'MBA'
p6912
S'NNP'
p6913
F0.9738
tp6914
a(g2784
S'CC'
p6915
F0.8925
tp6916
a(S'MBP'
p6917
S'NNP'
p6918
F0.7367
tp6919
a(S'with'
p6920
S'IN'
p6921
F0.9924
tp6922
a(S'latest'
p6923
S'JJ'
p6924
F0.5228
tp6925
a(S'#ElCapitan'
p6926
S'HT'
p6927
F0.9424
tp6928
a(S'10.11.1'
p6929
S'CD'
p6930
F0.9893
tp6931
a(S'and'
p6932
S'CC'
p6933
F0.9954
tp6934
a(S'so'
p6935
S'RB'
p6936
F0.9639
tp6937
a(S'far'
p6938
S'RB'
p6939
F0.9376
tp6940
a(S'so'
p6941
S'RB'
p6942
F0.9429
tp6943
a(S'good'
p6944
S'JJ'
p6945
F0.9837
tp6946
a(S'#Office2016'
p6947
S'HT'
p6948
F0.8831
tp6949
a(S'is'
p6950
S'VBZ'
p6951
F0.9886
tp6952
a(S'not'
p6953
S'RB'
p6954
F0.996
tp6955
a(S'crashing'
p6956
S'VBG'
p6957
F0.8884
tp6958
a(g14
g14
F0.9869
tp6959
a(S'Outlook'
p6960
S'NNP'
p6961
F0.5137
tp6962
a(S'is'
p6963
S'VBZ'
p6964
F0.9951
tp6965
a(S'performing'
p6966
S'VBG'
p6967
F0.9601
tp6968
a(S'ok'
p6969
S'UH'
p6970
F0.7633
tp6971
ag62
tp6972
a((lp6973
(S'My'
p6974
S'PRP$'
p6975
F0.9448
tp6976
a(S'new'
p6977
S'JJ'
p6978
F0.9811
tp6979
a(S'MacBook'
p6980
S'NN'
p6981
F0.578
tp6982
a(S'Air'
p6983
S'NN'
p6984
F0.6612
tp6985
a(S'stays'
p6986
S'VBZ'
p6987
F0.754
tp6988
a(S'getting'
p6989
S'VBG'
p6990
F0.9949
tp6991
a(S'ultra'
p6992
S'RB'
p6993
F0.6861
tp6994
a(S'hot'
p6995
S'JJ'
p6996
F0.9704
tp6997
a(S'and'
p6998
S'CC'
p6999
F0.9927
tp7000
a(S'the'
p7001
S'DT'
p7002
F0.9953
tp7003
a(S'fans'
p7004
S'NNS'
p7005
F0.9581
tp7006
a(S'pumping'
p7007
S'VBG'
p7008
F0.9249
tp7009
a(S'loud'
p7010
S'JJ'
p7011
F0.9089
tp7012
a(S'overtime'
p7013
S'NN'
p7014
F0.9927
tp7015
a(g66
g66
F0.9956
tp7016
a(S'Does'
p7017
S'VBZ'
p7018
F0.7995
tp7019
a(S'anyone'
p7020
S'NN'
p7021
F0.9553
tp7022
a(S'else'
p7023
S'RB'
p7024
F0.5037
tp7025
a(S'experience'
p7026
S'NN'
p7027
F0.8633
tp7028
a(S'that'
p7029
S'DT'
p7030
F0.3164
tp7031
a(g1274
g66
F0.9948
tp7032
ag175
tp7033
a((lp7034
(S'Apple'
p7035
S'NNP'
p7036
F0.9625
tp7037
a(S'Music'
p7038
S'NNP'
p7039
F0.6717
tp7040
a(S'sucks'
p7041
S'VBZ'
p7042
F0.9481
tp7043
a(S'compared'
p7044
S'VBN'
p7045
F0.8699
tp7046
a(S'to'
p7047
S'TO'
p7048
F0.9935
tp7049
a(S'Spotify'
p7050
S'NNP'
p7051
F0.9834
tp7052
a(S'????'
p7053
g66
F0.9774
tp7054
ag175
tp7055
a((lp7056
(S'But'
p7057
S'CC'
p7058
F0.9662
tp7059
a(S'also'
p7060
S'RB'
p7061
F0.9972
tp7062
a(S'good'
p7063
S'JJ'
p7064
F0.9812
tp7065
a(S'job'
p7066
S'NN'
p7067
F0.9179
tp7068
a(S'Apple'
p7069
S'NNP'
p7070
F0.9089
tp7071
a(S'for'
p7072
S'IN'
p7073
F0.9826
tp7074
a(S'being'
p7075
S'VBG'
p7076
F0.9639
tp7077
a(S'religiously'
p7078
S'RB'
p7079
F0.9924
tp7080
a(S'inclusive'
p7081
S'JJ'
p7082
F0.709
tp7083
a(S'????????????????????????'
p7084
g66
F0.9725
tp7085
ag62
tp7086
a((lp7087
(S'wow'
p7088
S'UH'
p7089
F0.963
tp7090
a(S'all'
p7091
S'DT'
p7092
F0.965
tp7093
a(S'these'
p7094
S'DT'
p7095
F0.9845
tp7096
a(S'new'
p7097
S'JJ'
p7098
F0.9925
tp7099
a(S'emojis'
p7100
S'NNS'
p7101
F0.9836
tp7102
a(S'are'
p7103
S'VBP'
p7104
F0.9763
tp7105
a(S'great'
p7106
S'JJ'
p7107
F0.9852
tp7108
a(g66
g66
F0.9914
tp7109
a(S'good'
p7110
S'JJ'
p7111
F0.9245
tp7112
a(S'job'
p7113
S'NN'
p7114
F0.9424
tp7115
a(S'Apple'
p7116
S'NNP'
p7117
F0.8997
tp7118
ag62
tp7119
a((lp7120
(S'Apple'
p7121
S'NNP'
p7122
F0.8835
tp7123
a(g14
g14
F0.9903
tp7124
a(S'stop'
p7125
S'VB'
p7126
F0.8452
tp7127
a(S'pushing'
p7128
S'VBG'
p7129
F0.9949
tp7130
a(S'The'
p7131
S'DT'
p7132
F0.787
tp7133
a(S'Cloud'
p7134
S'NNP'
p7135
F0.8926
tp7136
a(S'on'
p7137
S'IN'
p7138
F0.9921
tp7139
a(S'me'
p7140
S'PRP'
p7141
F0.98
tp7142
a(g14
g14
F0.9881
tp7143
a(S"you're"
p7144
S'PRP'
p7145
F0.4638
tp7146
a(S'worse'
p7147
S'JJ'
p7148
F0.4999
tp7149
a(S'than'
p7150
S'IN'
p7151
F0.9933
tp7152
a(S'my'
p7153
S'PRP$'
p7154
F0.9533
tp7155
a(S'crack'
p7156
S'NN'
p7157
F0.9456
tp7158
a(S'dealer'
p7159
S'NN'
p7160
F0.9905
tp7161
a(g66
g66
F0.9956
tp7162
a(S'Which'
p7163
S'WDT'
p7164
F0.4761
tp7165
a(S'reminds'
p7166
S'VBZ'
p7167
F0.9663
tp7168
a(S'me'
p7169
S'PRP'
p7170
F0.9947
tp7171
a(g14
g14
F0.9874
tp7172
a(g137
S'PRP'
p7173
F0.9903
tp7174
a(S'need'
p7175
S'VBP'
p7176
F0.9937
tp7177
a(S'to'
p7178
S'TO'
p7179
F0.9954
tp7180
a(S'stock'
p7181
S'VB'
p7182
F0.8756
tp7183
a(S'up'
p7184
S'RP'
p7185
F0.704
tp7186
a(S'on'
p7187
S'IN'
p7188
F0.9946
tp7189
a(S'crack'
p7190
S'NN'
p7191
F0.7502
tp7192
a(S'and'
p7193
S'CC'
p7194
F0.9829
tp7195
a(S'backup'
p7196
S'JJ'
p7197
F0.4513
tp7198
a(S'my'
p7199
S'PRP$'
p7200
F0.9903
tp7201
a(S'files'
p7202
S'NNS'
p7203
F0.9839
tp7204
a(g66
g66
F0.9974
tp7205
ag175
tp7206
a((lp7207
(g137
S'PRP'
p7208
F0.9982
tp7209
a(S'hate'
p7210
S'VBP'
p7211
F0.9947
tp7212
a(S'Apple'
p7213
S'NNP'
p7214
F0.9599
tp7215
a(S'and'
p7216
S'CC'
p7217
F0.9923
tp7218
a(S'iPhones'
p7219
S'NNS'
p7220
F0.7088
tp7221
a(g137
S'PRP'
p7222
F0.9977
tp7223
a(S'have'
p7224
S'VBP'
p7225
F0.9815
tp7226
a(S'The'
p7227
S'DT'
p7228
F0.9349
tp7229
a(S'worse'
p7230
S'JJ'
p7231
F0.8092
tp7232
a(S'luck'
p7233
S'NN'
p7234
F0.9576
tp7235
a(S'with'
p7236
S'IN'
p7237
F0.9972
tp7238
a(S'phones'
p7239
S'NNS'
p7240
F0.882
tp7241
a(S'my'
p7242
S'PRP$'
p7243
F0.9933
tp7244
a(S'phone'
p7245
S'NN'
p7246
F0.9922
tp7247
a(S"won't"
p7248
S'MD'
p7249
F0.4909
tp7250
a(S'dial'
p7251
S'VB'
p7252
F0.9471
tp7253
a(S'out'
p7254
S'RP'
p7255
F0.9065
tp7256
a(S'and'
p7257
S'CC'
p7258
F0.9909
tp7259
a(S'as'
p7260
S'IN'
p7261
F0.5491
tp7262
a(S'soon'
p7263
S'RB'
p7264
F0.9491
tp7265
a(g137
S'PRP'
p7266
F0.9929
tp7267
a(S'finally'
p7268
S'RB'
p7269
F0.9739
tp7270
a(S'get'
p7271
S'VB'
p7272
F0.5971
tp7273
a(g166
S'DT'
p7274
F0.9816
tp7275
a(S'call'
p7276
S'NN'
p7277
F0.868
tp7278
a(g137
S'PRP'
p7279
F0.9972
tp7280
a(S"can't"
p7281
S'MD'
p7282
F0.9374
tp7283
a(S'hear'
p7284
S'VB'
p7285
F0.9708
tp7286
a(S'nothing'
p7287
S'NN'
p7288
F0.9772
tp7289
a(S'????????'
p7290
g66
F0.9862
tp7291
ag175
tp7292
a((lp7293
(S'Apple'
p7294
S'NNP'
p7295
F0.9036
tp7296
a(S'TV'
p7297
S'NNP'
p7298
F0.8267
tp7299
a(S'2015'
p7300
S'CD'
p7301
F0.6965
tp7302
a(S'review'
p7303
S'NN'
p7304
F0.9791
tp7305
a(g400
g400
F0.9695
tp7306
a(S'Fast'
p7307
S'RB'
p7308
F0.5114
tp7309
a(S'and'
p7310
S'CC'
p7311
F0.9893
tp7312
a(S'easy'
p7313
S'JJ'
p7314
F0.9097
tp7315
a(S'to'
p7316
S'TO'
p7317
F0.9954
tp7318
a(S'navigate'
p7319
S'VB'
p7320
F0.9865
tp7321
a(g14
g14
F0.9868
tp7322
a(S'but'
p7323
S'CC'
p7324
F0.9939
tp7325
a(S'keyboard'
p7326
S'NN'
p7327
F0.8972
tp7328
a(S'worse'
p7329
S'JJ'
p7330
F0.3493
tp7331
a(g14
g14
F0.9893
tp7332
a(S'Siri'
p7333
S'NNP'
p7334
F0.9995
tp7335
a(S'limited'
p7336
S'JJ'
p7337
F0.3843
tp7338
a(g14
g14
F0.9885
tp7339
a(S'feels'
p7340
S'VBZ'
p7341
F0.8515
tp7342
a(S'like'
p7343
S'IN'
p7344
F0.7121
tp7345
a(S'first'
p7346
S'JJ'
p7347
F0.9491
tp7348
a(S'effort'
p7349
S'NN'
p7350
F0.9867
tp7351
a(S'in'
p7352
S'IN'
p7353
F0.9817
tp7354
a(S'new'
p7355
S'JJ'
p7356
F0.9676
tp7357
ag175
tp7358
a((lp7359
(S'Apple'
p7360
S'NNP'
p7361
F0.9642
tp7362
a(S'Mail'
p7363
S'NNP'
p7364
F0.7664
tp7365
a(S'app'
p7366
S'NNP'
p7367
F0.6387
tp7368
a(S'also'
p7369
S'RB'
p7370
F0.9903
tp7371
a(S'sucks'
p7372
S'VBZ'
p7373
F0.9285
tp7374
ag175
tp7375
a((lp7376
(S'Good'
p7377
S'JJ'
p7378
F0.777
tp7379
a(S'job'
p7380
S'NN'
p7381
F0.9364
tp7382
a(S'Apple'
p7383
S'NNP'
p7384
F0.8931
tp7385
a(S'on'
p7386
S'IN'
p7387
F0.966
tp7388
a(S'finally'
p7389
S'RB'
p7390
F0.9724
tp7391
a(S'getting'
p7392
S'VBG'
p7393
F0.9958
tp7394
a(g166
S'DT'
p7395
F0.9954
tp7396
a(S'middle'
p7397
S'NN'
p7398
F0.9722
tp7399
a(S'finger'
p7400
S'NN'
p7401
F0.9871
tp7402
a(S'emoji'
p7403
S'NN'
p7404
F0.7212
tp7405
a(S'????????'
p7406
g66
F0.9741
tp7407
ag62
tp7408
a((lp7409
(S'Apple'
p7410
S'NNP'
p7411
F0.9089
tp7412
a(S'sucks'
p7413
S'VBZ'
p7414
F0.972
tp7415
a(S'tbh'
p7416
S'NN'
p7417
F0.7762
tp7418
ag175
tp7419
a((lp7420
(S'with'
p7421
S'IN'
p7422
F0.995
tp7423
a(S'every'
p7424
S'DT'
p7425
F0.9405
tp7426
a(S'update'
p7427
S'NN'
p7428
F0.8947
tp7429
a(S'my'
p7430
S'PRP$'
p7431
F0.9906
tp7432
a(S'phone'
p7433
S'NN'
p7434
F0.996
tp7435
a(S'gets'
p7436
S'VBZ'
p7437
F0.9514
tp7438
a(S'worse'
p7439
S'JJ'
p7440
F0.4509
tp7441
a(g14
g14
F0.9902
tp7442
a(S"I'm"
p7443
S'PRP'
p7444
F0.475
tp7445
a(S'so'
p7446
S'RB'
p7447
F0.9208
tp7448
a(S'over'
p7449
S'IN'
p7450
F0.9873
tp7451
a(S'Apple'
p7452
S'NNP'
p7453
F0.9723
tp7454
a(S'????'
p7455
g66
F0.9799
tp7456
ag175
tp7457
a((lp7458
(S'Dear'
p7459
S'UH'
p7460
F0.846
tp7461
a(S'Why'
p7462
S'WRB'
p7463
F0.8975
tp7464
a(S'was'
p7465
S'VBD'
p7466
F0.9788
tp7467
a(g137
S'PRP'
p7468
F0.9979
tp7469
a(S'not'
p7470
S'RB'
p7471
F0.9874
tp7472
a(S'called'
p7473
S'VBN'
p7474
F0.4958
tp7475
a(S'when'
p7476
S'WRB'
p7477
F0.994
tp7478
a(S'my'
p7479
S'PRP$'
p7480
F0.9955
tp7481
a(S'computer'
p7482
S'NN'
p7483
F0.9919
tp7484
a(S'was'
p7485
S'VBD'
p7486
F0.9808
tp7487
a(S'fixed'
p7488
S'VBN'
p7489
F0.8576
tp7490
a(g1274
g66
F0.9891
tp7491
a(S'The'
p7492
S'DT'
p7493
F0.8288
tp7494
a(S'Gardens'
p7495
S'NNP'
p7496
F0.9573
tp7497
a(S'Mall'
p7498
S'NNP'
p7499
F0.9878
tp7500
a(S'Apple'
p7501
S'NNP'
p7502
F0.9994
tp7503
a(S'Store'
p7504
S'NNP'
p7505
F0.9487
tp7506
a(S'sucks'
p7507
S'VBZ'
p7508
F0.8563
tp7509
a(g66
g66
F0.9934
tp7510
a(S'Unimpressed'
p7511
S'JJ'
p7512
F0.7603
tp7513
a(g66
g66
F0.995
tp7514
ag175
tp7515
a.