(lp0
((lp1
(S'RT'
p2
S'RT'
p3
F0.9734
tp4
a(S'This'
p5
S'DT'
p6
F0.9814
tp7
a(S'emoji'
p8
S'NN'
p9
F0.9375
tp10
a(S'is'
p11
S'VBZ'
p12
F0.9935
tp13
a(S'my'
p14
S'PRP$'
p15
F0.9976
tp16
a(S'life'
p17
S'NN'
p18
F0.9968
tp19
a(S':'
p20
g20
F0.9487
tp21
a(S'????'
p22
S'.'
p23
F0.9169
tp24
a(S'Good'
p25
S'JJ'
p26
F0.8719
tp27
a(S'job'
p28
S'NN'
p29
F0.9534
tp30
a(S'Apple'
p31
S'NNP'
p32
F0.8818
tp33
a(g23
g23
F0.9924
tp34
a(S'Good'
p35
S'JJ'
p36
F0.8268
tp37
a(S'job'
p38
S'NN'
p39
F0.991
tp40
a(g23
g23
F0.9968
tp41
aS'1'
p42
tp43
a((lp44
(S'Apple'
p45
S'NNP'
p46
F0.9625
tp47
a(S'Music'
p48
S'NNP'
p49
F0.6717
tp50
a(S'sucks'
p51
S'VBZ'
p52
F0.9539
tp53
a(S'everything'
p54
S'NN'
p55
F0.9949
tp56
a(S'has'
p57
S'VBZ'
p58
F0.9795
tp59
a(S'to'
p60
S'TO'
p61
F0.9989
tp62
a(S'be'
p63
S'VB'
p64
F0.9986
tp65
a(S'stored'
p66
S'VBN'
p67
F0.9804
tp68
a(S'to'
p69
S'TO'
p70
F0.9935
tp71
a(S'my'
p72
S'PRP$'
p73
F0.9878
tp74
a(S'phone'
p75
S'NN'
p76
F0.9969
tp77
a(S'i'
p78
S'PRP'
p79
F0.9717
tp80
a(S"can't"
p81
S'MD'
p82
F0.7928
tp83
a(S'stream'
p84
S'VB'
p85
F0.7846
tp86
a(S'it'
p87
S'PRP'
p88
F0.9928
tp89
a(S'&'
p90
S'CC'
p91
F0.8885
tp92
a(S'as'
p93
S'IN'
p94
F0.8606
tp95
a(S'a'
p96
S'DT'
p97
F0.9922
tp98
a(S'unprivileged'
p99
S'NN'
p100
F0.5273
tp101
a(S'16gig'
p102
S'NN'
p103
F0.713
tp104
a(S'iPhone'
p105
S'NN'
p106
F0.6808
tp107
a(S'owner'
p108
S'NN'
p109
F0.9928
tp110
a(S'that'
p111
S'WDT'
p112
F0.3923
tp113
a(S'makes'
p114
S'VBZ'
p115
F0.9909
tp116
a(S'me'
p117
S'PRP'
p118
F0.9889
tp119
a(S'sad'
p120
S'JJ'
p121
F0.9803
tp122
aS'0'
p123
tp124
a((lp125
(S'good'
p126
S'JJ'
p127
F0.7479
tp128
a(S'job'
p129
S'NN'
p130
F0.9501
tp131
a(S'apple'
p132
S'NN'
p133
F0.7747
tp134
a(S'!'
p135
g23
F0.9904
tp136
a(S'????????'
p137
g23
F0.9506
tp138
ag42
tp139
a((lp140
(S'good'
p141
S'JJ'
p142
F0.7479
tp143
a(S'job'
p144
S'NN'
p145
F0.8733
tp146
a(S'Apple'
p147
S'NNP'
p148
F0.866
tp149
a(g135
g23
F0.9949
tp150
ag42
tp151
a((lp152
(S'ALL'
p153
S'DT'
p154
F0.8004
tp155
a(S'THE'
p156
S'DT'
p157
F0.9413
tp158
a(S'NEW'
p159
S'JJ'
p160
F0.914
tp161
a(S'EMOJIS'
p162
S'NNS'
p163
F0.8111
tp164
a(S'THO'
p165
S'RB'
p166
F0.288
tp167
a(S'>>>>>>>>'
p168
S'UH'
p169
F0.1744
tp170
a(S'GOOD'
p171
S'JJ'
p172
F0.7239
tp173
a(S'JOB'
p174
S'NN'
p175
F0.5611
tp176
a(S'APPLE'
p177
S'NNP'
p178
F0.8057
tp179
a(S'!!!'
p180
g23
F0.9876
tp181
a(S'Except'
p182
S'IN'
p183
F0.7491
tp184
a(S"there's"
p185
S'RB'
p186
F0.1749
tp187
a(S'still'
p188
S'RB'
p189
F0.9932
tp190
a(S'no'
p191
S'DT'
p192
F0.8902
tp193
a(S'giraffe'
p194
S'NN'
p195
F0.9786
tp196
a(g23
g23
F0.9934
tp197
a(S'So'
p198
S'RB'
p199
F0.5982
tp200
a(g23
g23
F0.9905
tp201
a(S'????????'
p202
g23
F0.9494
tp203
ag42
tp204
a((lp205
(S'Apple'
p206
S'NNP'
p207
F0.9095
tp208
a(S'sucks'
p209
S'VBZ'
p210
F0.9795
tp211
a(S'their'
p212
S'PRP$'
p213
F0.9562
tp214
a(S'phones'
p215
S'NNS'
p216
F0.9408
tp217
a(S'die'
p218
S'VBP'
p219
F0.5929
tp220
a(S'to'
p221
S'TO'
p222
F0.9934
tp223
a(S'fast'
p224
S'RB'
p225
F0.3343
tp226
ag123
tp227
a((lp228
(S"Apple's"
p229
S'NNP'
p230
F0.9221
tp231
a(S'"'
p232
S"''"
p233
F0.9667
tp234
a(S'Hot'
p235
S'NNP'
p236
F0.6984
tp237
a(S'News'
p238
S'NNP'
p239
F0.9629
tp240
a(g232
S"''"
p241
F0.9762
tp242
a(S'Sucks'
p243
S'VBZ'
p244
F0.7428
tp245
a(g135
g23
F0.9938
tp246
a(S"Here's"
p247
S'RB'
p248
F0.9079
tp249
a(S'What'
p250
S'WP'
p251
F0.966
tp252
a(S'Could'
p253
S'MD'
p254
F0.9812
tp255
a(S'Be'
p256
S'VB'
p257
F0.9987
tp258
a(S'Different'
p259
S'JJ'
p260
F0.8234
tp261
a(S'#BusinessBlogging'
p262
S'HT'
p263
F0.9462
tp264
a(S'#CompanyBlog'
p265
S'HT'
p266
F0.9841
tp267
ag123
tp268
a((lp269
(S'I'
p270
S'PRP'
p271
F0.9979
tp272
a(S'know'
p273
S'VBP'
p274
F0.9474
tp275
a(S'that'
p276
S'DT'
p277
F0.6713
tp278
a(g23
g23
F0.9943
tp279
a(S"That's"
p280
S'DT'
p281
F0.6944
tp282
a(S'why'
p283
S'WRB'
p284
F0.9266
tp285
a(S"it's"
p286
S'PRP'
p287
F0.8813
tp288
a(S'sometimes'
p289
S'RB'
p290
F0.9861
tp291
a(S'annoying'
p292
S'JJ'
p293
F0.9675
tp294
a(S'on'
p295
S'IN'
p296
F0.9904
tp297
a(S'Sailfish'
p298
S'NNP'
p299
F0.989
tp300
a(S'or'
p301
S'CC'
p302
F0.9842
tp303
a(S'BB10'
p304
S'CD'
p305
F0.5093
tp306
a(g23
g23
F0.9881
tp307
a(S'but'
p308
S'CC'
p309
F0.9873
tp310
a(S'apple'
p311
S'NN'
p312
F0.6733
tp313
a(S'is'
p314
S'VBZ'
p315
F0.9966
tp316
a(S'worse'
p317
S'JJ'
p318
F0.472
tp319
a(S'about'
p320
S'IN'
p321
F0.9787
tp322
a(S'that'
p323
S'DT'
p324
F0.6729
tp325
a(g23
g23
F0.9959
tp326
ag123
tp327
a((lp328
(S'????????'
p329
g23
F0.9159
tp330
a(S'finally'
p331
S'RB'
p332
F0.9911
tp333
a(S'got'
p334
S'VBD'
p335
F0.8361
tp336
a(S'the'
p337
S'DT'
p338
F0.9967
tp339
a(S'middle'
p340
S'NN'
p341
F0.9732
tp342
a(S'finger'
p343
S'NN'
p344
F0.9879
tp345
a(S'emoji'
p346
S'NN'
p347
F0.7651
tp348
a(S','
p349
g349
F0.9923
tp350
a(S'good'
p351
S'JJ'
p352
F0.9501
tp353
a(S'job'
p354
S'NN'
p355
F0.9424
tp356
a(S'Apple'
p357
S'NNP'
p358
F0.8997
tp359
ag42
tp360
a((lp361
(S'Loving'
p362
S'VBG'
p363
F0.9851
tp364
a(S'my'
p365
S'PRP$'
p366
F0.9941
tp367
a(S'new'
p368
S'JJ'
p369
F0.9779
tp370
a(S'MacBook'
p371
S'NN'
p372
F0.7041
tp373
a(S'Pro'
p374
S'NN'
p375
F0.5527
tp376
a(S'15'
p377
S'CD'
p378
F0.9507
tp379
a(g232
S"''"
p380
F0.9818
tp381
a(S'..'
p382
g20
F0.9441
tp383
a(S'but'
p384
S'CC'
p385
F0.9713
tp386
a(S'damn'
p387
S'RB'
p388
F0.3993
tp389
a(S'the'
p390
S'DT'
p391
F0.9909
tp392
a(S'fan'
p393
S'NN'
p394
F0.9868
tp395
a(S'is'
p396
S'VBZ'
p397
F0.994
tp398
a(S'loud'
p399
S'JJ'
p400
F0.7866
tp401
a(S'!!'
p402
g23
F0.9891
tp403
ag123
tp404
a((lp405
(S'Finally'
p406
S'RB'
p407
F0.9492
tp408
a(S"I've"
p409
S'PRP'
p410
F0.929
tp411
a(S'been'
p412
S'VBN'
p413
F0.8526
tp414
a(S'waiting'
p415
S'VBG'
p416
F0.9881
tp417
a(S'for'
p418
S'IN'
p419
F0.996
tp420
a(S'the'
p421
S'DT'
p422
F0.9959
tp423
a(S'volleyball'
p424
S'NN'
p425
F0.9886
tp426
a(S'emoji'
p427
S'NN'
p428
F0.8065
tp429
a(S'????????????'
p430
g23
F0.9507
tp431
a(S'good'
p432
S'JJ'
p433
F0.9441
tp434
a(S'job'
p435
S'NN'
p436
F0.9393
tp437
a(S'Apple'
p438
S'NNP'
p439
F0.8916
tp440
ag42
tp441
a((lp442
(S'is'
p443
S'VBZ'
p444
F0.9758
tp445
a(S'that'
p446
S'DT'
p447
F0.8412
tp448
a(S'good'
p449
S'JJ'
p450
F0.9509
tp451
a(S'?'
p452
g23
F0.9848
tp453
a(S'the'
p454
S'DT'
p455
F0.9923
tp456
a(S'13'
p457
S'CD'
p458
F0.9344
tp459
a(S'retina'
p460
S'NN'
p461
F0.8829
tp462
a(S'mbp'
p463
S'NN'
p464
F0.868
tp465
a(S'graphics'
p466
S'NNS'
p467
F0.4895
tp468
a(S'are'
p469
S'VBP'
p470
F0.9533
tp471
a(S'horrific'
p472
S'JJ'
p473
F0.9759
tp474
ag123
tp475
a((lp476
(S'APPLE'
p477
S'NNP'
p478
F0.965
tp479
a(S'ADDED'
p480
S'VBN'
p481
F0.3761
tp482
a(S'MIDDLE'
p483
S'NN'
p484
F0.6076
tp485
a(S'FINGER'
p486
S'NN'
p487
F0.9575
tp488
a(g349
g349
F0.9912
tp489
a(S'BURRITO'
p490
S'NNP'
p491
F0.8127
tp492
a(g349
g349
F0.9889
tp493
a(S'AND'
p494
S'CC'
p495
F0.9843
tp496
a(S'UNICORN'
p497
S'NNP'
p498
F0.715
tp499
a(S'EMOJIS'
p500
S'NNP'
p501
F0.6873
tp502
a(S'GOOD'
p503
S'JJ'
p504
F0.51
tp505
a(S'JOB'
p506
S'NN'
p507
F0.9088
tp508
a(g270
S'PRP'
p509
F0.9928
tp510
a(S'LOVE'
p511
S'VBP'
p512
F0.9975
tp513
a(S'YOU'
p514
S'PRP'
p515
F0.9979
tp516
a(S'????????????????'
p517
g23
F0.9699
tp518
ag42
tp519
a((lp520
(S'apple'
p521
S'NNP'
p522
F0.7966
tp523
a(S'sucks'
p524
S'VBZ'
p525
F0.9837
tp526
a(S'now'
p527
S'RB'
p528
F0.9929
tp529
a(g349
g349
F0.9905
tp530
a(S'mostly'
p531
S'RB'
p532
F0.4758
tp533
a(g23
g23
F0.9911
tp534
a(S'we'
p535
S'PRP'
p536
F0.9608
tp537
a(S'all'
p538
S'DT'
p539
F0.9278
tp540
a(S'know'
p541
S'VBP'
p542
F0.724
tp543
a(S'it'
p544
S'PRP'
p545
F0.9973
tp546
ag123
tp547
a((lp548
(S'Apple'
p549
S'NNP'
p550
F0.9629
tp551
a(S'News'
p552
S'NNP'
p553
F0.8255
tp554
a(S'has'
p555
S'VBZ'
p556
F0.9713
tp557
a(S'not'
p558
S'RB'
p559
F0.9948
tp560
a(S'done'
p561
S'VBN'
p562
F0.9581
tp563
a(g96
S'DT'
p564
F0.9874
tp565
a(S'good'
p566
S'JJ'
p567
F0.9825
tp568
a(S'job'
p569
S'NN'
p570
F0.9876
tp571
a(S'with'
p572
S'IN'
p573
F0.9974
tp574
a(S'accessibility'
p575
S'NN'
p576
F0.8358
tp577
a(g23
g23
F0.9935
tp578
a(S'Cant'
p579
S'MD'
p580
F0.7431
tp581
a(S'zoom'
p582
S'VB'
p583
F0.7108
tp584
a(g349
g349
F0.9875
tp585
a(S'cant'
p586
S'MD'
p587
F0.8866
tp588
a(S'go'
p589
S'VB'
p590
F0.9825
tp591
a(S'into'
p592
S'IN'
p593
F0.9915
tp594
a(S'landscape'
p595
S'NN'
p596
F0.927
tp597
a(S'mode'
p598
S'NN'
p599
F0.9975
tp600
a(g349
g349
F0.9913
tp601
a(S'cant'
p602
S'MD'
p603
F0.8557
tp604
a(S'increase'
p605
S'VB'
p606
F0.6925
tp607
a(S'font'
p608
S'NN'
p609
F0.8093
tp610
a(S'size'
p611
S'NN'
p612
F0.9946
tp613
a(g349
g349
F0.9913
tp614
a(S'cant'
p615
S'MD'
p616
F0.8842
tp617
a(S'select'
p618
S'VB'
p619
F0.946
tp620
a(S'text'
p621
S'NN'
p622
F0.7886
tp623
ag123
tp624
a((lp625
(S'Finally'
p626
S'RB'
p627
F0.9659
tp628
a(S'updated'
p629
S'VBD'
p630
F0.7036
tp631
a(S'my'
p632
S'PRP$'
p633
F0.9944
tp634
a(S'MBP'
p635
S'NN'
p636
F0.5567
tp637
a(S'from'
p638
S'IN'
p639
F0.9976
tp640
a(S'Lion'
p641
S'NNP'
p642
F0.931
tp643
a(S'to'
p644
S'TO'
p645
F0.9802
tp646
a(S'Yosemite'
p647
S'NNP'
p648
F0.9978
tp649
a(g23
g23
F0.9926
tp650
a(S'Took'
p651
S'VBD'
p652
F0.8301
tp653
a(g96
S'DT'
p654
F0.9853
tp655
a(S'while'
p656
S'NN'
p657
F0.8701
tp658
a(g349
g349
F0.9903
tp659
a(S'but'
p660
S'CC'
p661
F0.9953
tp662
a(S'everything'
p663
S'NN'
p664
F0.9875
tp665
a(S'went'
p666
S'VBD'
p667
F0.9272
tp668
a(S'smoothly'
p669
S'RB'
p670
F0.9552
tp671
a(S'and'
p672
S'CC'
p673
F0.9942
tp674
a(S'the'
p675
S'DT'
p676
F0.9881
tp677
a(S'new'
p678
S'JJ'
p679
F0.9677
tp680
a(S'UI'
p681
S'NN'
p682
F0.6875
tp683
a(S'looks'
p684
S'VBZ'
p685
F0.9032
tp686
a(S'nice'
p687
S'JJ'
p688
F0.9891
tp689
a(g23
g23
F0.9928
tp690
a(S'So'
p691
S'RB'
p692
F0.9407
tp693
a(S'far'
p694
S'RB'
p695
F0.9612
tp696
a(g349
g349
F0.9914
tp697
a(S'so'
p698
S'RB'
p699
F0.8866
tp700
a(S'good'
p701
S'JJ'
p702
F0.9908
tp703
a(S'...'
p704
g20
F0.9944
tp705
ag42
tp706
a((lp707
(S'New'
p708
S'JJ'
p709
F0.8923
tp710
a(S'emojis'
p711
S'NNS'
p712
F0.9105
tp713
a(S'good'
p714
S'JJ'
p715
F0.9579
tp716
a(S'job'
p717
S'NN'
p718
F0.9521
tp719
a(S'apple'
p720
S'NN'
p721
F0.7324
tp722
a(S'????????'
p723
g23
F0.9758
tp724
ag42
tp725
a((lp726
(S'TM'
p727
S'NNP'
p728
F0.8239
tp729
a(g20
g20
F0.9658
tp730
a(S'Apple'
p731
S'NNP'
p732
F0.938
tp733
a(S'TV'
p734
S'NNP'
p735
F0.8076
tp736
a(S'2015'
p737
S'CD'
p738
F0.7189
tp739
a(S'review'
p740
S'NN'
p741
F0.9844
tp742
a(g20
g20
F0.9695
tp743
a(S'fast'
p744
S'RB'
p745
F0.6323
tp746
a(S'and'
p747
S'CC'
p748
F0.9898
tp749
a(S'easy'
p750
S'JJ'
p751
F0.9097
tp752
a(S'to'
p753
S'TO'
p754
F0.9954
tp755
a(S'navigate'
p756
S'VB'
p757
F0.9865
tp758
a(g349
g349
F0.9868
tp759
a(S'but'
p760
S'CC'
p761
F0.9939
tp762
a(S'keyboard'
p763
S'NN'
p764
F0.8972
tp765
a(S'worse'
p766
S'JJ'
p767
F0.3493
tp768
a(g349
g349
F0.9893
tp769
a(S'Siri'
p770
S'NNP'
p771
F0.9995
tp772
a(S'limited'
p773
S'JJ'
p774
F0.3843
tp775
a(g349
g349
F0.9885
tp776
a(S'feels'
p777
S'VBZ'
p778
F0.8515
tp779
a(S'like'
p780
S'IN'
p781
F0.7121
tp782
a(S'first'
p783
S'JJ'
p784
F0.9539
tp785
a(S'effort'
p786
S'NN'
p787
F0.99
tp788
a(S'...'
p789
g20
F0.9942
tp790
ag123
tp791
a((lp792
(S'good'
p793
S'JJ'
p794
F0.5994
tp795
a(S'purchase'
p796
S'NN'
p797
F0.8636
tp798
a(g23
g23
F0.9914
tp799
a(S'hope'
p800
S'VBP'
p801
F0.9764
tp802
a(S'you'
p803
S'PRP'
p804
F0.9983
tp805
a(S'enjoy'
p806
S'VBP'
p807
F0.8318
tp808
a(S'it'
p809
S'PRP'
p810
F0.9959
tp811
a(S'as'
p812
S'IN'
p813
F0.6626
tp814
a(S'much'
p815
S'RB'
p816
F0.9573
tp817
a(S'as'
p818
S'IN'
p819
F0.9481
tp820
a(g270
S'PRP'
p821
F0.9918
tp822
a(S'enjoy'
p823
S'VBP'
p824
F0.7187
tp825
a(S'my'
p826
S'PRP$'
p827
F0.994
tp828
a(S'MBP'
p829
S'NN'
p830
F0.5793
tp831
a(g23
g23
F0.9949
tp832
ag42
tp833
a((lp834
(S'the'
p835
S'DT'
p836
F0.9802
tp837
a(S'new'
p838
S'JJ'
p839
F0.9743
tp840
a(S'emojis'
p841
S'NNS'
p842
F0.9844
tp843
a(S'are'
p844
S'VBP'
p845
F0.9761
tp846
a(S'great'
p847
S'JJ'
p848
F0.9774
tp849
a(S'good'
p850
S'JJ'
p851
F0.9705
tp852
a(S'job'
p853
S'NN'
p854
F0.963
tp855
a(S'apple'
p856
S'NN'
p857
F0.7615
tp858
a(S'????'
p859
g23
F0.9752
tp860
ag42
tp861
a((lp862
(S'-'
p863
g20
F0.9365
tp864
a(S'Apple'
p865
S'NNP'
p866
F0.9733
tp867
a(S'TV'
p868
S'NNP'
p869
F0.7748
tp870
a(S'2015'
p871
S'CD'
p872
F0.6796
tp873
a(S'review'
p874
S'NN'
p875
F0.9844
tp876
a(g20
g20
F0.9695
tp877
a(S'fast'
p878
S'RB'
p879
F0.6323
tp880
a(S'and'
p881
S'CC'
p882
F0.9898
tp883
a(S'easy'
p884
S'JJ'
p885
F0.9097
tp886
a(S'to'
p887
S'TO'
p888
F0.9954
tp889
a(S'navigate'
p890
S'VB'
p891
F0.9865
tp892
a(g349
g349
F0.9868
tp893
a(S'but'
p894
S'CC'
p895
F0.9939
tp896
a(S'keyboard'
p897
S'NN'
p898
F0.8972
tp899
a(S'worse'
p900
S'JJ'
p901
F0.3493
tp902
a(g349
g349
F0.9893
tp903
a(S'Siri'
p904
S'NNP'
p905
F0.9995
tp906
a(S'limited'
p907
S'JJ'
p908
F0.3843
tp909
a(g349
g349
F0.9885
tp910
a(S'feels'
p911
S'VBZ'
p912
F0.8515
tp913
a(S'like'
p914
S'IN'
p915
F0.7121
tp916
a(S'first'
p917
S'JJ'
p918
F0.9491
tp919
a(S'effort'
p920
S'NN'
p921
F0.9863
tp922
a(S'in'
p923
S'IN'
p924
F0.9924
tp925
a(S'ne'
p926
S'NNP'
p927
F0.4811
tp928
ag123
tp929
a((lp930
(S'Im'
p931
S'PRP'
p932
F0.9759
tp933
a(S'honestly'
p934
S'RB'
p935
F0.9986
tp936
a(S'surprised'
p937
S'VBD'
p938
F0.6071
tp939
a(S'the'
p940
S'DT'
p941
F0.994
tp942
a(S'new'
p943
S'JJ'
p944
F0.9577
tp945
a(S'MacBook'
p946
S'NN'
p947
F0.8125
tp948
a(S'isnt'
p949
S'NN'
p950
F0.5508
tp951
a(S'getting'
p952
S'VBG'
p953
F0.9908
tp954
a(S'more'
p955
S'RBR'
p956
F0.6124
tp957
a(S'loud'
p958
S'JJ'
p959
F0.9254
tp960
a(S'criticism'
p961
S'NN'
p962
F0.9664
tp963
a(S'for'
p964
S'IN'
p965
F0.9909
tp966
a(S'how'
p967
S'WRB'
p968
F0.9619
tp969
a(S'unbelievably'
p970
S'RB'
p971
F0.9017
tp972
a(S'slow'
p973
S'JJ'
p974
F0.9048
tp975
a(S'it'
p976
S'PRP'
p977
F0.9812
tp978
a(S'is'
p979
S'VBZ'
p980
F0.9963
tp981
a(g23
g23
F0.995
tp982
ag123
tp983
a((lp984
(S'Both'
p985
S'DT'
p986
F0.3866
tp987
a(S'2007'
p988
S'CD'
p989
F0.814
tp990
a(S'MBP'
p991
S'NN'
p992
F0.3808
tp993
a(S'and'
p994
S'CC'
p995
F0.9963
tp996
a(S'2013'
p997
S'CD'
p998
F0.967
tp999
a(S'MBPr'
p1000
S'NNP'
p1001
F0.2652
tp1002
a(S'updated'
p1003
S'VBN'
p1004
F0.514
tp1005
a(S'to'
p1006
S'TO'
p1007
F0.9856
tp1008
a(S'El'
p1009
S'NNP'
p1010
F0.9725
tp1011
a(S'Capitan'
p1012
S'NNP'
p1013
F0.9988
tp1014
a(g23
g23
F0.9939
tp1015
a(S'So'
p1016
S'RB'
p1017
F0.9407
tp1018
a(S'far'
p1019
S'RB'
p1020
F0.9706
tp1021
a(S'looking'
p1022
S'VBG'
p1023
F0.6896
tp1024
a(S'good'
p1025
S'JJ'
p1026
F0.8994
tp1027
a(g23
g23
F0.9923
tp1028
ag42
tp1029
a((lp1030
(S'Working'
p1031
S'VBG'
p1032
F0.9445
tp1033
a(S'on'
p1034
S'IN'
p1035
F0.9839
tp1036
a(g96
S'DT'
p1037
F0.9939
tp1038
a(S'brand'
p1039
S'NN'
p1040
F0.8962
tp1041
a(S'new'
p1042
S'JJ'
p1043
F0.9651
tp1044
a(S'retina'
p1045
S'NN'
p1046
F0.9796
tp1047
a(S'MBP'
p1048
S'NN'
p1049
F0.7742
tp1050
a(S'after'
p1051
S'IN'
p1052
F0.9789
tp1053
a(S'having'
p1054
S'VBG'
p1055
F0.9888
tp1056
a(S'used'
p1057
S'VBD'
p1058
F0.8969
tp1059
a(S'an'
p1060
S'DT'
p1061
F0.9693
tp1062
a(S'old'
p1063
S'JJ'
p1064
F0.6247
tp1065
a(S'non-retina'
p1066
S'JJ'
p1067
F0.8363
tp1068
a(S'for'
p1069
S'IN'
p1070
F0.9969
tp1071
a(g96
S'DT'
p1072
F0.9849
tp1073
a(S'while'
p1074
S'NN'
p1075
F0.8007
tp1076
a(S'feels'
p1077
S'VBZ'
p1078
F0.8548
tp1079
a(S'*'
p1080
S"''"
p1081
F0.1766
tp1082
a(S'too'
p1083
S'RB'
p1084
F0.7438
tp1085
a(g1080
S"''"
p1086
F0.1391
tp1087
a(S'good'
p1088
S'JJ'
p1089
F0.6902
tp1090
a(g23
g23
F0.9896
tp1091
ag42
tp1092
a((lp1093
(S'Good'
p1094
S'JJ'
p1095
F0.777
tp1096
a(S'job'
p1097
S'NN'
p1098
F0.9905
tp1099
a(g349
g349
F0.9866
tp1100
a(S'Apple'
p1101
S'NNP'
p1102
F0.9785
tp1103
a(g135
g23
F0.9883
tp1104
a(S'????????????????????????????????'
p1105
S'UH'
p1106
F0.2866
tp1107
ag42
tp1108
a((lp1109
(S'RT'
p1110
S'RT'
p1111
F0.9657
tp1112
a(S'Aw'
p1113
S'UH'
p1114
F0.9624
tp1115
a(S'look'
p1116
S'VB'
p1117
F0.4063
tp1118
a(S'they'
p1119
S'PRP'
p1120
F0.9849
tp1121
a(S'made'
p1122
S'VBD'
p1123
F0.9697
tp1124
a(S'Travis'
p1125
S'NNP'
p1126
F0.9991
tp1127
a(S'into'
p1128
S'IN'
p1129
F0.9949
tp1130
a(S'an'
p1131
S'DT'
p1132
F0.984
tp1133
a(S'emoji'
p1134
S'NN'
p1135
F0.9104
tp1136
a(g135
g23
F0.9887
tp1137
a(S'Good'
p1138
S'JJ'
p1139
F0.8507
tp1140
a(S'job'
p1141
S'NN'
p1142
F0.9592
tp1143
a(S'Apple'
p1144
S'NNP'
p1145
F0.9
tp1146
ag42
tp1147
a((lp1148
(g270
S'PRP'
p1149
F0.9967
tp1150
a(S'am'
p1151
S'VBP'
p1152
F0.9691
tp1153
a(S'torn'
p1154
S'VBN'
p1155
F0.6313
tp1156
a(S'about'
p1157
S'IN'
p1158
F0.9841
tp1159
a(S'Apple'
p1160
S'NNP'
p1161
F0.9942
tp1162
a(S'Music'
p1163
S'NNP'
p1164
F0.7292
tp1165
a(S'video'
p1166
S'NN'
p1167
F0.9771
tp1168
a(S'data'
p1169
S'NN'
p1170
F0.903
tp1171
a(S'not'
p1172
S'RB'
p1173
F0.9937
tp1174
a(S'being'
p1175
S'VBG'
p1176
F0.9605
tp1177
a(S'included'
p1178
S'VBN'
p1179
F0.841
tp1180
a(S'on'
p1181
S'IN'
p1182
F0.9928
tp1183
a(S'the'
p1184
S'DT'
p1185
F0.9838
tp1186
a(S'Hot'
p1187
S'NNP'
p1188
F0.5224
tp1189
a(S'100'
p1190
S'CD'
p1191
F0.9734
tp1192
a(g23
g23
F0.9896
tp1193
a(S'On'
p1194
S'IN'
p1195
F0.9814
tp1196
a(S'the'
p1197
S'DT'
p1198
F0.9965
tp1199
a(S'one'
p1200
S'CD'
p1201
F0.6009
tp1202
a(S'hand'
p1203
S'NN'
p1204
F0.977
tp1205
a(g349
g349
F0.9902
tp1206
a(S'it'
p1207
S'PRP'
p1208
F0.9973
tp1209
a(S'sucks'
p1210
S'VBZ'
p1211
F0.9894
tp1212
a(S'that'
p1213
S'IN'
p1214
F0.7807
tp1215
a(S'Apple'
p1216
S'NNP'
p1217
F0.9438
tp1218
a(S"isn't"
p1219
S'VBZ'
p1220
F0.3291
tp1221
a(S'reporting'
p1222
S'VBG'
p1223
F0.9671
tp1224
a(S'the'
p1225
S'DT'
p1226
F0.9943
tp1227
a(S'data'
p1228
S'NN'
p1229
F0.9499
tp1230
a(g23
g23
F0.997
tp1231
ag123
tp1232
a((lp1233
(S'Good'
p1234
S'JJ'
p1235
F0.777
tp1236
a(S'job'
p1237
S'NN'
p1238
F0.9364
tp1239
a(S'Apple'
p1240
S'NNP'
p1241
F0.8664
tp1242
a(g135
g23
F0.9851
tp1243
a(S'We'
p1244
S'PRP'
p1245
F0.9922
tp1246
a(S"don't"
p1247
S'VBP'
p1248
F0.9472
tp1249
a(S'want'
p1250
S'VB'
p1251
F0.8711
tp1252
a(S'companies'
p1253
S'NNS'
p1254
F0.9924
tp1255
a(S'stealing'
p1256
S'VBG'
p1257
F0.9842
tp1258
a(S'our'
p1259
S'PRP$'
p1260
F0.9894
tp1261
a(S'information'
p1262
S'NN'
p1263
F0.9498
tp1264
ag42
tp1265
a((lp1266
(g270
S'PRP'
p1267
F0.9984
tp1268
a(S'got'
p1269
S'VBD'
p1270
F0.968
tp1271
a(g96
S'DT'
p1272
F0.9956
tp1273
a(S'new'
p1274
S'JJ'
p1275
F0.9925
tp1276
a(S'work'
p1277
S'NN'
p1278
F0.9931
tp1279
a(S'MBP'
p1280
S'NNP'
p1281
F0.3142
tp1282
a(S'the'
p1283
S'DT'
p1284
F0.9668
tp1285
a(S'last'
p1286
S'JJ'
p1287
F0.9744
tp1288
a(S'week'
p1289
S'NN'
p1290
F0.9964
tp1291
a(S'of'
p1292
S'IN'
p1293
F0.9973
tp1294
a(S'June'
p1295
S'NNP'
p1296
F0.9971
tp1297
a(g23
g23
F0.993
tp1298
a(S'This'
p1299
S'DT'
p1300
F0.9963
tp1301
a(S'afternoon'
p1302
S'NN'
p1303
F0.9955
tp1304
a(S'is'
p1305
S'VBZ'
p1306
F0.9958
tp1307
a(S'the'
p1308
S'DT'
p1309
F0.994
tp1310
a(S'first'
p1311
S'JJ'
p1312
F0.9525
tp1313
a(S'time'
p1314
S'NN'
p1315
F0.9922
tp1316
a(S"I'm"
p1317
S'PRP'
p1318
F0.6001
tp1319
a(S'using'
p1320
S'VBG'
p1321
F0.9933
tp1322
a(S'it'
p1323
S'PRP'
p1324
F0.9943
tp1325
a(S'for'
p1326
S'IN'
p1327
F0.9931
tp1328
a(S'billable'
p1329
S'JJ'
p1330
F0.3637
tp1331
a(S'work'
p1332
S'NN'
p1333
F0.9926
tp1334
a(g23
g23
F0.9956
tp1335
a(S'It'
p1336
S'PRP'
p1337
F0.9948
tp1338
a(S'feels'
p1339
S'VBZ'
p1340
F0.9674
tp1341
a(S'good'
p1342
S'JJ'
p1343
F0.9279
tp1344
a(g23
g23
F0.9893
tp1345
a(S'This'
p1346
S'DT'
p1347
F0.9731
tp1348
a(S'is'
p1349
S'VBZ'
p1350
F0.992
tp1351
a(S'good'
p1352
S'JJ'
p1353
F0.9439
tp1354
a(g23
g23
F0.9925
tp1355
ag42
tp1356
a((lp1357
(S'Even'
p1358
S'RB'
p1359
F0.9805
tp1360
a(S'though'
p1361
S'RB'
p1362
F0.655
tp1363
a(S"I'm"
p1364
S'PRP'
p1365
F0.5605
tp1366
a(g96
S'DT'
p1367
F0.9925
tp1368
a(S'100%'
p1369
S'CD'
p1370
F0.5896
tp1371
a(S'certified'
p1372
S'JJ'
p1373
F0.5576
tp1374
a(S'Apple'
p1375
S'NNP'
p1376
F0.8988
tp1377
a(S'Fanboy/apologist'
p1378
S'NNP'
p1379
F0.6568
tp1380
a(g349
g349
F0.9901
tp1381
a(S'after'
p1382
S'IN'
p1383
F0.9567
tp1384
a(S'3'
p1385
S'CD'
p1386
F0.9888
tp1387
a(S'months'
p1388
S'NNS'
p1389
F0.9756
tp1390
a(S'without'
p1391
S'IN'
p1392
F0.997
tp1393
a(S'Spotify'
p1394
S'NNP'
p1395
F0.9909
tp1396
a(S"I'm"
p1397
S'NNP'
p1398
F0.5962
tp1399
a(S'ready'
p1400
S'JJ'
p1401
F0.5545
tp1402
a(S'to'
p1403
S'TO'
p1404
F0.9936
tp1405
a(S'admit'
p1406
S'VB'
p1407
F0.9547
tp1408
a(S'Apple'
p1409
S'NNP'
p1410
F0.9848
tp1411
a(S'Music'
p1412
S'NNP'
p1413
F0.5648
tp1414
a(S'sucks'
p1415
S'VBZ'
p1416
F0.9209
tp1417
a(S'ass'
p1418
S'NN'
p1419
F0.8122
tp1420
a(g23
g23
F0.9951
tp1421
a(g1080
S'UH'
p1422
F0.4531
tp1423
a(S'Cancel'
p1424
S'VB'
p1425
F0.3941
tp1426
a(g1080
S'UH'
p1427
F0.2534
tp1428
ag123
tp1429
a((lp1430
(S'Apple'
p1431
S'NNP'
p1432
F0.9095
tp1433
a(S'sucks'
p1434
S'VBZ'
p1435
F0.9666
tp1436
a(S'and'
p1437
S'CC'
p1438
F0.9941
tp1439
a(S'my'
p1440
S'PRP$'
p1441
F0.9924
tp1442
a(S'phone'
p1443
S'NN'
p1444
F0.9922
tp1445
a(S"won't"
p1446
S'MD'
p1447
F0.3163
tp1448
a(S'work'
p1449
S'NN'
p1450
F0.7346
tp1451
a(S'at'
p1452
S'IN'
p1453
F0.9936
tp1454
a(S'all'
p1455
S'DT'
p1456
F0.9932
tp1457
ag123
tp1458
a((lp1459
(S'Good'
p1460
S'JJ'
p1461
F0.777
tp1462
a(S'job'
p1463
S'NN'
p1464
F0.9364
tp1465
a(S'Apple'
p1466
S'NNP'
p1467
F0.8873
tp1468
a(S';'
p1469
g20
F0.8989
tp1470
a(S'encryption'
p1471
S'NN'
p1472
F0.5277
tp1473
a(S'will'
p1474
S'MD'
p1475
F0.9949
tp1476
a(S'be'
p1477
S'VB'
p1478
F0.9994
tp1479
a(g96
S'DT'
p1480
F0.9939
tp1481
a(S'key'
p1482
S'NN'
p1483
F0.7287
tp1484
a(S'growth'
p1485
S'NN'
p1486
F0.9604
tp1487
a(S'driver'
p1488
S'NN'
p1489
F0.9855
tp1490
a(S'and'
p1491
S'CC'
p1492
F0.9849
tp1493
a(S'requirement'
p1494
S'NN'
p1495
F0.8046
tp1496
a(S'for'
p1497
S'IN'
p1498
F0.9944
tp1499
a(S'consumer'
p1500
S'NN'
p1501
F0.8181
tp1502
a(S'products'
p1503
S'NNS'
p1504
F0.9279
tp1505
a(S'and'
p1506
S'CC'
p1507
F0.9834
tp1508
a(S'services'
p1509
S'NNS'
p1510
F0.9561
tp1511
a(S'go'
p1512
S'VBP'
p1513
F0.6341
tp1514
a(S'fwd'
p1515
S'VBN'
p1516
F0.359
tp1517
ag42
tp1518
a((lp1519
(S'RT'
p1520
S'RT'
p1521
F0.9693
tp1522
a(S'Constantly'
p1523
S'RB'
p1524
F0.9513
tp1525
a(S'facilitating'
p1526
S'VBG'
p1527
F0.9833
tp1528
a(S'group'
p1529
S'NN'
p1530
F0.9461
tp1531
a(S'FaceTime'
p1532
S'NNP'
p1533
F0.8728
tp1534
a(S'calls'
p1535
S'VBZ'
p1536
F0.8121
tp1537
a(S'via'
p1538
S'IN'
p1539
F0.6681
tp1540
a(S'utilizing'
p1541
S'VBG'
p1542
F0.9865
tp1543
a(S'iPhone'
p1544
S'NNP'
p1545
F0.5806
tp1546
a(g349
g349
F0.9887
tp1547
a(S'iPad'
p1548
S'NNP'
p1549
F0.9678
tp1550
a(S'and'
p1551
S'CC'
p1552
F0.9922
tp1553
a(S'MacBook'
p1554
S'NNP'
p1555
F0.6873
tp1556
a(S'simultaneously'
p1557
S'RB'
p1558
F0.9613
tp1559
a(S'because'
p1560
S'IN'
p1561
F0.9944
tp1562
a(S'Apple'
p1563
S'NNP'
p1564
F0.9869
tp1565
a(S'sucks'
p1566
S'VBZ'
p1567
F0.9609
tp1568
ag123
tp1569
a((lp1570
(S'Good'
p1571
S'JJ'
p1572
F0.777
tp1573
a(S'job'
p1574
S'NN'
p1575
F0.9876
tp1576
a(S'for'
p1577
S'IN'
p1578
F0.999
tp1579
a(S'Apple'
p1580
S'NNP'
p1581
F0.9928
tp1582
a(S'making'
p1583
S'VBG'
p1584
F0.9894
tp1585
a(S'this'
p1586
S'DT'
p1587
F0.9956
tp1588
a(S'emoji'
p1589
S'NN'
p1590
F0.8059
tp1591
a(g232
S"''"
p1592
F0.9848
tp1593
a(S'????????'
p1594
g23
F0.8634
tp1595
a(g232
S"''"
p1596
F0.9778
tp1597
ag42
tp1598
a((lp1599
(S'RT'
p1600
S'RT'
p1601
F0.9539
tp1602
a(S'Apple'
p1603
S'NNP'
p1604
F0.969
tp1605
a(S'music'
p1606
S'NN'
p1607
F0.9733
tp1608
a(S'sucks'
p1609
S'VBZ'
p1610
F0.9667
tp1611
a(S'dude'
p1612
S'NN'
p1613
F0.9012
tp1614
ag123
tp1615
a((lp1616
(S'Life'
p1617
S'NN'
p1618
F0.9593
tp1619
a(S'is'
p1620
S'VBZ'
p1621
F0.9946
tp1622
a(S'complete'
p1623
S'JJ'
p1624
F0.8928
tp1625
a(S'now'
p1626
S'RB'
p1627
F0.9857
tp1628
a(S'that'
p1629
S'DT'
p1630
F0.593
tp1631
a(S'????????'
p1632
g23
F0.9457
tp1633
a(S'and'
p1634
S'CC'
p1635
F0.9932
tp1636
a(S'????????'
p1637
g23
F0.9201
tp1638
a(S'exist'
p1639
S'VB'
p1640
F0.6665
tp1641
a(g23
g23
F0.9928
tp1642
a(S'Good'
p1643
S'JJ'
p1644
F0.8114
tp1645
a(S'job'
p1646
S'NN'
p1647
F0.9534
tp1648
a(S'Apple'
p1649
S'NNP'
p1650
F0.9057
tp1651
a(g349
g349
F0.9897
tp1652
a(S'good'
p1653
S'JJ'
p1654
F0.9438
tp1655
a(S'job'
p1656
S'NN'
p1657
F0.9876
tp1658
a(g23
g23
F0.9969
tp1659
ag42
tp1660
a((lp1661
(g270
S'PRP'
p1662
F0.992
tp1663
a(S'just'
p1664
S'RB'
p1665
F0.9967
tp1666
a(S'typed'
p1667
S'VBD'
p1668
F0.7029
tp1669
a(S'shit'
p1670
S'NN'
p1671
F0.9394
tp1672
a(S'instead'
p1673
S'RB'
p1674
F0.833
tp1675
a(S'of'
p1676
S'IN'
p1677
F0.9762
tp1678
a(S'shirt'
p1679
S'NN'
p1680
F0.9417
tp1681
a(S'and'
p1682
S'CC'
p1683
F0.9948
tp1684
a(S'my'
p1685
S'PRP$'
p1686
F0.9927
tp1687
a(S'phone'
p1688
S'NN'
p1689
F0.9945
tp1690
a(S"didn't"
p1691
S'VBD'
p1692
F0.4138
tp1693
a(S'even'
p1694
S'RB'
p1695
F0.9875
tp1696
a(S'correct'
p1697
S'JJ'
p1698
F0.7011
tp1699
a(S'me'
p1700
S'PRP'
p1701
F0.9849
tp1702
a(g23
g23
F0.9923
tp1703
a(S'Good'
p1704
S'JJ'
p1705
F0.8114
tp1706
a(S'job'
p1707
S'NN'
p1708
F0.956
tp1709
a(S'Apple'
p1710
S'NNP'
p1711
F0.8803
tp1712
a(g23
g23
F0.996
tp1713
ag123
tp1714
a((lp1715
(S'Apple'
p1716
S'NNP'
p1717
F0.8523
tp1718
a(S'did'
p1719
S'VBD'
p1720
F0.9202
tp1721
a(g96
S'DT'
p1722
F0.9971
tp1723
a(S'good'
p1724
S'JJ'
p1725
F0.9855
tp1726
a(S'job'
p1727
S'NN'
p1728
F0.9908
tp1729
a(S'adding'
p1730
S'VBG'
p1731
F0.9871
tp1732
a(S'this'
p1733
S'DT'
p1734
F0.9956
tp1735
a(S'emoji'
p1736
S'NN'
p1737
F0.8251
tp1738
a(S'????????????????????????????????????????'
p1739
g23
F0.3071
tp1740
ag42
tp1741
a((lp1742
(S"I've"
p1743
S'PRP'
p1744
F0.936
tp1745
a(S'never'
p1746
S'RB'
p1747
F0.9871
tp1748
a(S'seen'
p1749
S'VBN'
p1750
F0.9266
tp1751
a(S'this'
p1752
S'DT'
p1753
F0.9864
tp1754
a(S'happen'
p1755
S'NN'
p1756
F0.6443
tp1757
a(S'before'
p1758
S'IN'
p1759
F0.6778
tp1760
a(g23
g23
F0.9916
tp1761
a(S'Apple'
p1762
S'NNP'
p1763
F0.8417
tp1764
a(S'products'
p1765
S'NNS'
p1766
F0.9149
tp1767
a(S'are'
p1768
S'VBP'
p1769
F0.9695
tp1770
a(S'getting'
p1771
S'VBG'
p1772
F0.9975
tp1773
a(S'worse'
p1774
S'JJ'
p1775
F0.547
tp1776
a(S'and'
p1777
S'CC'
p1778
F0.9877
tp1779
a(S'worse'
p1780
S'JJ'
p1781
F0.5717
tp1782
a(S'smh'
p1783
S'UH'
p1784
F0.841
tp1785
ag123
tp1786
a((lp1787
(S'Watching'
p1788
S'VBG'
p1789
F0.9827
tp1790
a(S'the'
p1791
S'DT'
p1792
F0.9971
tp1793
a(S'Bills'
p1794
S'NNP'
p1795
F0.8709
tp1796
a(S'game'
p1797
S'NN'
p1798
F0.7161
tp1799
a(S'on'
p1800
S'IN'
p1801
F0.9946
tp1802
a(S'my'
p1803
S'PRP$'
p1804
F0.9966
tp1805
a(S'Game'
p1806
S'NN'
p1807
F0.8009
tp1808
a(S'Pass'
p1809
S'NN'
p1810
F0.4546
tp1811
a(S'on'
p1812
S'IN'
p1813
F0.9963
tp1814
a(S'Apple'
p1815
S'NNP'
p1816
F0.9954
tp1817
a(S'TV'
p1818
S'NNP'
p1819
F0.4957
tp1820
a(S'and'
p1821
S'CC'
p1822
F0.9949
tp1823
a(S'the'
p1824
S'DT'
p1825
F0.9798
tp1826
a(S'streaming'
p1827
S'NN'
p1828
F0.933
tp1829
a(S'sucks'
p1830
S'VBZ'
p1831
F0.8029
tp1832
a(g23
g23
F0.9942
tp1833
a(g270
S'PRP'
p1834
F0.9951
tp1835
a(S'blame'
p1836
S'VBP'
p1837
F0.9153
tp1838
a(S'Yahoo'
p1839
S'NNP'
p1840
F0.9069
tp1841
a(g23
g23
F0.9937
tp1842
a(S"It's"
p1843
S'PRP'
p1844
F0.8515
tp1845
a(S'never'
p1846
S'RB'
p1847
F0.9895
tp1848
a(S'this'
p1849
S'DT'
p1850
F0.9913
tp1851
a(S'bad'
p1852
S'JJ'
p1853
F0.9814
tp1854
a(g23
g23
F0.9912
tp1855
a(S'Just'
p1856
S'RB'
p1857
F0.9986
tp1858
a(S'put'
p1859
S'VB'
p1860
F0.5789
tp1861
a(S'the'
p1862
S'DT'
p1863
F0.9894
tp1864
a(S'game'
p1865
S'NN'
p1866
F0.9866
tp1867
a(S'on'
p1868
S'IN'
p1869
F0.9962
tp1870
a(S'TV'
p1871
S'NN'
p1872
F0.4998
tp1873
a(g23
g23
F0.9979
tp1874
ag123
tp1875
a((lp1876
(S'APPLE'
p1877
S'NNP'
p1878
F0.9493
tp1879
a(S'WATCH'
p1880
S'VBP'
p1881
F0.3126
tp1882
a(S'SUCKS'
p1883
S'VBZ'
p1884
F0.7773
tp1885
a(S'via'
p1886
S'IN'
p1887
F0.6053
tp1888
ag123
tp1889
a((lp1890
(S'Good'
p1891
S'JJ'
p1892
F0.777
tp1893
a(S'job'
p1894
S'NN'
p1895
F0.902
tp1896
a(S'Apple'
p1897
S'NNP'
p1898
F0.8786
tp1899
a(S'????'
p1900
g23
F0.9742
tp1901
ag42
tp1902
a((lp1903
(S'The'
p1904
S'DT'
p1905
F0.9381
tp1906
a(S'new'
p1907
S'JJ'
p1908
F0.9628
tp1909
a(S'MacBook'
p1910
S'NN'
p1911
F0.8174
tp1912
a(S'has'
p1913
S'VBZ'
p1914
F0.9763
tp1915
a(g96
S'DT'
p1916
F0.9937
tp1917
a(S'loud'
p1918
S'JJ'
p1919
F0.922
tp1920
a(S'siren'
p1921
S'NN'
p1922
F0.9899
tp1923
a(S'that'
p1924
S'IN'
p1925
F0.4152
tp1926
a(S'alerts'
p1927
S'VBZ'
p1928
F0.8227
tp1929
a(S'the'
p1930
S'DT'
p1931
F0.9928
tp1932
a(S'other'
p1933
S'JJ'
p1934
F0.9038
tp1935
a(S'people'
p1936
S'NNS'
p1937
F0.9576
tp1938
a(S'at'
p1939
S'IN'
p1940
F0.9964
tp1941
a(S'Starbucks'
p1942
S'NNP'
p1943
F0.989
tp1944
a(S'that'
p1945
S'IN'
p1946
F0.7519
tp1947
a(S'you'
p1948
S'PRP'
p1949
F0.9978
tp1950
a(S'are'
p1951
S'VBP'
p1952
F0.9945
tp1953
a(S'writing'
p1954
S'VBG'
p1955
F0.9843
tp1956
a(S'an'
p1957
S'DT'
p1958
F0.9548
tp1959
a(S'important'
p1960
S'JJ'
p1961
F0.9193
tp1962
a(S'screenplay'
p1963
S'NN'
p1964
F0.9933
tp1965
a(g23
g23
F0.996
tp1966
ag123
tp1967
a((lp1968
(S'????'
p1969
g23
F0.8946
tp1970
a(S'Apple'
p1971
S'NNP'
p1972
F0.9613
tp1973
a(S'approved'
p1974
S'VBD'
p1975
F0.6486
tp1976
a(S'my'
p1977
S'PRP$'
p1978
F0.9934
tp1979
a(S'tvOS/iOS'
p1980
S'NNP'
p1981
F0.7164
tp1982
a(S'game'
p1983
S'NN'
p1984
F0.9451
tp1985
a(g23
g23
F0.9941
tp1986
a(S'One'
p1987
S'CD'
p1988
F0.9397
tp1989
a(S'code'
p1990
S'NN'
p1991
F0.9878
tp1992
a(S'base'
p1993
S'NN'
p1994
F0.9365
tp1995
a(S'and'
p1996
S'CC'
p1997
F0.9895
tp1998
a(S'one'
p1999
S'CD'
p2000
F0.9728
tp2001
a(S'purchase'
p2002
S'NN'
p2003
F0.8628
tp2004
a(S'runs'
p2005
S'VBZ'
p2006
F0.8287
tp2007
a(S'on'
p2008
S'IN'
p2009
F0.9658
tp2010
a(S'all'
p2011
S'DT'
p2012
F0.9954
tp2013
a(S'devices'
p2014
S'NNS'
p2015
F0.8987
tp2016
a(S'good'
p2017
S'JJ'
p2018
F0.9724
tp2019
a(S'job'
p2020
S'NN'
p2021
F0.9888
tp2022
a(g349
g349
F0.9871
tp2023
a(S'Apple'
p2024
S'NNP'
p2025
F0.9809
tp2026
a(g135
g23
F0.9872
tp2027
a(S'Any'
p2028
S'DT'
p2029
F0.8889
tp2030
a(S'journalists'
p2031
S'NNS'
p2032
F0.9857
tp2033
a(S'want'
p2034
S'VBP'
p2035
F0.9215
tp2036
a(g96
S'DT'
p2037
F0.9942
tp2038
a(S'promo'
p2039
S'NN'
p2040
F0.959
tp2041
a(S'code'
p2042
S'NN'
p2043
F0.996
tp2044
a(g452
g23
F0.9962
tp2045
ag42
tp2046
a((lp2047
(S'hey'
p2048
S'UH'
p2049
F0.9518
tp2050
a(S'can'
p2051
S'MD'
p2052
F0.9223
tp2053
a(S'you'
p2054
S'PRP'
p2055
F0.9947
tp2056
a(S'tell'
p2057
S'VBP'
p2058
F0.8185
tp2059
a(S'emoji'
p2060
S'NN'
p2061
F0.2482
tp2062
a(S'Apple'
p2063
S'NNP'
p2064
F0.8629
tp2065
a(S'good'
p2066
S'JJ'
p2067
F0.919
tp2068
a(S'job'
p2069
S'NN'
p2070
F0.9854
tp2071
a(S'?????????'
p2072
g23
F0.9823
tp2073
ag42
tp2074
a((lp2075
(S'Also'
p2076
S'RB'
p2077
F0.9805
tp2078
a(g349
g349
F0.989
tp2079
a(S'Apple'
p2080
S'NNP'
p2081
F0.9937
tp2082
a(g349
g349
F0.9858
tp2083
a(S'please'
p2084
S'UH'
p2085
F0.8919
tp2086
a(S'stop'
p2087
S'VB'
p2088
F0.8874
tp2089
a(S'changing'
p2090
S'VBG'
p2091
F0.9915
tp2092
a(S"'"
p2093
S"''"
p2094
F0.9493
tp2095
a(S'fucking'
p2096
S'VBG'
p2097
F0.4638
tp2098
a(g2093
S"''"
p2099
F0.9416
tp2100
a(S'to'
p2101
S'TO'
p2102
F0.9937
tp2103
a(g2093
S"''"
p2104
F0.8834
tp2105
a(S'ducking'
p2106
S'VBG'
p2107
F0.9272
tp2108
a(g2093
S"''"
p2109
F0.9414
tp2110
a(g349
g349
F0.9897
tp2111
a(S"you're"
p2112
S'PRP'
p2113
F0.4638
tp2114
a(S'worse'
p2115
S'JJ'
p2116
F0.4999
tp2117
a(S'than'
p2118
S'IN'
p2119
F0.9933
tp2120
a(S'my'
p2121
S'PRP$'
p2122
F0.9946
tp2123
a(S'mum'
p2124
S'NN'
p2125
F0.9354
tp2126
a(g23
g23
F0.9941
tp2127
a(S"I'm"
p2128
S'PRP'
p2129
F0.4489
tp2130
a(S'31'
p2131
S'CD'
p2132
F0.9687
tp2133
a(g349
g349
F0.9902
tp2134
a(g270
S'PRP'
p2135
F0.983
tp2136
a(S'can'
p2137
S'MD'
p2138
F0.9935
tp2139
a(S'make'
p2140
S'VB'
p2141
F0.9982
tp2142
a(S'my'
p2143
S'PRP$'
p2144
F0.995
tp2145
a(S'own'
p2146
S'JJ'
p2147
F0.9687
tp2148
a(S'decisions'
p2149
S'NNS'
p2150
F0.9939
tp2151
a(g23
g23
F0.9939
tp2152
a(S'Thanks'
p2153
S'UH'
p2154
F0.7609
tp2155
a(S'X'
p2156
S'UH'
p2157
F0.9934
tp2158
ag123
tp2159
a((lp2160
(S'Bro'
p2161
S'UH'
p2162
F0.6964
tp2163
a(S'the'
p2164
S'DT'
p2165
F0.9901
tp2166
a(S'6s'
p2167
S'NNS'
p2168
F0.8749
tp2169
a(S'and'
p2170
S'CC'
p2171
F0.9876
tp2172
a(S'6s'
p2173
S'CD'
p2174
F0.6505
tp2175
a(S'plus'
p2176
S'IN'
p2177
F0.2685
tp2178
a(S'are'
p2179
S'VBP'
p2180
F0.959
tp2181
a(S'practically'
p2182
S'RB'
p2183
F0.979
tp2184
a(S'waterproof'
p2185
S'NN'
p2186
F0.5335
tp2187
a(S'and'
p2188
S'CC'
p2189
F0.9918
tp2190
a(S'drop'
p2191
S'VB'
p2192
F0.8186
tp2193
a(S'proof'
p2194
S'NN'
p2195
F0.9163
tp2196
a(g135
g23
F0.9923
tp2197
a(S'Good'
p2198
S'JJ'
p2199
F0.8509
tp2200
a(S'job'
p2201
S'NN'
p2202
F0.9499
tp2203
a(S'Apple'
p2204
S'NNP'
p2205
F0.831
tp2206
a(g135
g23
F0.9949
tp2207
ag42
tp2208
a((lp2209
(S'#box'
p2210
S'HT'
p2211
F0.9846
tp2212
a(S'#spooky'
p2213
S'HT'
p2214
F0.9521
tp2215
a(S'_MrNiceGuy_'
p2216
S'NNP'
p2217
F0.4064
tp2218
a(g20
g20
F0.9568
tp2219
a(S'????????????????????????????????????????????'
p2220
S'UH'
p2221
F0.3203
tp2222
a(S'<-----'
p2223
S'UH'
p2224
F0.4063
tp2225
a(S'good'
p2226
S'JJ'
p2227
F0.8167
tp2228
a(S'job'
p2229
S'NN'
p2230
F0.9622
tp2231
a(S'apple'
p2232
S'NN'
p2233
F0.794
tp2234
a(g349
g349
F0.9914
tp2235
a(S'new'
p2236
S'JJ'
p2237
F0.9681
tp2238
a(S'emoji'
p2239
S'NN'
p2240
F0.7783
tp2241
a(S'lol'
p2242
S'UH'
p2243
F0.9271
tp2244
a(S'????????????'
p2245
g23
F0.9222
tp2246
ag42
tp2247
a((lp2248
(S'Not'
p2249
S'RB'
p2250
F0.9614
tp2251
a(S'gonna'
p2252
S'VBG'
p2253
F0.9692
tp2254
a(S'lie'
p2255
S'VB'
p2256
F0.9719
tp2257
a(g349
g349
F0.9868
tp2258
a(S'the'
p2259
S'DT'
p2260
F0.9891
tp2261
a(S'news'
p2262
S'NN'
p2263
F0.9584
tp2264
a(S'app'
p2265
S'NN'
p2266
F0.9688
tp2267
a(S'is'
p2268
S'VBZ'
p2269
F0.991
tp2270
a(S'actually'
p2271
S'RB'
p2272
F0.9982
tp2273
a(S'badass'
p2274
S'JJ'
p2275
F0.5979
tp2276
a(g23
g23
F0.9909
tp2277
a(S'This'
p2278
S'DT'
p2279
F0.9731
tp2280
a(S'is'
p2281
S'VBZ'
p2282
F0.9901
tp2283
a(S'exactly'
p2284
S'RB'
p2285
F0.9305
tp2286
a(S'what'
p2287
S'WP'
p2288
F0.9745
tp2289
a(S"I've"
p2290
S'PRP'
p2291
F0.9461
tp2292
a(S'been'
p2293
S'VBN'
p2294
F0.8297
tp2295
a(S'needing'
p2296
S'VBG'
p2297
F0.9855
tp2298
a(g349
g349
F0.9898
tp2299
a(S'all'
p2300
S'DT'
p2301
F0.9715
tp2302
a(S'in'
p2303
S'IN'
p2304
F0.9241
tp2305
a(S'all'
p2306
S'DT'
p2307
F0.9953
tp2308
a(S'good'
p2309
S'JJ'
p2310
F0.9428
tp2311
a(S'job'
p2312
S'NN'
p2313
F0.99
tp2314
a(S'so'
p2315
S'RB'
p2316
F0.9307
tp2317
a(S'far'
p2318
S'RB'
p2319
F0.8106
tp2320
a(S'Apple'
p2321
S'NNP'
p2322
F0.9594
tp2323
ag42
tp2324
a((lp2325
(S'The'
p2326
S'DT'
p2327
F0.9281
tp2328
a(S'good'
p2329
S'JJ'
p2330
F0.9462
tp2331
a(S'news'
p2332
S'NN'
p2333
F0.9515
tp2334
a(S'is'
p2335
S'VBZ'
p2336
F0.9914
tp2337
a(g349
g349
F0.9889
tp2338
a(S'aside'
p2339
S'RB'
p2340
F0.3986
tp2341
a(S'from'
p2342
S'IN'
p2343
F0.9986
tp2344
a(S'the'
p2345
S'DT'
p2346
F0.9954
tp2347
a(S'outrageous'
p2348
S'JJ'
p2349
F0.9706
tp2350
a(S'cost'
p2351
S'NN'
p2352
F0.9836
tp2353
a(g349
g349
F0.9897
tp2354
a(S'the'
p2355
S'DT'
p2356
F0.99
tp2357
a(S'new'
p2358
S'JJ'
p2359
F0.9871
tp2360
a(S'laptops'
p2361
S'NNS'
p2362
F0.9803
tp2363
a(S'are'
p2364
S'VBP'
p2365
F0.9724
tp2366
a(S'AMAZING'
p2367
S'JJ'
p2368
F0.9601
tp2369
a(g23
g23
F0.9914
tp2370
a(g270
S'PRP'
p2371
F0.9976
tp2372
a(S'got'
p2373
S'VBD'
p2374
F0.9688
tp2375
a(g96
S'DT'
p2376
F0.9947
tp2377
a(S'new'
p2378
S'JJ'
p2379
F0.9917
tp2380
a(S'MBP'
p2381
S'NN'
p2382
F0.767
tp2383
a(S'in'
p2384
S'IN'
p2385
F0.9966
tp2386
a(S'June'
p2387
S'NNP'
p2388
F0.9973
tp2389
a(S'and'
p2390
S'CC'
p2391
F0.9953
tp2392
a(S"it's"
p2393
S'PRP'
p2394
F0.8157
tp2395
a(S'the'
p2396
S'DT'
p2397
F0.9927
tp2398
a(S'best'
p2399
S'JJS'
p2400
F0.944
tp2401
a(g23
g23
F0.9949
tp2402
ag42
tp2403
a((lp2404
(S'Apple'
p2405
S'NNP'
p2406
F0.9095
tp2407
a(S'iCloud'
p2408
S'NNP'
p2409
F0.9725
tp2410
a(S'sucks'
p2411
S'VBZ'
p2412
F0.965
tp2413
a(g96
S'DT'
p2414
F0.9925
tp2415
a(S'huge'
p2416
S'JJ'
p2417
F0.988
tp2418
a(S'dick'
p2419
S'NN'
p2420
F0.8841
tp2421
a(S'????????????'
p2422
g23
F0.9733
tp2423
ag123
tp2424
a((lp2425
(S'Good'
p2426
S'JJ'
p2427
F0.777
tp2428
a(S'job'
p2429
S'NN'
p2430
F0.9364
tp2431
a(S'Apple'
p2432
S'NNP'
p2433
F0.8231
tp2434
a(S'you'
p2435
S'PRP'
p2436
F0.9972
tp2437
a(S'finally'
p2438
S'RB'
p2439
F0.9948
tp2440
a(S'gave'
p2441
S'VBD'
p2442
F0.6802
tp2443
a(S'me'
p2444
S'PRP'
p2445
F0.997
tp2446
a(g96
S'DT'
p2447
F0.9878
tp2448
a(S'middle'
p2449
S'NN'
p2450
F0.9597
tp2451
a(S'finger'
p2452
S'NN'
p2453
F0.9885
tp2454
a(S'emoji'
p2455
S'NN'
p2456
F0.6629
tp2457
ag42
tp2458
a((lp2459
(S'Good'
p2460
S'JJ'
p2461
F0.777
tp2462
a(S'job'
p2463
S'NN'
p2464
F0.9905
tp2465
a(g349
g349
F0.9866
tp2466
a(S'Apple'
p2467
S'NNP'
p2468
F0.9887
tp2469
a(g23
g23
F0.9926
tp2470
a(S'IOS'
p2471
S'NNP'
p2472
F0.7442
tp2473
a(S'9.1'
p2474
S'CD'
p2475
F0.8277
tp2476
a(g135
g23
F0.9925
tp2477
ag42
tp2478
a((lp2479
(S'apple'
p2480
S'NNP'
p2481
F0.8195
tp2482
a(S'music'
p2483
S'NN'
p2484
F0.9391
tp2485
a(S'sucks'
p2486
S'VBZ'
p2487
F0.9708
tp2488
a(S'donkey'
p2489
S'NN'
p2490
F0.9713
tp2491
a(S'dick'
p2492
S'NN'
p2493
F0.9205
tp2494
a(g23
g23
F0.9922
tp2495
a(S'????????'
p2496
g23
F0.9337
tp2497
a(S'why'
p2498
S'WRB'
p2499
F0.9428
tp2500
a(S"can't"
p2501
S'MD'
p2502
F0.7979
tp2503
a(g270
S'PRP'
p2504
F0.9682
tp2505
a(S'access'
p2506
S'VBP'
p2507
F0.892
tp2508
a(S'my'
p2509
S'PRP$'
p2510
F0.9939
tp2511
a(S'music'
p2512
S'NN'
p2513
F0.992
tp2514
a(g452
g23
F0.9962
tp2515
ag123
tp2516
a((lp2517
(S'These'
p2518
S'DT'
p2519
F0.9726
tp2520
a(S'new'
p2521
S'JJ'
p2522
F0.9899
tp2523
a(S'emojis'
p2524
S'NNS'
p2525
F0.9844
tp2526
a(S'are'
p2527
S'VBP'
p2528
F0.9761
tp2529
a(S'cute'
p2530
S'JJ'
p2531
F0.9876
tp2532
a(S'..'
p2533
g20
F0.9552
tp2534
a(S'Good'
p2535
S'JJ'
p2536
F0.7579
tp2537
a(S'job'
p2538
S'NN'
p2539
F0.957
tp2540
a(S'Apple'
p2541
S'NNP'
p2542
F0.835
tp2543
a(S'????'
p2544
g23
F0.9735
tp2545
ag42
tp2546
a((lp2547
(S'My'
p2548
S'PRP$'
p2549
F0.8295
tp2550
a(S'Apple'
p2551
S'NNP'
p2552
F0.9842
tp2553
a(S'Pay'
p2554
S'NNP'
p2555
F0.4395
tp2556
a(S'sucks'
p2557
S'VBZ'
p2558
F0.9256
tp2559
a(S'too'
p2560
S'RB'
p2561
F0.9308
tp2562
a(S'in'
p2563
S'IN'
p2564
F0.9697
tp2565
a(S'uk'
p2566
S'NN'
p2567
F0.6592
tp2568
a(S'for'
p2569
S'IN'
p2570
F0.9981
tp2571
a(S'Barclays'
p2572
S'NNP'
p2573
F0.9968
tp2574
ag123
tp2575
a((lp2576
(S'Apple'
p2577
S'NNP'
p2578
F0.8557
tp2579
a(S'being'
p2580
S'VBG'
p2581
F0.9695
tp2582
a(S'sued'
p2583
S'VBN'
p2584
F0.8088
tp2585
a(S'because'
p2586
S'IN'
p2587
F0.9817
tp2588
a(S'of'
p2589
S'IN'
p2590
F0.9696
tp2591
a(S'Wi-Fi'
p2592
S'NNP'
p2593
F0.96
tp2594
a(S'Assist'
p2595
S'NNP'
p2596
F0.9148
tp2597
a(g23
g23
F0.9921
tp2598
a(S'Did'
p2599
S'VBD'
p2600
F0.6305
tp2601
a(S'they'
p2602
S'PRP'
p2603
F0.967
tp2604
a(S'ever'
p2605
S'RB'
p2606
F0.9521
tp2607
a(S'get'
p2608
S'VBP'
p2609
F0.4987
tp2610
a(S'sued'
p2611
S'VBN'
p2612
F0.9003
tp2613
a(S'for'
p2614
S'IN'
p2615
F0.9958
tp2616
a(S'iOS'
p2617
S'NNP'
p2618
F0.9774
tp2619
a(S'8.0.1'
p2620
S'CD'
p2621
F0.4906
tp2622
a(S'which'
p2623
S'WDT'
p2624
F0.8586
tp2625
a(S'killed'
p2626
S'VBD'
p2627
F0.6104
tp2628
a(S'cellular'
p2629
S'JJ'
p2630
F0.9202
tp2631
a(S'services'
p2632
S'NNS'
p2633
F0.9664
tp2634
a(S'for'
p2635
S'IN'
p2636
F0.998
tp2637
a(g96
S'DT'
p2638
F0.9972
tp2639
a(S'day'
p2640
S'NN'
p2641
F0.9986
tp2642
a(g452
g23
F0.9946
tp2643
a(S'Was'
p2644
S'VBD'
p2645
F0.9099
tp2646
a(S'worse'
p2647
S'JJ'
p2648
F0.602
tp2649
a(g23
g23
F0.9947
tp2650
ag123
tp2651
a((lp2652
(S'Dear'
p2653
S'UH'
p2654
F0.7271
tp2655
a(S'Apple'
p2656
S'NNP'
p2657
F0.936
tp2658
a(g349
g349
F0.989
tp2659
a(S'closed'
p2660
S'JJ'
p2661
F0.6384
tp2662
a(S'systems'
p2663
S'NNS'
p2664
F0.9226
tp2665
a(S'are'
p2666
S'VBP'
p2667
F0.959
tp2668
a(S'worse'
p2669
S'JJ'
p2670
F0.6404
tp2671
a(g23
g23
F0.992
tp2672
ag123
tp2673
a((lp2674
(g270
S'PRP'
p2675
F0.9957
tp2676
a(S'changed'
p2677
S'VBD'
p2678
F0.9588
tp2679
a(S'from'
p2680
S'IN'
p2681
F0.9981
tp2682
a(g96
S'DT'
p2683
F0.9941
tp2684
a(S'15.4'
p2685
S'CD'
p2686
F0.9042
tp2687
a(g232
S"''"
p2688
F0.9892
tp2689
a(S'Acer'
p2690
S'NNP'
p2691
F0.9658
tp2692
a(S'to'
p2693
S'TO'
p2694
F0.9939
tp2695
a(S'my'
p2696
S'PRP$'
p2697
F0.9782
tp2698
a(S'13'
p2699
S'CD'
p2700
F0.9144
tp2701
a(g232
S"''"
p2702
F0.9838
tp2703
a(S'MBP'
p2704
S'NNP'
p2705
F0.59
tp2706
a(g349
g349
F0.9885
tp2707
a(g270
S'PRP'
p2708
F0.9908
tp2709
a(S'think'
p2710
S'VBP'
p2711
F0.9915
tp2712
a(S"it's"
p2713
S'PRP'
p2714
F0.9698
tp2715
a(S'just'
p2716
S'RB'
p2717
F0.9996
tp2718
a(S'good'
p2719
S'JJ'
p2720
F0.9778
tp2721
a(S'enough'
p2722
S'RB'
p2723
F0.746
tp2724
a(g23
g23
F0.987
tp2725
a(S"You'll"
p2726
S'PRP'
p2727
F0.8897
tp2728
a(S'enjoy'
p2729
S'VB'
p2730
F0.7813
tp2731
a(S'it'
p2732
S'PRP'
p2733
F0.9973
tp2734
a(S'once'
p2735
S'RB'
p2736
F0.786
tp2737
a(S'you'
p2738
S'PRP'
p2739
F0.9975
tp2740
a(S'get'
p2741
S'VBP'
p2742
F0.9593
tp2743
a(S'used'
p2744
S'VBN'
p2745
F0.7068
tp2746
a(S'to'
p2747
S'TO'
p2748
F0.9897
tp2749
a(S'it'
p2750
S'PRP'
p2751
F0.9937
tp2752
a(g23
g23
F0.9952
tp2753
ag42
tp2754
a((lp2755
(S'Looks'
p2756
S'VBZ'
p2757
F0.6173
tp2758
a(S'like'
p2759
S'IN'
p2760
F0.7532
tp2761
a(S'no'
p2762
S'DT'
p2763
F0.9353
tp2764
a(S'Apple'
p2765
S'NNP'
p2766
F0.9417
tp2767
a(S'Tv'
p2768
S'NNP'
p2769
F0.7724
tp2770
a(S'till'
p2771
S'IN'
p2772
F0.9661
tp2773
a(S'later'
p2774
S'RB'
p2775
F0.8528
tp2776
a(S'today'
p2777
S'NN'
p2778
F0.9907
tp2779
a(g23
g23
F0.996
tp2780
a(S'Thats'
p2781
S'WDT'
p2782
F0.2336
tp2783
a(S'sucks'
p2784
S'VBZ'
p2785
F0.8884
tp2786
a(S'butt'
p2787
S'NN'
p2788
F0.9579
tp2789
ag123
tp2790
a((lp2791
(S'Apple'
p2792
S'NNP'
p2793
F0.9036
tp2794
a(S'TV'
p2795
S'NNP'
p2796
F0.8267
tp2797
a(S'2015'
p2798
S'CD'
p2799
F0.6965
tp2800
a(S'review'
p2801
S'NN'
p2802
F0.9791
tp2803
a(g20
g20
F0.9695
tp2804
a(S'Fast'
p2805
S'RB'
p2806
F0.5114
tp2807
a(S'and'
p2808
S'CC'
p2809
F0.9893
tp2810
a(S'easy'
p2811
S'JJ'
p2812
F0.9097
tp2813
a(S'to'
p2814
S'TO'
p2815
F0.9954
tp2816
a(S'navigate'
p2817
S'VB'
p2818
F0.9865
tp2819
a(g349
g349
F0.9868
tp2820
a(S'but'
p2821
S'CC'
p2822
F0.9939
tp2823
a(S'keyboard'
p2824
S'NN'
p2825
F0.8972
tp2826
a(S'worse'
p2827
S'JJ'
p2828
F0.3493
tp2829
a(g349
g349
F0.9893
tp2830
a(S'Siri'
p2831
S'NNP'
p2832
F0.9995
tp2833
a(S'limited'
p2834
S'JJ'
p2835
F0.3843
tp2836
a(g349
g349
F0.9885
tp2837
a(S'feels'
p2838
S'VBZ'
p2839
F0.8515
tp2840
a(S'like'
p2841
S'IN'
p2842
F0.7121
tp2843
a(S'first'
p2844
S'JJ'
p2845
F0.9491
tp2846
a(S'effort'
p2847
S'NN'
p2848
F0.9867
tp2849
a(S'in'
p2850
S'IN'
p2851
F0.9817
tp2852
a(S'new'
p2853
S'JJ'
p2854
F0.9676
tp2855
ag123
tp2856
a((lp2857
(S'Apple'
p2858
S'NNP'
p2859
F0.9625
tp2860
a(S'Music'
p2861
S'NNP'
p2862
F0.6717
tp2863
a(S'sucks'
p2864
S'VBZ'
p2865
F0.9659
tp2866
a(S'u'
p2867
S'PRP'
p2868
F0.9922
tp2869
a(S'need'
p2870
S'VBP'
p2871
F0.9772
tp2872
a(S'Spotify'
p2873
S'NNP'
p2874
F0.9755
tp2875
a(S'premium'
p2876
S'NN'
p2877
F0.7482
tp2878
ag123
tp2879
a((lp2880
(S'android'
p2881
S'NNP'
p2882
F0.9186
tp2883
a(S'master'
p2884
S'NN'
p2885
F0.5372
tp2886
a(S'race'
p2887
S'NN'
p2888
F0.8018
tp2889
a(S'apple'
p2890
S'NN'
p2891
F0.7886
tp2892
a(S'sucks'
p2893
S'VBZ'
p2894
F0.9805
tp2895
ag123
tp2896
a((lp2897
(S'Placing'
p2898
S'VBG'
p2899
F0.9925
tp2900
a(g96
S'DT'
p2901
F0.9959
tp2902
a(S'geometry'
p2903
S'NN'
p2904
F0.9799
tp2905
a(S'node'
p2906
S'NN'
p2907
F0.8688
tp2908
a(S'in'
p2909
S'IN'
p2910
F0.9941
tp2911
a(S'Houdini'
p2912
S'NNP'
p2913
F0.9953
tp2914
a(S'15'
p2915
S'CD'
p2916
F0.9702
tp2917
a(S'on'
p2918
S'IN'
p2919
F0.9919
tp2920
a(S'my'
p2921
S'PRP$'
p2922
F0.9966
tp2923
a(S'MBP'
p2924
S'NN'
p2925
F0.6426
tp2926
a(S'makes'
p2927
S'VBZ'
p2928
F0.9632
tp2929
a(S'it'
p2930
S'PRP'
p2931
F0.9943
tp2932
a(S'crash'
p2933
S'NN'
p2934
F0.668
tp2935
a(g23
g23
F0.9915
tp2936
a(S'Off'
p2937
S'RP'
p2938
F0.5035
tp2939
a(S'to'
p2940
S'TO'
p2941
F0.9958
tp2942
a(g96
S'DT'
p2943
F0.993
tp2944
a(S'good'
p2945
S'JJ'
p2946
F0.973
tp2947
a(S'start'
p2948
S'NN'
p2949
F0.926
tp2950
a(g23
g23
F0.9936
tp2951
ag123
tp2952
a((lp2953
(S'RT'
p2954
S'RT'
p2955
F0.9539
tp2956
a(S'Apple'
p2957
S'NNP'
p2958
F0.9861
tp2959
a(S'CEO'
p2960
S'NNP'
p2961
F0.8249
tp2962
a(S'Tim'
p2963
S'NNP'
p2964
F0.9998
tp2965
a(S'Cook'
p2966
S'NNP'
p2967
F0.7943
tp2968
a(g20
g20
F0.9655
tp2969
a(S'Apple'
p2970
S'NNP'
p2971
F0.9723
tp2972
a(S'Music'
p2973
S'NN'
p2974
F0.521
tp2975
a(S'Has'
p2976
S'VBZ'
p2977
F0.9834
tp2978
a(S'15'
p2979
S'CD'
p2980
F0.9816
tp2981
a(S'Million'
p2982
S'NNP'
p2983
F0.3098
tp2984
a(S'Users'
p2985
S'NNP'
p2986
F0.5031
tp2987
a(S'/'
p2988
g20
F0.2499
tp2989
a(S'#AppleMusic'
p2990
S'HT'
p2991
F0.971
tp2992
a(S'sucks'
p2993
S'VBZ'
p2994
F0.951
tp2995
a(S'yo'
p2996
S'UH'
p2997
F0.4296
tp2998
a(S'????!'
p2999
g23
F0.9541
tp3000
a(S'It'
p3001
S'PRP'
p3002
F0.9964
tp3003
a(S'ruined'
p3004
S'VBD'
p3005
F0.9703
tp3006
a(S'my'
p3007
S'PRP$'
p3008
F0.9962
tp3009
a(S'music'
p3010
S'NN'
p3011
F0.9962
tp3012
a(S'flow'
p3013
S'NN'
p3014
F0.9804
tp3015
a(g135
g23
F0.9976
tp3016
ag123
tp3017
a((lp3018
(g270
S'PRP'
p3019
F0.9945
tp3020
a(S'like'
p3021
S'VBP'
p3022
F0.7259
tp3023
a(S'the'
p3024
S'DT'
p3025
F0.9851
tp3026
a(S'look'
p3027
S'NN'
p3028
F0.807
tp3029
a(S'of'
p3030
S'IN'
p3031
F0.9937
tp3032
a(S'Apple'
p3033
S'NNP'
p3034
F0.9919
tp3035
a(S'watch'
p3036
S'NN'
p3037
F0.4918
tp3038
a(g349
g349
F0.9886
tp3039
a(g270
S'PRP'
p3040
F0.9903
tp3041
a(S'do'
p3042
S'VBP'
p3043
F0.995
tp3044
a(S'not'
p3045
S'RB'
p3046
F0.9972
tp3047
a(S'like'
p3048
S'IN'
p3049
F0.8953
tp3050
a(S'Apple'
p3051
S'NNP'
p3052
F0.988
tp3053
a(S'watch'
p3054
S'VB'
p3055
F0.3261
tp3056
a(S'functionality'
p3057
S'NN'
p3058
F0.4069
tp3059
a(S'sucks'
p3060
S'VBZ'
p3061
F0.9369
tp3062
a(S'..'
p3063
g20
F0.9491
tp3064
a(S'the'
p3065
S'DT'
p3066
F0.9895
tp3067
a(S'only'
p3068
S'JJ'
p3069
F0.839
tp3070
a(S'thing'
p3071
S'NN'
p3072
F0.955
tp3073
a(g270
S'PRP'
p3074
F0.9845
tp3075
a(S'like'
p3076
S'VBP'
p3077
F0.7468
tp3078
a(S'is'
p3079
S'VBZ'
p3080
F0.9855
tp3081
a(S'how'
p3082
S'WRB'
p3083
F0.9324
tp3084
a(S'easy'
p3085
S'JJ'
p3086
F0.9642
tp3087
a(S'it'
p3088
S'PRP'
p3089
F0.9833
tp3090
a(S'is'
p3091
S'VBZ'
p3092
F0.9979
tp3093
a(S'to'
p3094
S'TO'
p3095
F0.9961
tp3096
a(S'crash'
p3097
S'VB'
p3098
F0.9297
tp3099
a(S'remotely'
p3100
S'RB'
p3101
F0.9901
tp3102
ag123
tp3103
a((lp3104
(S'iOS'
p3105
S'NNP'
p3106
F0.8207
tp3107
a(S'9'
p3108
S'CD'
p3109
F0.9191
tp3110
a(S'is'
p3111
S'VBZ'
p3112
F0.9856
tp3113
a(S'already'
p3114
S'RB'
p3115
F0.998
tp3116
a(S'simultaneously'
p3117
S'RB'
p3118
F0.9931
tp3119
a(S'more'
p3120
S'RBR'
p3121
F0.6917
tp3122
a(S'and'
p3123
S'CC'
p3124
F0.9885
tp3125
a(S'less'
p3126
S'JJR'
p3127
F0.5602
tp3128
a(S'buggy'
p3129
S'NN'
p3130
F0.5547
tp3131
a(S'than'
p3132
S'IN'
p3133
F0.9843
tp3134
a(S'iOS'
p3135
S'NNP'
p3136
F0.942
tp3137
a(S'8'
p3138
S'CD'
p3139
F0.9367
tp3140
a(S'by'
p3141
S'IN'
p3142
F0.9864
tp3143
a(S'my'
p3144
S'PRP$'
p3145
F0.9862
tp3146
a(S'count'
p3147
S'NN'
p3148
F0.9659
tp3149
a(g23
g23
F0.9928
tp3150
a(S'Good'
p3151
S'JJ'
p3152
F0.81
tp3153
a(S'job'
p3154
S'NN'
p3155
F0.9744
tp3156
a(S'apple'
p3157
S'NN'
p3158
F0.7441
tp3159
ag42
tp3160
a((lp3161
(S'hate'
p3162
S'VBP'
p3163
F0.9763
tp3164
a(S'to'
p3165
S'TO'
p3166
F0.9979
tp3167
a(S'say'
p3168
S'VB'
p3169
F0.9966
tp3170
a(S'it'
p3171
S'PRP'
p3172
F0.9886
tp3173
a(S'guys'
p3174
S'NNS'
p3175
F0.9824
tp3176
a(g23
g23
F0.9974
tp3177
a(S'What'
p3178
S'WP'
p3179
F0.9567
tp3180
a(S'Mac'
p3181
S'NNP'
p3182
F0.977
tp3183
a(S'do'
p3184
S'VBP'
p3185
F0.9636
tp3186
a(S'you'
p3187
S'PRP'
p3188
F0.9993
tp3189
a(S'have'
p3190
S'VBP'
p3191
F0.97
tp3192
a(g23
g23
F0.9927
tp3193
a(g270
S'PRP'
p3194
F0.9975
tp3195
a(S'had'
p3196
S'VBD'
p3197
F0.9918
tp3198
a(S'this'
p3199
S'DT'
p3200
F0.9965
tp3201
a(S'EXACT'
p3202
S'JJ'
p3203
F0.9654
tp3204
a(S'problem'
p3205
S'NN'
p3206
F0.9842
tp3207
a(S'on'
p3208
S'IN'
p3209
F0.9951
tp3210
a(S'my'
p3211
S'PRP$'
p3212
F0.9966
tp3213
a(S'MBP'
p3214
S'NNP'
p3215
F0.4994
tp3216
a(g863
g20
F0.9838
tp3217
a(S'it'
p3218
S'PRP'
p3219
F0.9964
tp3220
a(S'was'
p3221
S'VBD'
p3222
F0.9812
tp3223
a(S'the'
p3224
S'DT'
p3225
F0.9949
tp3226
a(S'motherboard'
p3227
S'NN'
p3228
F0.9589
tp3229
a(g23
g23
F0.9945
tp3230
a(S'Good'
p3231
S'JJ'
p3232
F0.8572
tp3233
a(S'luck'
p3234
S'NN'
p3235
F0.9535
tp3236
ag123
tp3237
a((lp3238
(g270
S'PRP'
p3239
F0.9968
tp3240
a(S"didn't"
p3241
S'VBD'
p3242
F0.4645
tp3243
a(S'even'
p3244
S'RB'
p3245
F0.9905
tp3246
a(S'know'
p3247
S'VBP'
p3248
F0.5259
tp3249
a(S'there'
p3250
S'EX'
p3251
F0.5143
tp3252
a(S'was'
p3253
S'VBD'
p3254
F0.9794
tp3255
a(S'an'
p3256
S'DT'
p3257
F0.9464
tp3258
a(S'update'
p3259
S'NN'
p3260
F0.9923
tp3261
a(S'wtf'
p3262
S'UH'
p3263
F0.5255
tp3264
a(S'good'
p3265
S'JJ'
p3266
F0.8891
tp3267
a(S'job'
p3268
S'NN'
p3269
F0.9622
tp3270
a(S'apple'
p3271
S'NN'
p3272
F0.6894
tp3273
a(S'way'
p3274
S'NN'
p3275
F0.9406
tp3276
a(S'to'
p3277
S'TO'
p3278
F0.9966
tp3279
a(S'notify'
p3280
S'VB'
p3281
F0.9992
tp3282
a(S'me'
p3283
S'PRP'
p3284
F0.9951
tp3285
ag123
tp3286
a((lp3287
(S'Updated'
p3288
S'VBN'
p3289
F0.4894
tp3290
a(S'to'
p3291
S'TO'
p3292
F0.9935
tp3293
a(S'9.1'
p3294
S'CD'
p3295
F0.6817
tp3296
a(S'on'
p3297
S'IN'
p3298
F0.9872
tp3299
a(S'my'
p3300
S'PRP$'
p3301
F0.9963
tp3302
a(S'iPhone'
p3303
S'NN'
p3304
F0.4918
tp3305
a(g349
g349
F0.9892
tp3306
a(S'El'
p3307
S'NNP'
p3308
F0.99
tp3309
a(S'Capitan'
p3310
S'NNP'
p3311
F0.9991
tp3312
a(S'on'
p3313
S'IN'
p3314
F0.9896
tp3315
a(S'my'
p3316
S'PRP$'
p3317
F0.9966
tp3318
a(S'MBP'
p3319
S'NN'
p3320
F0.5798
tp3321
a(g23
g23
F0.9926
tp3322
a(S'Life'
p3323
S'NN'
p3324
F0.9094
tp3325
a(S'is'
p3326
S'VBZ'
p3327
F0.9936
tp3328
a(S'good'
p3329
S'JJ'
p3330
F0.9179
tp3331
a(g23
g23
F0.9926
tp3332
ag42
tp3333
a((lp3334
(S'Had'
p3335
S'VBD'
p3336
F0.8893
tp3337
a(S'had'
p3338
S'VBD'
p3339
F0.8489
tp3340
a(g96
S'DT'
p3341
F0.9953
tp3342
a(S'bad'
p3343
S'JJ'
p3344
F0.9981
tp3345
a(S'week'
p3346
S'NN'
p3347
F0.9934
tp3348
a(S'with'
p3349
S'IN'
p3350
F0.9985
tp3351
a(S'my'
p3352
S'PRP$'
p3353
F0.9874
tp3354
a(S'iphone'
p3355
S'NN'
p3356
F0.947
tp3357
a(g23
g23
F0.9943
tp3358
a(S'Broke'
p3359
S'VBD'
p3360
F0.4223
tp3361
a(S'on'
p3362
S'IN'
p3363
F0.9931
tp3364
a(S'friday'
p3365
S'NNP'
p3366
F0.9674
tp3367
a(g349
g349
F0.9883
tp3368
a(S'leaving'
p3369
S'VBG'
p3370
F0.9904
tp3371
a(S'me'
p3372
S'PRP'
p3373
F0.9912
tp3374
a(S'without'
p3375
S'IN'
p3376
F0.9901
tp3377
a(g96
S'DT'
p3378
F0.997
tp3379
a(S'phone'
p3380
S'NN'
p3381
F0.9968
tp3382
a(S'for'
p3383
S'IN'
p3384
F0.9965
tp3385
a(S'4'
p3386
S'CD'
p3387
F0.9162
tp3388
a(S'days'
p3389
S'NNS'
p3390
F0.9842
tp3391
a(g23
g23
F0.9946
tp3392
a(S"Apple's"
p3393
S'NNP'
p3394
F0.4647
tp3395
a(S'attempts'
p3396
S'NNS'
p3397
F0.8782
tp3398
a(S'to'
p3399
S'TO'
p3400
F0.9957
tp3401
a(S'fix'
p3402
S'VB'
p3403
F0.9797
tp3404
a(g349
g349
F0.9879
tp3405
a(S'only'
p3406
S'RB'
p3407
F0.8661
tp3408
a(S'made'
p3409
S'VBD'
p3410
F0.6109
tp3411
a(S'things'
p3412
S'NNS'
p3413
F0.9677
tp3414
a(S'worse'
p3415
S'JJ'
p3416
F0.3632
tp3417
a(g135
g23
F0.9955
tp3418
ag123
tp3419
a((lp3420
(S'RT'
p3421
S'RT'
p3422
F0.9539
tp3423
a(S'Apple'
p3424
S'NNP'
p3425
F0.9932
tp3426
a(S'Music'
p3427
S'NNP'
p3428
F0.5925
tp3429
a(S'sucks'
p3430
S'VBZ'
p3431
F0.9268
tp3432
ag123
tp3433
a((lp3434
(S'apple'
p3435
S'NNP'
p3436
F0.7966
tp3437
a(S'sucks'
p3438
S'VBZ'
p3439
F0.9784
tp3440
a(S'im'
p3441
S'PRP'
p3442
F0.9653
tp3443
a(S'so'
p3444
S'RB'
p3445
F0.9466
tp3446
a(S'over'
p3447
S'IN'
p3448
F0.9389
tp3449
a(S'restarting'
p3450
S'VBG'
p3451
F0.9895
tp3452
a(S'my'
p3453
S'PRP$'
p3454
F0.9968
tp3455
a(S'phone'
p3456
S'NN'
p3457
F0.9959
tp3458
a(S'100'
p3459
S'CD'
p3460
F0.9787
tp3461
a(S'times'
p3462
S'NNS'
p3463
F0.9538
tp3464
a(g96
S'DT'
p3465
F0.9928
tp3466
a(S'day'
p3467
S'NN'
p3468
F0.9987
tp3469
ag123
tp3470
a((lp3471
(S'Oh'
p3472
S'UH'
p3473
F0.9914
tp3474
a(g349
g349
F0.9858
tp3475
a(S'cool'
p3476
S'JJ'
p3477
F0.94
tp3478
a(g23
g23
F0.9926
tp3479
a(S'Im'
p3480
S'PRP'
p3481
F0.9575
tp3482
a(S'actually'
p3483
S'RB'
p3484
F0.9992
tp3485
a(S'interested'
p3486
S'VBN'
p3487
F0.3526
tp3488
a(S'in'
p3489
S'IN'
p3490
F0.9895
tp3491
a(S'it'
p3492
S'PRP'
p3493
F0.9848
tp3494
a(g349
g349
F0.9887
tp3495
a(S'but'
p3496
S'CC'
p3497
F0.9976
tp3498
a(S'so'
p3499
S'RB'
p3500
F0.9696
tp3501
a(S'far'
p3502
S'RB'
p3503
F0.9204
tp3504
a(S'the'
p3505
S'DT'
p3506
F0.9949
tp3507
a(S'Surface'
p3508
S'NN'
p3509
F0.8508
tp3510
a(g1385
S'CD'
p3511
F0.9147
tp3512
a(S'and'
p3513
S'CC'
p3514
F0.9949
tp3515
a(S'my'
p3516
S'PRP$'
p3517
F0.9892
tp3518
a(S'MBP'
p3519
S'NN'
p3520
F0.5056
tp3521
a(S'seems'
p3522
S'VBZ'
p3523
F0.9068
tp3524
a(S'good'
p3525
S'JJ'
p3526
F0.9592
tp3527
a(S'enough'
p3528
S'RB'
p3529
F0.734
tp3530
a(g23
g23
F0.9934
tp3531
ag42
tp3532
a((lp3533
(S'Good'
p3534
S'JJ'
p3535
F0.777
tp3536
a(S'job'
p3537
S'NN'
p3538
F0.9364
tp3539
a(S'Apple'
p3540
S'NNP'
p3541
F0.8231
tp3542
a(S'you'
p3543
S'PRP'
p3544
F0.9972
tp3545
a(S'finally'
p3546
S'RB'
p3547
F0.9949
tp3548
a(S'added'
p3549
S'VBN'
p3550
F0.4909
tp3551
a(S'the'
p3552
S'DT'
p3553
F0.9927
tp3554
a(S'middle'
p3555
S'NN'
p3556
F0.9732
tp3557
a(S'finger'
p3558
S'NN'
p3559
F0.9897
tp3560
a(g349
g349
F0.9907
tp3561
a(S'unicorns'
p3562
S'NNS'
p3563
F0.4235
tp3564
a(g349
g349
F0.9919
tp3565
a(S'and'
p3566
S'CC'
p3567
F0.997
tp3568
a(S'field'
p3569
S'NN'
p3570
F0.9213
tp3571
a(S'hockey'
p3572
S'NN'
p3573
F0.9906
tp3574
a(S'to'
p3575
S'TO'
p3576
F0.9845
tp3577
a(S'the'
p3578
S'DT'
p3579
F0.9968
tp3580
a(S'emojis'
p3581
S'NNS'
p3582
F0.981
tp3583
a(S'.????????????'
p3584
g23
F0.2148
tp3585
ag42
tp3586
a((lp3587
(S'that'
p3588
S'DT'
p3589
F0.3632
tp3590
a(S'sucks'
p3591
S'VBZ'
p3592
F0.986
tp3593
a(S':('
p3594
S'UH'
p3595
F0.9082
tp3596
a(S"it's"
p3597
S'PRP'
p3598
F0.8195
tp3599
a(S'usually'
p3600
S'RB'
p3601
F0.996
tp3602
a(S'reserved'
p3603
S'VBN'
p3604
F0.7248
tp3605
a(S'for'
p3606
S'IN'
p3607
F0.9941
tp3608
a(S'people'
p3609
S'NNS'
p3610
F0.9672
tp3611
a(S'with'
p3612
S'IN'
p3613
F0.9995
tp3614
a(S'Apple'
p3615
S'NNP'
p3616
F0.9972
tp3617
a(S'Care'
p3618
S'NNP'
p3619
F0.7706
tp3620
a(g349
g349
F0.984
tp3621
a(S'though'
p3622
S'RB'
p3623
F0.6881
tp3624
a(g23
g23
F0.9969
tp3625
ag123
tp3626
a((lp3627
(S'Good'
p3628
S'JJ'
p3629
F0.777
tp3630
a(S'job'
p3631
S'NN'
p3632
F0.902
tp3633
a(S'Apple'
p3634
S'NNP'
p3635
F0.8786
tp3636
a(S'????????'
p3637
g23
F0.9743
tp3638
ag42
tp3639
a((lp3640
(S'RT'
p3641
S'RT'
p3642
F0.9493
tp3643
a(S'Good'
p3644
S'JJ'
p3645
F0.7994
tp3646
a(S'job'
p3647
S'NN'
p3648
F0.9502
tp3649
a(S'Apple'
p3650
S'NNP'
p3651
F0.8952
tp3652
a(g23
g23
F0.9931
tp3653
a(S'These'
p3654
S'DT'
p3655
F0.9764
tp3656
a(S'emojis'
p3657
S'NNS'
p3658
F0.9654
tp3659
a(S'lit'
p3660
S'NN'
p3661
F0.2589
tp3662
a(S'????'
p3663
g23
F0.9798
tp3664
ag42
tp3665
a((lp3666
(S'that'
p3667
S'DT'
p3668
F0.3632
tp3669
a(S'sucks'
p3670
S'VBZ'
p3671
F0.985
tp3672
a(S'man'
p3673
S'NN'
p3674
F0.9021
tp3675
a(S'keep'
p3676
S'VB'
p3677
F0.8386
tp3678
a(S'me'
p3679
S'PRP'
p3680
F0.9971
tp3681
a(S'updated'
p3682
S'VBD'
p3683
F0.6831
tp3684
a(S'on'
p3685
S'IN'
p3686
F0.9815
tp3687
a(S'advancemets'
p3688
S'NNS'
p3689
F0.3667
tp3690
a(S'towards'
p3691
S'IN'
p3692
F0.9758
tp3693
a(S'unlocking'
p3694
S'VBG'
p3695
F0.9871
tp3696
a(S'this'
p3697
S'DT'
p3698
F0.9965
tp3699
a(S'crap'
p3700
S'NN'
p3701
F0.9761
tp3702
a(g135
g23
F0.9932
tp3703
a(S'Apple'
p3704
S'NNP'
p3705
F0.9313
tp3706
a(S'sucks'
p3707
S'VBZ'
p3708
F0.9492
tp3709
a(S'balls'
p3710
S'NNS'
p3711
F0.9766
tp3712
a(S'for'
p3713
S'IN'
p3714
F0.9981
tp3715
a(S'icloud'
p3716
S'NNP'
p3717
F0.4989
tp3718
ag123
tp3719
a((lp3720
(S'Theres'
p3721
S'EX'
p3722
F0.2159
tp3723
a(g96
S'DT'
p3724
F0.9958
tp3725
a(S'lot'
p3726
S'NN'
p3727
F0.942
tp3728
a(S'to'
p3729
S'TO'
p3730
F0.9915
tp3731
a(S'love'
p3732
S'VB'
p3733
F0.9349
tp3734
a(S'about'
p3735
S'IN'
p3736
F0.9841
tp3737
a(S'Apple'
p3738
S'NNP'
p3739
F0.9892
tp3740
a(S'Watch'
p3741
S'NNP'
p3742
F0.4335
tp3743
a(g349
g349
F0.9817
tp3744
a(S'but'
p3745
S'CC'
p3746
F0.996
tp3747
a(S'the'
p3748
S'DT'
p3749
F0.9937
tp3750
a(S'truth'
p3751
S'NN'
p3752
F0.9883
tp3753
a(S'is'
p3754
S'VBZ'
p3755
F0.9899
tp3756
a(g349
g349
F0.9891
tp3757
a(S'as'
p3758
S'IN'
p3759
F0.899
tp3760
a(g96
S'DT'
p3761
F0.9779
tp3762
a(S'running'
p3763
S'NN'
p3764
F0.9008
tp3765
a(S'watch'
p3766
S'NN'
p3767
F0.8665
tp3768
a(g349
g349
F0.9894
tp3769
a(S'it'
p3770
S'PRP'
p3771
F0.9973
tp3772
a(S'sucks'
p3773
S'VBZ'
p3774
F0.9908
tp3775
ag123
tp3776
a((lp3777
(S'Lovvvvvve'
p3778
S'VBP'
p3779
F0.7605
tp3780
a(S'the'
p3781
S'DT'
p3782
F0.9859
tp3783
a(S'Taraji'
p3784
S'NNP'
p3785
F0.9975
tp3786
a(S'P'
p3787
S'NNP'
p3788
F0.9823
tp3789
a(S'Henson'
p3790
S'NNP'
p3791
F0.9994
tp3792
a(g349
g349
F0.9835
tp3793
a(S'Kerry'
p3794
S'NNP'
p3795
F0.9998
tp3796
a(S'Washington'
p3797
S'NNP'
p3798
F0.9992
tp3799
a(g349
g349
F0.9903
tp3800
a(g90
S'CC'
p3801
F0.9889
tp3802
a(S'MJB'
p3803
S'NNP'
p3804
F0.3574
tp3805
a(S'commercial'
p3806
S'NN'
p3807
F0.6823
tp3808
a(g1469
g20
F0.8917
tp3809
a(S'good'
p3810
S'JJ'
p3811
F0.9509
tp3812
a(S'job'
p3813
S'NN'
p3814
F0.9311
tp3815
a(S'Apple'
p3816
S'NNP'
p3817
F0.8957
tp3818
ag42
tp3819
a((lp3820
(S'My'
p3821
S'PRP$'
p3822
F0.9448
tp3823
a(S'new'
p3824
S'JJ'
p3825
F0.9586
tp3826
a(S'#Apple'
p3827
S'HT'
p3828
F0.8877
tp3829
a(S'MacBook'
p3830
S'NNP'
p3831
F0.4274
tp3832
a(S'Pro'
p3833
S'NNP'
p3834
F0.9691
tp3835
a(S'is'
p3836
S'VBZ'
p3837
F0.9882
tp3838
a(S'LOUD'
p3839
S'JJ'
p3840
F0.612
tp3841
a(g23
g23
F0.9916
tp3842
a(g270
S'PRP'
p3843
F0.9976
tp3844
a(S'hate'
p3845
S'VBP'
p3846
F0.9987
tp3847
a(S'to'
p3848
S'TO'
p3849
F0.9977
tp3850
a(S'complain'
p3851
S'VB'
p3852
F0.9442
tp3853
a(S'but'
p3854
S'CC'
p3855
F0.9747
tp3856
a(S'it'
p3857
S'PRP'
p3858
F0.9961
tp3859
a(S'is'
p3860
S'VBZ'
p3861
F0.9981
tp3862
a(S'making'
p3863
S'VBG'
p3864
F0.9951
tp3865
a(S'me'
p3866
S'PRP'
p3867
F0.9746
tp3868
a(S'bonkers'
p3869
S'NNS'
p3870
F0.3834
tp3871
a(S'this'
p3872
S'DT'
p3873
F0.9796
tp3874
a(S'AM'
p3875
S'NN'
p3876
F0.7487
tp3877
a(g23
g23
F0.9955
tp3878
ag123
tp3879
a((lp3880
(g270
S'PRP'
p3881
F0.9906
tp3882
a(S'download'
p3883
S'VBP'
p3884
F0.5142
tp3885
a(S'all'
p3886
S'DT'
p3887
F0.959
tp3888
a(S'of'
p3889
S'IN'
p3890
F0.9685
tp3891
a(S'my'
p3892
S'PRP$'
p3893
F0.9767
tp3894
a(S'stuff'
p3895
S'NN'
p3896
F0.978
tp3897
a(S'because'
p3898
S'IN'
p3899
F0.9924
tp3900
a(S'the'
p3901
S'DT'
p3902
F0.991
tp3903
a(S'Cloud'
p3904
S'NNP'
p3905
F0.9293
tp3906
a(S'sucks'
p3907
S'VBZ'
p3908
F0.8752
tp3909
a(g135
g23
F0.9901
tp3910
a(S'Apple'
p3911
S'NNP'
p3912
F0.905
tp3913
a(S'needs'
p3914
S'VBZ'
p3915
F0.9686
tp3916
a(S'to'
p3917
S'TO'
p3918
F0.9984
tp3919
a(S'fix'
p3920
S'VB'
p3921
F0.9964
tp3922
a(S'this'
p3923
S'DT'
p3924
F0.9804
tp3925
a(g23
g23
F0.9935
tp3926
a(S'Purchases'
p3927
S'NNS'
p3928
F0.9855
tp3929
a(S'should'
p3930
S'MD'
p3931
F0.9756
tp3932
a(S'ALWAYS'
p3933
S'RB'
p3934
F0.9827
tp3935
a(S'be'
p3936
S'VB'
p3937
F0.9661
tp3938
a(S'available'
p3939
S'JJ'
p3940
F0.7248
tp3941
a(g23
g23
F0.9961
tp3942
ag123
tp3943
a((lp3944
(S'Good'
p3945
S'JJ'
p3946
F0.777
tp3947
a(S'job'
p3948
S'NN'
p3949
F0.9905
tp3950
a(g349
g349
F0.9866
tp3951
a(S'Apple'
p3952
S'NNP'
p3953
F0.9924
tp3954
a(g349
g349
F0.9903
tp3955
a(S'for'
p3956
S'IN'
p3957
F0.9681
tp3958
a(S'placing'
p3959
S'VBG'
p3960
F0.9956
tp3961
a(S'the'
p3962
S'DT'
p3963
F0.9927
tp3964
a(S'popcorn'
p3965
S'NN'
p3966
F0.7946
tp3967
a(S'emoji'
p3968
S'NN'
p3969
F0.8558
tp3970
a(S'next'
p3971
S'JJ'
p3972
F0.9204
tp3973
a(S'to'
p3974
S'TO'
p3975
F0.9792
tp3976
a(S'the'
p3977
S'DT'
p3978
F0.9968
tp3979
a(S'wine'
p3980
S'NN'
p3981
F0.964
tp3982
a(S'for'
p3983
S'IN'
p3984
F0.9938
tp3985
a(S'#ScandalABC'
p3986
S'HT'
p3987
F0.9438
tp3988
a(S'????????'
p3989
g23
F0.9254
tp3990
a(S'#ScandaI'
p3991
S'HT'
p3992
F0.9878
tp3993
ag42
tp3994
a((lp3995
(S'seriously'
p3996
S'RB'
p3997
F0.6146
tp3998
a(g23
g23
F0.9816
tp3999
a(S'Me'
p4000
S'PRP'
p4001
F0.992
tp4002
a(S'getting'
p4003
S'VBG'
p4004
F0.9894
tp4005
a(S'old'
p4006
S'JJ'
p4007
F0.9216
tp4008
a(S'and'
p4009
S'CC'
p4010
F0.9912
tp4011
a(S'more'
p4012
S'RBR'
p4013
F0.6174
tp4014
a(S'impatient'
p4015
S'JJ'
p4016
F0.8835
tp4017
a(S'and'
p4018
S'CC'
p4019
F0.9886
tp4020
a(S'Apple'
p4021
S'NNP'
p4022
F0.9796
tp4023
a(S'getting'
p4024
S'VBG'
p4025
F0.9957
tp4026
a(S'worse'
p4027
S'JJ'
p4028
F0.4255
tp4029
a(S'at'
p4030
S'IN'
p4031
F0.9933
tp4032
a(S'software'
p4033
S'NN'
p4034
F0.9729
tp4035
a(S'is'
p4036
S'VBZ'
p4037
F0.9962
tp4038
a(S'not'
p4039
S'RB'
p4040
F0.9905
tp4041
a(g96
S'DT'
p4042
F0.9324
tp4043
a(S'winning'
p4044
S'NN'
p4045
F0.6917
tp4046
a(S'combination'
p4047
S'NN'
p4048
F0.998
tp4049
a(g23
g23
F0.9957
tp4050
ag123
tp4051
a((lp4052
(S'Good'
p4053
S'JJ'
p4054
F0.777
tp4055
a(S'job'
p4056
S'NN'
p4057
F0.9647
tp4058
a(S'apple'
p4059
S'NN'
p4060
F0.7843
tp4061
a(S'with'
p4062
S'IN'
p4063
F0.9988
tp4064
a(S'the'
p4065
S'DT'
p4066
F0.9941
tp4067
a(S'new'
p4068
S'JJ'
p4069
F0.9797
tp4070
a(S'emojis'
p4071
S'NNS'
p4072
F0.9647
tp4073
ag42
tp4074
a((lp4075
(S'Good'
p4076
S'JJ'
p4077
F0.777
tp4078
a(S'job'
p4079
S'NN'
p4080
F0.9364
tp4081
a(S'Apple'
p4082
S'NNP'
p4083
F0.901
tp4084
a(g23
g23
F0.9915
tp4085
a(S'Siri'
p4086
S'NNP'
p4087
F0.9845
tp4088
a(S'always'
p4089
S'RB'
p4090
F0.98
tp4091
a(S'understands'
p4092
S'VBZ'
p4093
F0.8826
tp4094
a(S'when'
p4095
S'WRB'
p4096
F0.9923
tp4097
a(g270
S'PRP'
p4098
F0.9987
tp4099
a(S'tell'
p4100
S'VBP'
p4101
F0.923
tp4102
a(S'her'
p4103
S'PRP'
p4104
F0.8909
tp4105
a(S'to'
p4106
S'TO'
p4107
F0.9964
tp4108
a(S'play'
p4109
S'VB'
p4110
F0.9969
tp4111
a(S'without'
p4112
S'IN'
p4113
F0.9951
tp4114
a(S'any'
p4115
S'DT'
p4116
F0.9833
tp4117
a(S'odd'
p4118
S'JJ'
p4119
F0.9847
tp4120
a(S'pronunciation'
p4121
S'NN'
p4122
F0.9811
tp4123
a(g23
g23
F0.997
tp4124
ag42
tp4125
a((lp4126
(g270
S'PRP'
p4127
F0.9967
tp4128
a(S'am'
p4129
S'VBP'
p4130
F0.9692
tp4131
a(S'living'
p4132
S'VBG'
p4133
F0.9412
tp4134
a(S'for'
p4135
S'IN'
p4136
F0.9958
tp4137
a(S'this'
p4138
S'DT'
p4139
F0.9972
tp4140
a(S'aesthetic'
p4141
S'JJ'
p4142
F0.7423
tp4143
a(S'typeface'
p4144
S'NN'
p4145
F0.9414
tp4146
a(S'on'
p4147
S'IN'
p4148
F0.9928
tp4149
a(S'ios'
p4150
S'NNP'
p4151
F0.8251
tp4152
a(g3108
S'CD'
p4153
F0.9631
tp4154
a(S'!!!'
p4155
g23
F0.9849
tp4156
a(S'Good'
p4157
S'JJ'
p4158
F0.8918
tp4159
a(S'job'
p4160
S'NN'
p4161
F0.9716
tp4162
a(S'apple'
p4163
S'NN'
p4164
F0.7578
tp4165
a(g135
g23
F0.9952
tp4166
ag42
tp4167
a((lp4168
(S'13'
p4169
S'CD'
p4170
F0.9173
tp4171
a(g232
S"''"
p4172
F0.9813
tp4173
a(S'mbp'
p4174
S'NN'
p4175
F0.7404
tp4176
a(g23
g23
F0.993
tp4177
a(S'Good'
p4178
S'JJ'
p4179
F0.5251
tp4180
a(S'spec'
p4181
S'NN'
p4182
F0.9368
tp4183
a(g349
g349
F0.992
tp4184
a(S'from'
p4185
S'IN'
p4186
F0.9959
tp4187
a(S'the'
p4188
S'DT'
p4189
F0.9953
tp4190
a(S'refurb'
p4191
S'NN'
p4192
F0.872
tp4193
a(S'store'
p4194
S'NN'
p4195
F0.9844
tp4196
a(g23
g23
F0.9969
tp4197
ag42
tp4198
a((lp4199
(S'and'
p4200
S'CC'
p4201
F0.9916
tp4202
a(S'that'
p4203
S'DT'
p4204
F0.432
tp4205
a(S'sucks'
p4206
S'VBZ'
p4207
F0.9882
tp4208
a(S'and'
p4209
S'CC'
p4210
F0.9777
tp4211
a(S'limits'
p4212
S'NNS'
p4213
F0.6674
tp4214
a(S'the'
p4215
S'DT'
p4216
F0.995
tp4217
a(S'kind'
p4218
S'NN'
p4219
F0.8415
tp4220
a(S'of'
p4221
S'IN'
p4222
F0.9862
tp4223
a(S'games'
p4224
S'NNS'
p4225
F0.9674
tp4226
a(S'that'
p4227
S'IN'
p4228
F0.5186
tp4229
a(S'can'
p4230
S'MD'
p4231
F0.9889
tp4232
a(S'be'
p4233
S'VB'
p4234
F0.9977
tp4235
a(S'created'
p4236
S'VBN'
p4237
F0.9469
tp4238
a(S'for'
p4239
S'IN'
p4240
F0.996
tp4241
a(S'apple'
p4242
S'NNP'
p4243
F0.651
tp4244
a(S'tv'
p4245
S'NN'
p4246
F0.9117
tp4247
a(g349
g349
F0.99
tp4248
a(S'so'
p4249
S'RB'
p4250
F0.4708
tp4251
a(g96
S'DT'
p4252
F0.9932
tp4253
a(S'competitor'
p4254
S'NN'
p4255
F0.997
tp4256
a(S'of'
p4257
S'IN'
p4258
F0.9889
tp4259
a(S'consoles'
p4260
S'NNS'
p4261
F0.9398
tp4262
a(g452
g23
F0.9929
tp4263
a(S'hell'
p4264
S'NN'
p4265
F0.3942
tp4266
a(S'no'
p4267
S'DT'
p4268
F0.475
tp4269
ag123
tp4270
a((lp4271
(S'Apple'
p4272
S'NNP'
p4273
F0.8258
tp4274
a(S'fucking'
p4275
S'VBG'
p4276
F0.5754
tp4277
a(S'sucks'
p4278
S'VBZ'
p4279
F0.9462
tp4280
a(S'since'
p4281
S'IN'
p4282
F0.9906
tp4283
a(S'Steve'
p4284
S'NNP'
p4285
F0.9958
tp4286
a(S'died'
p4287
S'VBD'
p4288
F0.9001
tp4289
a(g23
g23
F0.9937
tp4290
a(S'can'
p4291
S'MD'
p4292
F0.9692
tp4293
a(g78
S'PRP'
p4294
F0.9817
tp4295
a(S'get'
p4296
S'VBP'
p4297
F0.9645
tp4298
a(g96
S'DT'
p4299
F0.9895
tp4300
a(S'better'
p4301
S'JJR'
p4302
F0.5841
tp4303
a(S'charger'
p4304
S'NN'
p4305
F0.7415
tp4306
a(g452
g23
F0.9884
tp4307
a(S'instead'
p4308
S'RB'
p4309
F0.7959
tp4310
a(S'of'
p4311
S'IN'
p4312
F0.9773
tp4313
a(S'updates'
p4314
S'NNS'
p4315
F0.9664
tp4316
a(S'that'
p4317
S'IN'
p4318
F0.4609
tp4319
a(S'take'
p4320
S'VB'
p4321
F0.8393
tp4322
a(S'up'
p4323
S'RP'
p4324
F0.9639
tp4325
a(S'all'
p4326
S'DT'
p4327
F0.9303
tp4328
a(S'my'
p4329
S'PRP$'
p4330
F0.9943
tp4331
a(S'memory'
p4332
S'NN'
p4333
F0.99
tp4334
ag123
tp4335
a((lp4336
(S'Under'
p4337
S'IN'
p4338
F0.9601
tp4339
a(S'50K'
p4340
S'CD'
p4341
F0.6369
tp4342
a(S'for'
p4343
S'IN'
p4344
F0.9975
tp4345
a(S'this'
p4346
S'DT'
p4347
F0.9981
tp4348
a(S'MBP'
p4349
S'NN'
p4350
F0.7064
tp4351
a(S'is'
p4352
S'VBZ'
p4353
F0.9919
tp4354
a(S'damn'
p4355
S'RB'
p4356
F0.7655
tp4357
a(S'good'
p4358
S'JJ'
p4359
F0.9861
tp4360
a(S'deal'
p4361
S'NN'
p4362
F0.9553
tp4363
a(g23
g23
F0.9964
tp4364
ag42
tp4365
a((lp4366
(S'And'
p4367
S'CC'
p4368
F0.9868
tp4369
a(S'Microsoft'
p4370
S'NNP'
p4371
F0.9936
tp4372
a(S'office'
p4373
S'NN'
p4374
F0.9485
tp4375
a(S"doesn't"
p4376
S'NN'
p4377
F0.585
tp4378
a(S'work'
p4379
S'NN'
p4380
F0.887
tp4381
a(S'in'
p4382
S'IN'
p4383
F0.9967
tp4384
a(S'El'
p4385
S'NNP'
p4386
F0.9872
tp4387
a(S'Capitan'
p4388
S'NNP'
p4389
F0.9988
tp4390
a(g23
g23
F0.9904
tp4391
a(S'Apple'
p4392
S'NNP'
p4393
F0.8477
tp4394
a(S'engineers'
p4395
S'NNS'
p4396
F0.6297
tp4397
a(S"aren't"
p4398
S'VBP'
p4399
F0.488
tp4400
a(S'doing'
p4401
S'VBG'
p4402
F0.996
tp4403
a(g96
S'DT'
p4404
F0.9873
tp4405
a(S'very'
p4406
S'RB'
p4407
F0.926
tp4408
a(S'good'
p4409
S'JJ'
p4410
F0.9906
tp4411
a(S'job'
p4412
S'NN'
p4413
F0.9554
tp4414
a(S'this'
p4415
S'DT'
p4416
F0.9975
tp4417
a(S'time'
p4418
S'NN'
p4419
F0.9924
tp4420
a(S'around'
p4421
S'IN'
p4422
F0.8667
tp4423
a(S'and'
p4424
S'CC'
p4425
F0.9929
tp4426
a(S'making'
p4427
S'VBG'
p4428
F0.9823
tp4429
a(S'fake'
p4430
S'JJ'
p4431
F0.5869
tp4432
a(S'promises'
p4433
S'NNS'
p4434
F0.6271
tp4435
ag123
tp4436
a((lp4437
(S'Awesome'
p4438
S'JJ'
p4439
F0.9843
tp4440
a(S'idea'
p4441
S'NN'
p4442
F0.9435
tp4443
a(g349
g349
F0.9907
tp4444
a(S'shame'
p4445
S'NN'
p4446
F0.7588
tp4447
a(S'on'
p4448
S'IN'
p4449
F0.9981
tp4450
a(S'Apple'
p4451
S'NNP'
p4452
F0.996
tp4453
a(S'for'
p4454
S'IN'
p4455
F0.9846
tp4456
a(S'refusing'
p4457
S'VBG'
p4458
F0.9786
tp4459
a(S'the'
p4460
S'DT'
p4461
F0.992
tp4462
a(S'app'
p4463
S'NN'
p4464
F0.8797
tp4465
a(S'from'
p4466
S'IN'
p4467
F0.9991
tp4468
a(S'the'
p4469
S'DT'
p4470
F0.9953
tp4471
a(S'app'
p4472
S'NN'
p4473
F0.7271
tp4474
a(S'store'
p4475
S'NN'
p4476
F0.9814
tp4477
a(g23
g23
F0.9968
tp4478
ag123
tp4479
a((lp4480
(S'RT'
p4481
S'RT'
p4482
F0.9539
tp4483
a(S'Apple'
p4484
S'NNP'
p4485
F0.9877
tp4486
a(S'Music'
p4487
S'NNP'
p4488
F0.5925
tp4489
a(S'sucks'
p4490
S'VBZ'
p4491
F0.8533
tp4492
a(g23
g23
F0.9966
tp4493
ag123
tp4494
a((lp4495
(S'Apple'
p4496
S'NNP'
p4497
F0.9036
tp4498
a(S'TV'
p4499
S'NNP'
p4500
F0.8267
tp4501
a(S'2015'
p4502
S'CD'
p4503
F0.6965
tp4504
a(S'review'
p4505
S'NN'
p4506
F0.9791
tp4507
a(g20
g20
F0.9695
tp4508
a(S'Fast'
p4509
S'RB'
p4510
F0.5114
tp4511
a(S'and'
p4512
S'CC'
p4513
F0.9893
tp4514
a(S'easy'
p4515
S'JJ'
p4516
F0.9097
tp4517
a(S'to'
p4518
S'TO'
p4519
F0.9954
tp4520
a(S'navigate'
p4521
S'VB'
p4522
F0.9865
tp4523
a(g349
g349
F0.9868
tp4524
a(S'but'
p4525
S'CC'
p4526
F0.9939
tp4527
a(S'keyboard'
p4528
S'NN'
p4529
F0.8972
tp4530
a(S'worse'
p4531
S'JJ'
p4532
F0.3493
tp4533
a(g349
g349
F0.9893
tp4534
a(S'Siri'
p4535
S'NNP'
p4536
F0.9995
tp4537
a(S'limited'
p4538
S'JJ'
p4539
F0.3843
tp4540
a(g349
g349
F0.9885
tp4541
a(S'feels'
p4542
S'VBZ'
p4543
F0.8515
tp4544
a(S'like'
p4545
S'IN'
p4546
F0.8698
tp4547
a(S'firs'
p4548
S'NNS'
p4549
F0.3016
tp4550
a(S'...'
p4551
g20
F0.9982
tp4552
a(S'|'
p4553
g20
F0.4061
tp4554
ag123
tp4555
a((lp4556
(S'????'
p4557
g23
F0.9175
tp4558
a(g270
S'PRP'
p4559
F0.9978
tp4560
a(S'guess'
p4561
S'VBP'
p4562
F0.986
tp4563
a(S'apple'
p4564
S'NNP'
p4565
F0.3926
tp4566
a(S'just'
p4567
S'RB'
p4568
F0.9986
tp4569
a(S'sucks'
p4570
S'VBZ'
p4571
F0.9266
tp4572
a(S'dick'
p4573
S'NN'
p4574
F0.7088
tp4575
a(S'!!!!'
p4576
g23
F0.9912
tp4577
ag123
tp4578
a((lp4579
(S'attended'
p4580
S'VBD'
p4581
F0.5814
tp4582
a(g96
S'DT'
p4583
F0.9958
tp4584
a(S'luncheon'
p4585
S'NN'
p4586
F0.9952
tp4587
a(S'and'
p4588
S'CC'
p4589
F0.994
tp4590
a(S'grabbed'
p4591
S'VBD'
p4592
F0.8736
tp4593
a(S'my'
p4594
S'PRP$'
p4595
F0.9904
tp4596
a(S'work'
p4597
S'NN'
p4598
F0.9936
tp4599
a(S'cellphone'
p4600
S'NN'
p4601
F0.8351
tp4602
a(S'and'
p4603
S'CC'
p4604
F0.9932
tp4605
a(S'realized'
p4606
S'VBD'
p4607
F0.4656
tp4608
a(g270
S'PRP'
p4609
F0.9969
tp4610
a(S'never'
p4611
S'RB'
p4612
F0.9737
tp4613
a(S'turned'
p4614
S'VBD'
p4615
F0.5268
tp4616
a(S'it'
p4617
S'PRP'
p4618
F0.9936
tp4619
a(S'off'
p4620
S'RP'
p4621
F0.9155
tp4622
a(S'..'
p4623
g20
F0.9148
tp4624
a(S'and'
p4625
S'CC'
p4626
F0.9934
tp4627
a(S'the'
p4628
S'DT'
p4629
F0.9936
tp4630
a(S'battery'
p4631
S'NN'
p4632
F0.9698
tp4633
a(S'life'
p4634
S'NN'
p4635
F0.9958
tp4636
a(S'was'
p4637
S'VBD'
p4638
F0.9731
tp4639
a(S'still'
p4640
S'RB'
p4641
F0.9759
tp4642
a(g96
S'DT'
p4643
F0.9957
tp4644
a(S'lot'
p4645
S'NN'
p4646
F0.84
tp4647
a(S'good'
p4648
S'JJ'
p4649
F0.933
tp4650
a(S'job'
p4651
S'NN'
p4652
F0.9527
tp4653
a(S'Apple'
p4654
S'NNP'
p4655
F0.8607
tp4656
ag42
tp4657
a((lp4658
(S"What's"
p4659
S'WP'
p4660
F0.3046
tp4661
a(S'the'
p4662
S'DT'
p4663
F0.9946
tp4664
a(S'point'
p4665
S'NN'
p4666
F0.9825
tp4667
a(S'of'
p4668
S'IN'
p4669
F0.9787
tp4670
a(S'buying'
p4671
S'VBG'
p4672
F0.9951
tp4673
a(S'the'
p4674
S'DT'
p4675
F0.993
tp4676
a(S'new'
p4677
S'JJ'
p4678
F0.8876
tp4679
a(S'Apple'
p4680
S'NNP'
p4681
F0.8167
tp4682
a(S'TV'
p4683
S'NN'
p4684
F0.5716
tp4685
a(S'when'
p4686
S'WRB'
p4687
F0.9878
tp4688
a(S'none'
p4689
S'NN'
p4690
F0.8593
tp4691
a(S'of'
p4692
S'IN'
p4693
F0.997
tp4694
a(S'the'
p4695
S'DT'
p4696
F0.9947
tp4697
a(S'app'
p4698
S'NN'
p4699
F0.8853
tp4700
a(S'content'
p4701
S'NN'
p4702
F0.9839
tp4703
a(S'is'
p4704
S'VBZ'
p4705
F0.9964
tp4706
a(S'available'
p4707
S'JJ'
p4708
F0.736
tp4709
a(S'in'
p4710
S'IN'
p4711
F0.9974
tp4712
a(S'Canada'
p4713
S'NNP'
p4714
F0.9986
tp4715
a(g452
g23
F0.9888
tp4716
a(S'This'
p4717
S'DT'
p4718
F0.9953
tp4719
a(S'country'
p4720
S'NN'
p4721
F0.9979
tp4722
a(S'sucks'
p4723
S'VBZ'
p4724
F0.9647
tp4725
a(S'asshole'
p4726
S'NN'
p4727
F0.8355
tp4728
ag123
tp4729
a((lp4730
(S"Don't"
p4731
S'VBP'
p4732
F0.2911
tp4733
a(S'let'
p4734
S'VB'
p4735
F0.9893
tp4736
a(S'Apple'
p4737
S'NNP'
p4738
F0.951
tp4739
a(S'know'
p4740
S'VBP'
p4741
F0.567
tp4742
a(g349
g349
F0.9875
tp4743
a(S'but'
p4744
S'CC'
p4745
F0.999
tp4746
a(g270
S'PRP'
p4747
F0.9981
tp4748
a(S'think'
p4749
S'VBP'
p4750
F0.9917
tp4751
a(S'they'
p4752
S'PRP'
p4753
F0.995
tp4754
a(S'did'
p4755
S'VBD'
p4756
F0.9765
tp4757
a(g96
S'DT'
p4758
F0.9965
tp4759
a(S'good'
p4760
S'JJ'
p4761
F0.9825
tp4762
a(S'job'
p4763
S'NN'
p4764
F0.9876
tp4765
a(S'with'
p4766
S'IN'
p4767
F0.9994
tp4768
a(S'El'
p4769
S'NNP'
p4770
F0.9949
tp4771
a(S'Capitan'
p4772
S'NNP'
p4773
F0.9988
tp4774
a(g23
g23
F0.9955
tp4775
ag42
tp4776
a((lp4777
(S'Good'
p4778
S'JJ'
p4779
F0.777
tp4780
a(S'job'
p4781
S'NN'
p4782
F0.9364
tp4783
a(S'Apple'
p4784
S'NNP'
p4785
F0.901
tp4786
a(g23
g23
F0.9932
tp4787
a(S'These'
p4788
S'DT'
p4789
F0.9764
tp4790
a(S'emojis'
p4791
S'NNS'
p4792
F0.9677
tp4793
a(S'lit'
p4794
S'NN'
p4795
F0.2756
tp4796
a(S'????'
p4797
g23
F0.9709
tp4798
ag42
tp4799
a((lp4800
(S'RT'
p4801
S'RT'
p4802
F0.9652
tp4803
a(S'android'
p4804
S'NNP'
p4805
F0.5216
tp4806
a(S'master'
p4807
S'NN'
p4808
F0.6194
tp4809
a(S'race'
p4810
S'NN'
p4811
F0.7653
tp4812
a(S'apple'
p4813
S'NN'
p4814
F0.8073
tp4815
a(S'sucks'
p4816
S'VBZ'
p4817
F0.9757
tp4818
ag123
tp4819
a((lp4820
(S'Just'
p4821
S'RB'
p4822
F0.997
tp4823
a(S'noticed'
p4824
S'VBD'
p4825
F0.7542
tp4826
a(S'theres'
p4827
S'NNS'
p4828
F0.2338
tp4829
a(S'now'
p4830
S'RB'
p4831
F0.9816
tp4832
a(S'an'
p4833
S'DT'
p4834
F0.9298
tp4835
a(S'emoticone'
p4836
S'NN'
p4837
F0.6819
tp4838
a(S'version'
p4839
S'NN'
p4840
F0.9925
tp4841
a(S'of'
p4842
S'IN'
p4843
F0.9867
tp4844
a(S'#UnicornIsland'
p4845
S'HT'
p4846
F0.9268
tp4847
a(S'????????'
p4848
g23
F0.9332
tp4849
a(S';)'
p4850
S'UH'
p4851
F0.9311
tp4852
a(S'good'
p4853
S'JJ'
p4854
F0.8387
tp4855
a(S'job'
p4856
S'NN'
p4857
F0.9329
tp4858
a(S'Apple'
p4859
S'NNP'
p4860
F0.8332
tp4861
a(g135
g23
F0.9949
tp4862
ag42
tp4863
a((lp4864
(S'Apple'
p4865
S'NNP'
p4866
F0.8319
tp4867
a(S'Emailed'
p4868
S'VBD'
p4869
F0.8297
tp4870
a(S'Me'
p4871
S'PRP'
p4872
F0.9925
tp4873
a(S'About'
p4874
S'IN'
p4875
F0.696
tp4876
a(S'A'
p4877
S'DT'
p4878
F0.9269
tp4879
a(S'Job'
p4880
S'NN'
p4881
F0.8114
tp4882
a(g23
g23
F0.9932
tp4883
a(S'AMEN'
p4884
S'UH'
p4885
F0.9888
tp4886
a(g135
g23
F0.9815
tp4887
a(S'God'
p4888
S'NNP'
p4889
F0.98
tp4890
a(S'Is'
p4891
S'VBZ'
p4892
F0.9962
tp4893
a(S'So'
p4894
S'RB'
p4895
F0.738
tp4896
a(S'Good'
p4897
S'JJ'
p4898
F0.9291
tp4899
a(S'????'
p4900
g23
F0.9712
tp4901
ag42
tp4902
a((lp4903
(S'good'
p4904
S'JJ'
p4905
F0.7479
tp4906
a(S'job'
p4907
S'NN'
p4908
F0.9501
tp4909
a(S'apple'
p4910
S'NN'
p4911
F0.6429
tp4912
a(S'on'
p4913
S'IN'
p4914
F0.9959
tp4915
a(S'the'
p4916
S'DT'
p4917
F0.9918
tp4918
a(S'ios'
p4919
S'NNP'
p4920
F0.5096
tp4921
a(S'9.1'
p4922
S'CD'
p4923
F0.7089
tp4924
ag42
tp4925
a((lp4926
(S'Apple'
p4927
S'NNP'
p4928
F0.8552
tp4929
a(S'really'
p4930
S'RB'
p4931
F0.9474
tp4932
a(S'sucks'
p4933
S'VBZ'
p4934
F0.9486
tp4935
a(S'rn'
p4936
S'NN'
p4937
F0.5525
tp4938
ag123
tp4939
a((lp4940
(S'good'
p4941
S'JJ'
p4942
F0.7479
tp4943
a(S'job'
p4944
S'NN'
p4945
F0.9501
tp4946
a(S'apple'
p4947
S'NN'
p4948
F0.7453
tp4949
a(S'finally'
p4950
S'RB'
p4951
F0.9804
tp4952
a(S'an'
p4953
S'DT'
p4954
F0.9319
tp4955
a(S'update'
p4956
S'NN'
p4957
F0.996
tp4958
a(S'that'
p4959
S'DT'
p4960
F0.5708
tp4961
a(S'everyone'
p4962
S'NN'
p4963
F0.9959
tp4964
a(S'loves'
p4965
S'VBZ'
p4966
F0.9739
tp4967
ag42
tp4968
a((lp4969
(S'Streaming'
p4970
S'VBG'
p4971
F0.7539
tp4972
a(S'the'
p4973
S'DT'
p4974
F0.9967
tp4975
a(S'Bills'
p4976
S'NNP'
p4977
F0.8709
tp4978
a(S'game'
p4979
S'NN'
p4980
F0.7161
tp4981
a(S'on'
p4982
S'IN'
p4983
F0.9946
tp4984
a(S'my'
p4985
S'PRP$'
p4986
F0.991
tp4987
a(S'Apple'
p4988
S'NNP'
p4989
F0.9489
tp4990
a(S'TV'
p4991
S'NN'
p4992
F0.5601
tp4993
a(g349
g349
F0.9908
tp4994
a(S'great'
p4995
S'JJ'
p4996
F0.9672
tp4997
a(S'quality'
p4998
S'NN'
p4999
F0.9637
tp5000
a(g349
g349
F0.991
tp5001
a(S'good'
p5002
S'JJ'
p5003
F0.9363
tp5004
a(S'job'
p5005
S'NN'
p5006
F0.9883
tp5007
a(S'by'
p5008
S'IN'
p5009
F0.9896
tp5010
a(S'Yahoo'
p5011
S'NNP'
p5012
F0.9925
tp5013
a(S'and'
p5014
S'CC'
p5015
F0.9939
tp5016
a(S'NFL'
p5017
S'NNP'
p5018
F0.789
tp5019
a(S'so'
p5020
S'RB'
p5021
F0.8905
tp5022
a(S'far'
p5023
S'RB'
p5024
F0.9118
tp5025
a(S'ok'
p5026
S'UH'
p5027
F0.5953
tp5028
a(S'that'
p5029
S'DT'
p5030
F0.644
tp5031
ag42
tp5032
a((lp5033
(S'????????????'
p5034
g23
F0.9242
tp5035
a(S'????????????'
p5036
g23
F0.9111
tp5037
a(S'????'
p5038
g23
F0.9385
tp5039
a(S'<---'
p5040
S'SYM'
p5041
F0.4001
tp5042
a(S'good'
p5043
S'JJ'
p5044
F0.9716
tp5045
a(S'job'
p5046
S'NN'
p5047
F0.9898
tp5048
a(g349
g349
F0.9898
tp5049
a(S'apple'
p5050
S'NNP'
p5051
F0.632
tp5052
ag42
tp5053
a((lp5054
(S"i've"
p5055
S'PRP'
p5056
F0.9547
tp5057
a(S'put'
p5058
S'VBP'
p5059
F0.6246
tp5060
a(S'it'
p5061
S'PRP'
p5062
F0.9955
tp5063
a(S'on'
p5064
S'IN'
p5065
F0.9682
tp5066
a(S'my'
p5067
S'PRP$'
p5068
F0.9965
tp5069
a(S'old'
p5070
S'JJ'
p5071
F0.8928
tp5072
a(S'imac'
p5073
S'NN'
p5074
F0.9083
tp5075
a(g349
g349
F0.9914
tp5076
a(S'so'
p5077
S'RB'
p5078
F0.8901
tp5079
a(S'far'
p5080
S'RB'
p5081
F0.9376
tp5082
a(S'so'
p5083
S'RB'
p5084
F0.9429
tp5085
a(S'good'
p5086
S'JJ'
p5087
F0.9772
tp5088
a(g23
g23
F0.9899
tp5089
a(S'downloading'
p5090
S'VBG'
p5091
F0.942
tp5092
a(S'for'
p5093
S'IN'
p5094
F0.9956
tp5095
a(S'mbp'
p5096
S'NN'
p5097
F0.5442
tp5098
a(S'now'
p5099
S'RB'
p5100
F0.9631
tp5101
a(g23
g23
F0.9957
tp5102
ag42
tp5103
a((lp5104
(g270
S'PRP'
p5105
F0.9959
tp5106
a(S'already'
p5107
S'RB'
p5108
F0.9836
tp5109
a(S'used'
p5110
S'VBD'
p5111
F0.8388
tp5112
a(S'command'
p5113
S'NN'
p5114
F0.9276
tp5115
a(S'+'
p5116
g20
F0.327
tp5117
a(S'space'
p5118
S'NN'
p5119
F0.8685
tp5120
a(S'for'
p5121
S'IN'
p5122
F0.9985
tp5123
a(S'Alfred'
p5124
S'NNP'
p5125
F0.9997
tp5126
a(g23
g23
F0.9944
tp5127
a(S'Good'
p5128
S'JJ'
p5129
F0.8114
tp5130
a(S'job'
p5131
S'NN'
p5132
F0.993
tp5133
a(g349
g349
F0.9864
tp5134
a(S'Apple'
p5135
S'NNP'
p5136
F0.9879
tp5137
a(g23
g23
F0.996
tp5138
ag42
tp5139
a((lp5140
(S'iOS'
p5141
S'NNP'
p5142
F0.8207
tp5143
a(g3138
S'CD'
p5144
F0.9142
tp5145
a(S'has'
p5146
S'VBZ'
p5147
F0.9355
tp5148
a(S'made'
p5149
S'VBD'
p5150
F0.6981
tp5151
a(S'my'
p5152
S'PRP$'
p5153
F0.9922
tp5154
a(S'phone'
p5155
S'NN'
p5156
F0.9958
tp5157
a(S'10'
p5158
S'CD'
p5159
F0.996
tp5160
a(S'times'
p5161
S'NNS'
p5162
F0.9288
tp5163
a(S'worse'
p5164
S'JJ'
p5165
F0.6547
tp5166
a(g23
g23
F0.9918
tp5167
a(g270
S'PRP'
p5168
F0.9976
tp5169
a(S'guess'
p5170
S'VBP'
p5171
F0.9816
tp5172
a(S'Apple'
p5173
S'NNP'
p5174
F0.9357
tp5175
a(S"doesn't"
p5176
S'NN'
p5177
F0.3961
tp5178
a(S'have'
p5179
S'VB'
p5180
F0.9145
tp5181
a(g96
S'DT'
p5182
F0.993
tp5183
a(S'Twitter'
p5184
S'NNP'
p5185
F0.8122
tp5186
a(S'so'
p5187
S'RB'
p5188
F0.6887
tp5189
a(S"I'm"
p5190
S'PRP'
p5191
F0.8202
tp5192
a(S'tagging'
p5193
S'VBG'
p5194
F0.984
tp5195
a(S"it's"
p5196
S'PRP'
p5197
F0.714
tp5198
a(S'your'
p5199
S'PRP$'
p5200
F0.9786
tp5201
a(S'problem'
p5202
S'NN'
p5203
F0.9947
tp5204
a(S'now'
p5205
S'RB'
p5206
F0.9857
tp5207
a(g23
g23
F0.9955
tp5208
ag123
tp5209
a((lp5210
(S'The'
p5211
S'DT'
p5212
F0.9073
tp5213
a(S'only'
p5214
S'JJ'
p5215
F0.818
tp5216
a(S'thing'
p5217
S'NN'
p5218
F0.9652
tp5219
a(S'worse'
p5220
S'JJR'
p5221
F0.3522
tp5222
a(S'than'
p5223
S'IN'
p5224
F0.9961
tp5225
a(S'Apple'
p5226
S'NNP'
p5227
F0.9916
tp5228
a(g2988
g20
F0.3212
tp5229
a(S'Steve'
p5230
S'NNP'
p5231
F0.988
tp5232
a(S'Jobs'
p5233
S'NNP'
p5234
F0.914
tp5235
a(S'movies'
p5236
S'NNS'
p5237
F0.9805
tp5238
a(S'are'
p5239
S'VBP'
p5240
F0.9752
tp5241
a(S'boxing'
p5242
S'VBG'
p5243
F0.5261
tp5244
a(S'movies'
p5245
S'NNS'
p5246
F0.9891
tp5247
ag123
tp5248
a((lp5249
(S'RT'
p5250
S'RT'
p5251
F0.9707
tp5252
a(g232
S"''"
p5253
F0.974
tp5254
a(S'edison'
p5255
S'NNP'
p5256
F0.7939
tp5257
a(S'chargers'
p5258
S'NNP'
p5259
F0.8215
tp5260
a(S'are'
p5261
S'VBP'
p5262
F0.9121
tp5263
a(S'worse'
p5264
S'JJ'
p5265
F0.6111
tp5266
a(S'then'
p5267
S'IN'
p5268
F0.8447
tp5269
a(S'apple'
p5270
S'NNP'
p5271
F0.5756
tp5272
a(S'chargers'
p5273
S'NNP'
p5274
F0.8382
tp5275
a(g232
S"''"
p5276
F0.986
tp5277
ag42
tp5278
a((lp5279
(S'apple'
p5280
S'NNP'
p5281
F0.7956
tp5282
a(S'sucks'
p5283
S'VBZ'
p5284
F0.9697
tp5285
ag123
tp5286
a((lp5287
(S'????????????????????????????????????????????????????????????????????'
p5288
S'NNP'
p5289
F0.1367
tp5290
a(S'these'
p5291
S'DT'
p5292
F0.9581
tp5293
a(S'new'
p5294
S'JJ'
p5295
F0.9883
tp5296
a(S'emojis'
p5297
S'NNS'
p5298
F0.9844
tp5299
a(S'are'
p5300
S'VBP'
p5301
F0.9798
tp5302
a(S'the'
p5303
S'DT'
p5304
F0.9967
tp5305
a(S'shit'
p5306
S'NN'
p5307
F0.9841
tp5308
a(S'????????????'
p5309
g23
F0.9599
tp5310
a(S'good'
p5311
S'JJ'
p5312
F0.9585
tp5313
a(S'job'
p5314
S'NN'
p5315
F0.9648
tp5316
a(S'apple'
p5317
S'NN'
p5318
F0.7682
tp5319
a(S'????????????????????????'
p5320
g23
F0.9782
tp5321
ag42
tp5322
a((lp5323
(S'The'
p5324
S'DT'
p5325
F0.9381
tp5326
a(S'new'
p5327
S'JJ'
p5328
F0.9757
tp5329
a(S'fog'
p5330
S'NN'
p5331
F0.9919
tp5332
a(S'emoji'
p5333
S'NN'
p5334
F0.875
tp5335
a(S'is'
p5336
S'VBZ'
p5337
F0.9904
tp5338
a(S'on'
p5339
S'IN'
p5340
F0.9827
tp5341
a(S'point'
p5342
S'NN'
p5343
F0.9245
tp5344
a(g23
g23
F0.9953
tp5345
a(S'Good'
p5346
S'JJ'
p5347
F0.8114
tp5348
a(S'job'
p5349
S'NN'
p5350
F0.993
tp5351
a(g349
g349
F0.9878
tp5352
a(S'Apple'
p5353
S'NNP'
p5354
F0.9854
tp5355
a(S'????'
p5356
g23
F0.9799
tp5357
ag42
tp5358
a((lp5359
(S'9.2'
p5360
S'CD'
p5361
F0.8422
tp5362
a(S'beta'
p5363
S'NN'
p5364
F0.9682
tp5365
a(S'is'
p5366
S'VBZ'
p5367
F0.994
tp5368
a(S'even'
p5369
S'RB'
p5370
F0.9965
tp5371
a(S'worse'
p5372
S'JJR'
p5373
F0.5487
tp5374
a(S'than'
p5375
S'IN'
p5376
F0.9872
tp5377
a(S'9.1'
p5378
S'CD'
p5379
F0.9083
tp5380
a(S'...'
p5381
g20
F0.9967
tp5382
a(g270
S'PRP'
p5383
F0.995
tp5384
a(S'am'
p5385
S'VBP'
p5386
F0.9716
tp5387
a(S'slowly'
p5388
S'RB'
p5389
F0.9844
tp5390
a(S'giving'
p5391
S'VBG'
p5392
F0.9974
tp5393
a(S'up'
p5394
S'RP'
p5395
F0.6564
tp5396
a(S'on'
p5397
S'IN'
p5398
F0.999
tp5399
a(S'Apple'
p5400
S'NNP'
p5401
F0.995
tp5402
a(g23
g23
F0.9929
tp5403
a(S'My'
p5404
S'PRP$'
p5405
F0.9697
tp5406
a(S'Ipad'
p5407
S'NNP'
p5408
F0.6765
tp5409
a(g3386
S'CD'
p5410
F0.5898
tp5411
a(S'is'
p5412
S'VBZ'
p5413
F0.9829
tp5414
a(S'worth'
p5415
S'JJ'
p5416
F0.7674
tp5417
a(S'nothing'
p5418
S'NN'
p5419
F0.991
tp5420
a(S'today'
p5421
S'NN'
p5422
F0.9871
tp5423
a(g349
g349
F0.9903
tp5424
a(S'literally'
p5425
S'RB'
p5426
F0.9894
tp5427
a(g96
S'DT'
p5428
F0.9854
tp5429
a(S'somehow'
p5430
S'RB'
p5431
F0.9583
tp5432
a(S'working'
p5433
S'VBG'
p5434
F0.8969
tp5435
a(S'brick'
p5436
S'NN'
p5437
F0.9346
tp5438
a(g23
g23
F0.9974
tp5439
ag123
tp5440
a((lp5441
(S'Apple'
p5442
S'NNP'
p5443
F0.8681
tp5444
a(S'have'
p5445
S'VBP'
p5446
F0.661
tp5447
a(S'actually'
p5448
S'RB'
p5449
F0.9978
tp5450
a(S'done'
p5451
S'VBN'
p5452
F0.9216
tp5453
a(g96
S'DT'
p5454
F0.9874
tp5455
a(S'good'
p5456
S'JJ'
p5457
F0.9825
tp5458
a(S'job'
p5459
S'NN'
p5460
F0.98
tp5461
a(S'on'
p5462
S'IN'
p5463
F0.9937
tp5464
a(S'emojis'
p5465
S'NNS'
p5466
F0.9296
tp5467
a(S'????????????'
p5468
g23
F0.9737
tp5469
ag42
tp5470
a((lp5471
(g270
S'PRP'
p5472
F0.995
tp5473
a(S'ridiculously'
p5474
S'RB'
p5475
F0.9911
tp5476
a(S'need'
p5477
S'VBP'
p5478
F0.8323
tp5479
a(g96
S'DT'
p5480
F0.9943
tp5481
a(S'new'
p5482
S'JJ'
p5483
F0.9917
tp5484
a(S'macbook'
p5485
S'NN'
p5486
F0.9503
tp5487
a(g349
g349
F0.9909
tp5488
a(S'the'
p5489
S'DT'
p5490
F0.9929
tp5491
a(S'fan'
p5492
S'NN'
p5493
F0.9498
tp5494
a(S'on'
p5495
S'IN'
p5496
F0.9977
tp5497
a(S'the'
p5498
S'DT'
p5499
F0.9957
tp5500
a(S'one'
p5501
S'NN'
p5502
F0.5534
tp5503
a(g270
S'PRP'
p5504
F0.9966
tp5505
a(S'have'
p5506
S'VBP'
p5507
F0.9891
tp5508
a(S'now'
p5509
S'RB'
p5510
F0.9859
tp5511
a(S'is'
p5512
S'VBZ'
p5513
F0.9848
tp5514
a(S'loud'
p5515
S'JJ'
p5516
F0.6669
tp5517
a(S'as'
p5518
S'IN'
p5519
F0.8935
tp5520
a(S'fuck'
p5521
S'VB'
p5522
F0.4628
tp5523
a(g90
S'CC'
p5524
F0.9335
tp5525
a(S'embarrassing'
p5526
S'JJ'
p5527
F0.8472
tp5528
a(S'#5yearoldmacbook'
p5529
S'HT'
p5530
F0.9163
tp5531
ag123
tp5532
a((lp5533
(S'my'
p5534
S'PRP$'
p5535
F0.9695
tp5536
a(S'MBP'
p5537
S'NN'
p5538
F0.4689
tp5539
a(S"doesn't"
p5540
S'NN'
p5541
F0.5253
tp5542
a(S'run'
p5543
S'VB'
p5544
F0.7838
tp5545
a(S'so'
p5546
S'RB'
p5547
F0.9461
tp5548
a(S'good'
p5549
S'JJ'
p5550
F0.978
tp5551
a(S';)'
p5552
S'UH'
p5553
F0.9844
tp5554
ag123
tp5555
a((lp5556
(S'Okay'
p5557
S'UH'
p5558
F0.6779
tp5559
a(S'good'
p5560
S'JJ'
p5561
F0.792
tp5562
a(S'job'
p5563
S'NN'
p5564
F0.9624
tp5565
a(S'apple'
p5566
S'NN'
p5567
F0.7051
tp5568
a(S'for'
p5569
S'IN'
p5570
F0.9934
tp5571
a(S'getting'
p5572
S'VBG'
p5573
F0.997
tp5574
a(S'the'
p5575
S'DT'
p5576
F0.9932
tp5577
a(S'middle'
p5578
S'NN'
p5579
F0.9732
tp5580
a(S'finger'
p5581
S'NN'
p5582
F0.9879
tp5583
a(S'emoji'
p5584
S'NN'
p5585
F0.6824
tp5586
a(S'but'
p5587
S'CC'
p5588
F0.9798
tp5589
a(S'get'
p5590
S'VB'
p5591
F0.526
tp5592
a(S'your'
p5593
S'PRP$'
p5594
F0.9477
tp5595
a(S'shit'
p5596
S'NN'
p5597
F0.9934
tp5598
a(S'together'
p5599
S'RB'
p5600
F0.9002
tp5601
a(S"there's"
p5602
S'RB'
p5603
F0.2075
tp5604
a(S'still'
p5605
S'RB'
p5606
F0.9932
tp5607
a(S'no'
p5608
S'DT'
p5609
F0.9111
tp5610
a(S'volleyball'
p5611
S'NN'
p5612
F0.9973
tp5613
a(S'emoji'
p5614
S'NN'
p5615
F0.7616
tp5616
ag123
tp5617
a((lp5618
(S'Yay'
p5619
S'UH'
p5620
F0.8414
tp5621
a(S'for'
p5622
S'IN'
p5623
F0.9939
tp5624
a(S'this'
p5625
S'DT'
p5626
F0.9982
tp5627
a(S'emoji'
p5628
S'NN'
p5629
F0.7876
tp5630
a(S'????????'
p5631
g23
F0.96
tp5632
a(S'lol'
p5633
S'UH'
p5634
F0.9338
tp5635
a(S'good'
p5636
S'JJ'
p5637
F0.906
tp5638
a(S'job'
p5639
S'NN'
p5640
F0.963
tp5641
a(S'apple'
p5642
S'NN'
p5643
F0.7537
tp5644
a(S'????'
p5645
g23
F0.9747
tp5646
ag42
tp5647
a((lp5648
(S'my'
p5649
S'PRP$'
p5650
F0.9733
tp5651
a(S'headphones'
p5652
S'NNS'
p5653
F0.9941
tp5654
a(S'are'
p5655
S'VBP'
p5656
F0.9756
tp5657
a(S'almost'
p5658
S'RB'
p5659
F0.9935
tp5660
a(S'broken'
p5661
S'JJ'
p5662
F0.4879
tp5663
a(S'..'
p5664
g20
F0.9387
tp5665
a(S'????'
p5666
g23
F0.9155
tp5667
a(S'they'
p5668
S'PRP'
p5669
F0.9671
tp5670
a(S'lasted'
p5671
S'VBD'
p5672
F0.7393
tp5673
a(S'over'
p5674
S'IN'
p5675
F0.9663
tp5676
a(g96
S'DT'
p5677
F0.9974
tp5678
a(S'year'
p5679
S'NN'
p5680
F0.9955
tp5681
a(S'('
p5682
S'-LRB-'
p5683
F0.8961
tp5684
a(S'good'
p5685
S'JJ'
p5686
F0.9662
tp5687
a(S'job'
p5688
S'NN'
p5689
F0.9622
tp5690
a(S'apple'
p5691
S'NN'
p5692
F0.6562
tp5693
a(S'on'
p5694
S'IN'
p5695
F0.9945
tp5696
a(S'that'
p5697
S'DT'
p5698
F0.8485
tp5699
a(S'btw'
p5700
S'UH'
p5701
F0.611
tp5702
a(g349
g349
F0.9823
tp5703
a(g270
S'PRP'
p5704
F0.9777
tp5705
a(S'usually'
p5706
S'RB'
p5707
F0.9916
tp5708
a(S'break'
p5709
S'VB'
p5710
F0.8332
tp5711
a(g96
S'DT'
p5712
F0.995
tp5713
a(S'pair'
p5714
S'NN'
p5715
F0.9924
tp5716
a(S'every'
p5717
S'DT'
p5718
F0.8906
tp5719
a(S'2'
p5720
S'CD'
p5721
F0.7717
tp5722
a(S'months'
p5723
S'NNS'
p5724
F0.9823
tp5725
a(S')'
p5726
S'-RRB-'
p5727
F0.924
tp5728
a(g23
g23
F0.9871
tp5729
ag42
tp5730
a((lp5731
(S'Apple'
p5732
S'NNP'
p5733
F0.9116
tp5734
a(S'music'
p5735
S'NN'
p5736
F0.9657
tp5737
a(S'sucks'
p5738
S'VBZ'
p5739
F0.9475
tp5740
a(g349
g349
F0.9875
tp5741
a(S'it'
p5742
S'PRP'
p5743
F0.9972
tp5744
a(S'stays'
p5745
S'VBZ'
p5746
F0.9678
tp5747
a(S'deleting'
p5748
S'VBG'
p5749
F0.9911
tp5750
a(S'music'
p5751
S'NN'
p5752
F0.9775
tp5753
ag123
tp5754
a((lp5755
(S'looks'
p5756
S'VBZ'
p5757
F0.7075
tp5758
a(S'just'
p5759
S'RB'
p5760
F0.9997
tp5761
a(S'like'
p5762
S'IN'
p5763
F0.6331
tp5764
a(g96
S'DT'
p5765
F0.9979
tp5766
a(S'middle'
p5767
S'NN'
p5768
F0.9722
tp5769
a(S'finger'
p5770
S'NN'
p5771
F0.9831
tp5772
a(g135
g23
F0.9934
tp5773
a(S'Good'
p5774
S'JJ'
p5775
F0.8509
tp5776
a(S'job'
p5777
S'NN'
p5778
F0.9545
tp5779
a(S'Apple'
p5780
S'NNP'
p5781
F0.8021
tp5782
a(g135
g23
F0.9949
tp5783
ag42
tp5784
a((lp5785
(S'my'
p5786
S'PRP$'
p5787
F0.9695
tp5788
a(S'MBP'
p5789
S'NN'
p5790
F0.6577
tp5791
a(S'was'
p5792
S'VBD'
p5793
F0.987
tp5794
a(S'the'
p5795
S'DT'
p5796
F0.9948
tp5797
a(S'mid'
p5798
S'JJ'
p5799
F0.8618
tp5800
a(S'2010'
p5801
S'CD'
p5802
F0.9815
tp5803
a(S'model'
p5804
S'NN'
p5805
F0.995
tp5806
a(g863
g20
F0.9803
tp5807
a(S'good'
p5808
S'JJ'
p5809
F0.9636
tp5810
a(S'value'
p5811
S'NN'
p5812
F0.9721
tp5813
a(S'really'
p5814
S'RB'
p5815
F0.9881
tp5816
a(g23
g23
F0.9913
tp5817
a(S'Big'
p5818
S'JJ'
p5819
F0.8757
tp5820
a(S'fan'
p5821
S'NN'
p5822
F0.9803
tp5823
a(S'of'
p5824
S'IN'
p5825
F0.9973
tp5826
a(S'the'
p5827
S'DT'
p5828
F0.9962
tp5829
a(S'retina'
p5830
S'NN'
p5831
F0.9514
tp5832
a(S'display'
p5833
S'NN'
p5834
F0.9843
tp5835
a(S'and'
p5836
S'CC'
p5837
F0.9889
tp5838
a(S'lack'
p5839
S'NN'
p5840
F0.7194
tp5841
a(S'of'
p5842
S'IN'
p5843
F0.9858
tp5844
a(S'optical'
p5845
S'NN'
p5846
F0.6322
tp5847
a(S'makes'
p5848
S'VBZ'
p5849
F0.9639
tp5850
a(S'it'
p5851
S'PRP'
p5852
F0.9927
tp5853
a(S'thin'
p5854
S'JJ'
p5855
F0.9276
tp5856
a(g23
g23
F0.9883
tp5857
a(S'SSD'
p5858
S'NN'
p5859
F0.6805
tp5860
a(S'is'
p5861
S'VBZ'
p5862
F0.9922
tp5863
a(S'unreal'
p5864
S'JJ'
p5865
F0.9866
tp5866
ag42
tp5867
a((lp5868
(S'Love'
p5869
S'VBP'
p5870
F0.7565
tp5871
a(S'the'
p5872
S'DT'
p5873
F0.9916
tp5874
a(S'new'
p5875
S'JJ'
p5876
F0.9721
tp5877
a(S'emojis'
p5878
S'NNS'
p5879
F0.9772
tp5880
a(S'!!!!!'
p5881
g23
F0.9894
tp5882
a(S'Good'
p5883
S'JJ'
p5884
F0.8709
tp5885
a(S'job'
p5886
S'NN'
p5887
F0.9531
tp5888
a(S'Apple'
p5889
S'NNP'
p5890
F0.8725
tp5891
a(S'!!!!!'
p5892
g23
F0.9946
tp5893
ag42
tp5894
a((lp5895
(S'RT'
p5896
S'RT'
p5897
F0.9493
tp5898
a(S'Good'
p5899
S'JJ'
p5900
F0.7994
tp5901
a(S'job'
p5902
S'NN'
p5903
F0.9728
tp5904
a(S'apple'
p5905
S'NN'
p5906
F0.3636
tp5907
a(S'you'
p5908
S'PRP'
p5909
F0.9937
tp5910
a(S'finally'
p5911
S'RB'
p5912
F0.9962
tp5913
a(S'got'
p5914
S'VBD'
p5915
F0.743
tp5916
a(S'something'
p5917
S'NN'
p5918
F0.9865
tp5919
a(S'right'
p5920
S'RB'
p5921
F0.8877
tp5922
a(g135
g23
F0.9876
tp5923
a(S'We'
p5924
S'PRP'
p5925
F0.985
tp5926
a(S'finally'
p5927
S'RB'
p5928
F0.9852
tp5929
a(S'have'
p5930
S'VBP'
p5931
F0.5276
tp5932
a(g96
S'DT'
p5933
F0.9877
tp5934
a(S'????.'
p5935
S'UH'
p5936
F0.6246
tp5937
ag42
tp5938
a((lp5939
(S'Apple'
p5940
S'NNP'
p5941
F0.8523
tp5942
a(S'did'
p5943
S'VBD'
p5944
F0.9202
tp5945
a(g96
S'DT'
p5946
F0.9971
tp5947
a(S'good'
p5948
S'JJ'
p5949
F0.9855
tp5950
a(S'job'
p5951
S'NN'
p5952
F0.9842
tp5953
a(S'cause'
p5954
S'IN'
p5955
F0.8984
tp5956
a(S'you'
p5957
S'PRP'
p5958
F0.999
tp5959
a(S'can'
p5960
S'MD'
p5961
F0.975
tp5962
a(S'use'
p5963
S'VB'
p5964
F0.9729
tp5965
a(S'emojis'
p5966
S'NNS'
p5967
F0.9335
tp5968
a(S'to'
p5969
S'TO'
p5970
F0.9966
tp5971
a(S'get'
p5972
S'VB'
p5973
F0.9985
tp5974
a(S'out'
p5975
S'IN'
p5976
F0.7514
tp5977
a(S'of'
p5978
S'IN'
p5979
F0.9598
tp5980
a(S'most'
p5981
S'JJS'
p5982
F0.5455
tp5983
a(S'awkward'
p5984
S'JJ'
p5985
F0.9883
tp5986
a(S'situations'
p5987
S'NNS'
p5988
F0.9836
tp5989
a(g23
g23
F0.9968
tp5990
ag42
tp5991
a((lp5992
(S'These'
p5993
S'DT'
p5994
F0.9726
tp5995
a(S'new'
p5996
S'JJ'
p5997
F0.9899
tp5998
a(S'emojis'
p5999
S'NNS'
p6000
F0.9844
tp6001
a(S'are'
p6002
S'VBP'
p6003
F0.9899
tp6004
a(S'everything'
p6005
S'NN'
p6006
F0.9171
tp6007
a(S'!!!!!!!!'
p6008
g23
F0.9953
tp6009
a(S'Love'
p6010
S'VB'
p6011
F0.4401
tp6012
a(S'them'
p6013
S'PRP'
p6014
F0.9822
tp6015
a(S'!!'
p6016
g23
F0.9795
tp6017
a(S'Good'
p6018
S'JJ'
p6019
F0.8587
tp6020
a(S'job'
p6021
S'NN'
p6022
F0.9554
tp6023
a(S'Apple'
p6024
S'NNP'
p6025
F0.8194
tp6026
a(g135
g23
F0.9961
tp6027
ag42
tp6028
a((lp6029
(S'Apple'
p6030
S'NNP'
p6031
F0.8508
tp6032
a(S'is'
p6033
S'VBZ'
p6034
F0.9947
tp6035
a(S'unable'
p6036
S'JJ'
p6037
F0.7346
tp6038
a(S'to'
p6039
S'TO'
p6040
F0.9972
tp6041
a(S'make'
p6042
S'VB'
p6043
F0.9979
tp6044
a(S'work'
p6045
S'NN'
p6046
F0.9825
tp6047
a(g23
g23
F0.994
tp6048
a(S'After'
p6049
S'IN'
p6050
F0.9668
tp6051
a(g96
S'DT'
p6052
F0.9973
tp6053
a(S'nightmare'
p6054
S'NN'
p6055
F0.9852
tp6056
a(S'weekend'
p6057
S'NN'
p6058
F0.9875
tp6059
a(g349
g349
F0.9908
tp6060
a(S'synchronizing'
p6061
S'VBG'
p6062
F0.9804
tp6063
a(S'the'
p6064
S'DT'
p6065
F0.9961
tp6066
a(S'music'
p6067
S'NN'
p6068
F0.9944
tp6069
a(S'library'
p6070
S'NN'
p6071
F0.9832
tp6072
a(S'via'
p6073
S'IN'
p6074
F0.8694
tp6075
a(S'iCloud'
p6076
S'NNP'
p6077
F0.8834
tp6078
a(S'on'
p6079
S'IN'
p6080
F0.9901
tp6081
a(S'mac'
p6082
S'NNP'
p6083
F0.9141
tp6084
a(S'still'
p6085
S'RB'
p6086
F0.9866
tp6087
a(S'sucks'
p6088
S'VBZ'
p6089
F0.918
tp6090
a(S'!!!'
p6091
g23
F0.9959
tp6092
ag123
tp6093
a((lp6094
(S'Best'
p6095
S'JJS'
p6096
F0.8957
tp6097
a(S'emojis'
p6098
S'NNS'
p6099
F0.9497
tp6100
a(S'????????'
p6101
g23
F0.9473
tp6102
a(S'literally'
p6103
S'RB'
p6104
F0.998
tp6105
a(S'ALWAYS'
p6106
S'RB'
p6107
F0.9892
tp6108
a(S'thought'
p6109
S'VBD'
p6110
F0.5499
tp6111
a(S'hard'
p6112
S'JJ'
p6113
F0.8568
tp6114
a(S'about'
p6115
S'IN'
p6116
F0.9861
tp6117
a(S'an'
p6118
S'DT'
p6119
F0.9856
tp6120
a(S'emoji'
p6121
S'NN'
p6122
F0.8952
tp6123
a(S'to'
p6124
S'TO'
p6125
F0.9958
tp6126
a(S'fit'
p6127
S'VB'
p6128
F0.9907
tp6129
a(S'those'
p6130
S'DT'
p6131
F0.9782
tp6132
a(S'emotions'
p6133
S'NNS'
p6134
F0.965
tp6135
a(g135
g23
F0.9939
tp6136
a(S'Good'
p6137
S'JJ'
p6138
F0.8509
tp6139
a(S'job'
p6140
S'NN'
p6141
F0.9534
tp6142
a(S'Apple'
p6143
S'NNP'
p6144
F0.8818
tp6145
a(g23
g23
F0.9946
tp6146
a(S'So'
p6147
S'RB'
p6148
F0.9738
tp6149
a(S'proud'
p6150
S'JJ'
p6151
F0.971
tp6152
a(S'????'
p6153
g23
F0.9624
tp6154
ag42
tp6155
a((lp6156
(S'dear'
p6157
S'UH'
p6158
F0.9239
tp6159
a(S'apple'
p6160
S'UH'
p6161
F0.6102
tp6162
a(g349
g349
F0.9888
tp6163
a(S'good'
p6164
S'JJ'
p6165
F0.9304
tp6166
a(S'job'
p6167
S'NN'
p6168
F0.98
tp6169
a(S'on'
p6170
S'IN'
p6171
F0.9978
tp6172
a(S'the'
p6173
S'DT'
p6174
F0.9945
tp6175
a(S'middle'
p6176
S'NN'
p6177
F0.9732
tp6178
a(S'finger'
p6179
S'NN'
p6180
F0.9879
tp6181
a(S'emoji'
p6182
S'NN'
p6183
F0.7651
tp6184
a(g349
g349
F0.9924
tp6185
a(S'still'
p6186
S'RB'
p6187
F0.9802
tp6188
a(S'waiting'
p6189
S'VBG'
p6190
F0.9903
tp6191
a(S'on'
p6192
S'IN'
p6193
F0.9867
tp6194
a(S'the'
p6195
S'DT'
p6196
F0.9926
tp6197
a(S'bong'
p6198
S'NN'
p6199
F0.9063
tp6200
a(S'emoji'
p6201
S'NN'
p6202
F0.8884
tp6203
a(g23
g23
F0.9953
tp6204
ag42
tp6205
a((lp6206
(S'Apple'
p6207
S'NNP'
p6208
F0.9036
tp6209
a(S'TV'
p6210
S'NNP'
p6211
F0.8267
tp6212
a(S'2015'
p6213
S'CD'
p6214
F0.6965
tp6215
a(S'review'
p6216
S'NN'
p6217
F0.9791
tp6218
a(g20
g20
F0.9695
tp6219
a(S'fast'
p6220
S'RB'
p6221
F0.6323
tp6222
a(S'and'
p6223
S'CC'
p6224
F0.9898
tp6225
a(S'easy'
p6226
S'JJ'
p6227
F0.9097
tp6228
a(S'to'
p6229
S'TO'
p6230
F0.9954
tp6231
a(S'navigate'
p6232
S'VB'
p6233
F0.9865
tp6234
a(g349
g349
F0.9868
tp6235
a(S'but'
p6236
S'CC'
p6237
F0.9939
tp6238
a(S'keyboard'
p6239
S'NN'
p6240
F0.8972
tp6241
a(S'worse'
p6242
S'JJ'
p6243
F0.3493
tp6244
a(g349
g349
F0.9893
tp6245
a(S'Siri'
p6246
S'NNP'
p6247
F0.9995
tp6248
a(S'limited'
p6249
S'JJ'
p6250
F0.3843
tp6251
a(g349
g349
F0.9885
tp6252
a(S'feels'
p6253
S'VBZ'
p6254
F0.8515
tp6255
a(S'like'
p6256
S'IN'
p6257
F0.7121
tp6258
a(S'first'
p6259
S'JJ'
p6260
F0.9491
tp6261
a(S'effort'
p6262
S'NN'
p6263
F0.9864
tp6264
a(S'in'
p6265
S'IN'
p6266
F0.9817
tp6267
a(S'new'
p6268
S'JJ'
p6269
F0.9802
tp6270
a(S'...'
p6271
g20
F0.9943
tp6272
ag123
tp6273
a((lp6274
(S'it'
p6275
S'PRP'
p6276
F0.9991
tp6277
a(S'needs'
p6278
S'VBZ'
p6279
F0.9901
tp6280
a(S'to'
p6281
S'TO'
p6282
F0.9983
tp6283
a(S'be'
p6284
S'VB'
p6285
F0.9988
tp6286
a(S'sinked'
p6287
S'VBN'
p6288
F0.795
tp6289
a(S'to'
p6290
S'TO'
p6291
F0.9944
tp6292
a(S'your'
p6293
S'PRP$'
p6294
F0.8346
tp6295
a(S'iCloud'
p6296
S'NNP'
p6297
F0.7167
tp6298
a(S'music'
p6299
S'NN'
p6300
F0.9626
tp6301
a(g349
g349
F0.9872
tp6302
a(S'Apple'
p6303
S'NNP'
p6304
F0.9973
tp6305
a(S'Music'
p6306
S'NNP'
p6307
F0.5943
tp6308
a(S'actually'
p6309
S'RB'
p6310
F0.9857
tp6311
a(S'sucks'
p6312
S'VBZ'
p6313
F0.9066
tp6314
a(S'lol'
p6315
S'UH'
p6316
F0.9383
tp6317
ag123
tp6318
a((lp6319
(S'Lovin'
p6320
S'VBG'
p6321
F0.8475
tp6322
a(S'the'
p6323
S'DT'
p6324
F0.9929
tp6325
a(S'new'
p6326
S'JJ'
p6327
F0.9721
tp6328
a(S'emojis'
p6329
S'NNS'
p6330
F0.9796
tp6331
a(g23
g23
F0.9928
tp6332
a(S'Good'
p6333
S'JJ'
p6334
F0.8114
tp6335
a(S'job'
p6336
S'NN'
p6337
F0.9531
tp6338
a(S'Apple'
p6339
S'NNP'
p6340
F0.8377
tp6341
a(S'????????????'
p6342
g23
F0.974
tp6343
ag42
tp6344
a((lp6345
(S"MBP's"
p6346
S'NNP'
p6347
F0.2611
tp6348
a(S'trackpad'
p6349
S'NN'
p6350
F0.6209
tp6351
a(S'is'
p6352
S'VBZ'
p6353
F0.9905
tp6354
a(S'so'
p6355
S'RB'
p6356
F0.9808
tp6357
a(S'good'
p6358
S'JJ'
p6359
F0.9658
tp6360
a(g349
g349
F0.9893
tp6361
a(S'missing'
p6362
S'VBG'
p6363
F0.9886
tp6364
a(S'touch'
p6365
S'NN'
p6366
F0.9156
tp6367
a(S"isn't"
p6368
S'VBD'
p6369
F0.364
tp6370
a(S'an'
p6371
S'DT'
p6372
F0.9859
tp6373
a(S'issue'
p6374
S'NN'
p6375
F0.9988
tp6376
a(g23
g23
F0.9969
tp6377
ag42
tp6378
a((lp6379
(g270
S'PRP'
p6380
F0.992
tp6381
a(S'use'
p6382
S'VBP'
p6383
F0.9709
tp6384
a(S'the'
p6385
S'DT'
p6386
F0.9958
tp6387
a(S'flashlight'
p6388
S'NN'
p6389
F0.9544
tp6390
a(S'on'
p6391
S'IN'
p6392
F0.9953
tp6393
a(S'my'
p6394
S'PRP$'
p6395
F0.9972
tp6396
a(S'phone'
p6397
S'NN'
p6398
F0.9932
tp6399
a(S'like'
p6400
S'IN'
p6401
F0.9097
tp6402
a(S'10'
p6403
S'CD'
p6404
F0.9982
tp6405
a(S'times'
p6406
S'NNS'
p6407
F0.9598
tp6408
a(g96
S'DT'
p6409
F0.9927
tp6410
a(S'day'
p6411
S'NN'
p6412
F0.9988
tp6413
a(g23
g23
F0.9954
tp6414
a(S'Good'
p6415
S'JJ'
p6416
F0.7991
tp6417
a(S'job'
p6418
S'NN'
p6419
F0.9499
tp6420
a(S'Apple'
p6421
S'NNP'
p6422
F0.8957
tp6423
ag42
tp6424
a((lp6425
(S'Good'
p6426
S'JJ'
p6427
F0.777
tp6428
a(S'job'
p6429
S'NN'
p6430
F0.9647
tp6431
a(S'apple'
p6432
S'NN'
p6433
F0.4093
tp6434
a(S'you'
p6435
S'PRP'
p6436
F0.9938
tp6437
a(S'finally'
p6438
S'RB'
p6439
F0.9962
tp6440
a(S'got'
p6441
S'VBD'
p6442
F0.743
tp6443
a(S'something'
p6444
S'NN'
p6445
F0.9865
tp6446
a(S'right'
p6447
S'RB'
p6448
F0.8877
tp6449
a(g135
g23
F0.9876
tp6450
a(S'We'
p6451
S'PRP'
p6452
F0.985
tp6453
a(S'finally'
p6454
S'RB'
p6455
F0.9852
tp6456
a(S'have'
p6457
S'VBP'
p6458
F0.5365
tp6459
a(g96
S'DT'
p6460
F0.9878
tp6461
a(S'????.'
p6462
S'UH'
p6463
F0.6429
tp6464
ag42
tp6465
a((lp6466
(S'fuckin'
p6467
S'NNP'
p6468
F0.4439
tp6469
a(S'Apple'
p6470
S'NNP'
p6471
F0.9991
tp6472
a(S'sucks'
p6473
S'VBZ'
p6474
F0.9187
tp6475
a(g23
g23
F0.9965
tp6476
ag123
tp6477
a((lp6478
(S'Loving'
p6479
S'VBG'
p6480
F0.9737
tp6481
a(S'the'
p6482
S'DT'
p6483
F0.9932
tp6484
a(S'new'
p6485
S'JJ'
p6486
F0.9721
tp6487
a(S'emojis'
p6488
S'NNS'
p6489
F0.9745
tp6490
a(S'!!!'
p6491
g23
F0.9877
tp6492
a(S'Good'
p6493
S'JJ'
p6494
F0.8918
tp6495
a(S'job'
p6496
S'NN'
p6497
F0.9531
tp6498
a(S'Apple'
p6499
S'NNP'
p6500
F0.8377
tp6501
a(S'????????'
p6502
g23
F0.974
tp6503
ag42
tp6504
a((lp6505
(S'good'
p6506
S'JJ'
p6507
F0.7479
tp6508
a(S'job'
p6509
S'NN'
p6510
F0.9501
tp6511
a(S'apple'
p6512
S'NN'
p6513
F0.7872
tp6514
a(g23
g23
F0.9918
tp6515
a(S'my'
p6516
S'PRP$'
p6517
F0.9885
tp6518
a(S'day'
p6519
S'NN'
p6520
F0.9993
tp6521
a(S'is'
p6522
S'VBZ'
p6523
F0.99
tp6524
a(S'made'
p6525
S'VBD'
p6526
F0.4804
tp6527
ag42
tp6528
a((lp6529
(S'awe'
p6530
S'UH'
p6531
F0.9294
tp6532
a(S'man'
p6533
S'UH'
p6534
F0.9273
tp6535
a(S'that'
p6536
S'IN'
p6537
F0.5017
tp6538
a(S'sucks'
p6539
S'VBZ'
p6540
F0.9724
tp6541
a(g135
g23
F0.9918
tp6542
a(g270
S'PRP'
p6543
F0.9977
tp6544
a(S'guess'
p6545
S'VBP'
p6546
F0.9848
tp6547
a(S'it'
p6548
S'PRP'
p6549
F0.9986
tp6550
a(S'probably'
p6551
S'RB'
p6552
F0.9964
tp6553
a(S'just'
p6554
S'RB'
p6555
F0.9988
tp6556
a(S'is'
p6557
S'VBZ'
p6558
F0.9844
tp6559
a(S'Apple'
p6560
S'NNP'
p6561
F0.9816
tp6562
a(S'????'
p6563
g23
F0.9799
tp6564
ag123
tp6565
a((lp6566
(S'RT'
p6567
S'RT'
p6568
F0.9727
tp6569
a(S'(????????)'
p6570
S'UH'
p6571
F0.1436
tp6572
a(S'pinaka'
p6573
S'UH'
p6574
F0.4131
tp6575
a(S'the'
p6576
S'DT'
p6577
F0.9926
tp6578
a(S'best'
p6579
S'JJS'
p6580
F0.9666
tp6581
a(S'na'
p6582
S'NN'
p6583
F0.3428
tp6584
a(S'emoji'
p6585
S'NN'
p6586
F0.9009
tp6587
a(S'hahaha'
p6588
S'UH'
p6589
F0.7359
tp6590
a(S'good'
p6591
S'JJ'
p6592
F0.8891
tp6593
a(S'job'
p6594
S'NN'
p6595
F0.9648
tp6596
a(S'apple'
p6597
S'NN'
p6598
F0.6039
tp6599
a(S'haha'
p6600
S'UH'
p6601
F0.9359
tp6602
ag42
tp6603
a((lp6604
(S'mbp'
p6605
S'NN'
p6606
F0.4638
tp6607
a(S'is'
p6608
S'VBZ'
p6609
F0.9932
tp6610
a(S'good'
p6611
S'JJ'
p6612
F0.9692
tp6613
a(S'enough'
p6614
S'RB'
p6615
F0.8234
tp6616
ag42
tp6617
a((lp6618
(g270
S'PRP'
p6619
F0.9967
tp6620
a(S'am'
p6621
S'VBP'
p6622
F0.9711
tp6623
a(S'still'
p6624
S'RB'
p6625
F0.9921
tp6626
a(S'incredibly'
p6627
S'RB'
p6628
F0.9968
tp6629
a(S'undecided'
p6630
S'JJ'
p6631
F0.9426
tp6632
a(S'on'
p6633
S'IN'
p6634
F0.9986
tp6635
a(S'the'
p6636
S'DT'
p6637
F0.9707
tp6638
a(S'Apple'
p6639
S'NNP'
p6640
F0.9888
tp6641
a(S'TV'
p6642
S'NN'
p6643
F0.5885
tp6644
a(g23
g23
F0.995
tp6645
a(S'4K'
p6646
S'CD'
p6647
F0.9001
tp6648
a(S'really'
p6649
S'RB'
p6650
F0.9816
tp6651
a(S'does'
p6652
S'VBZ'
p6653
F0.8389
tp6654
a(S'it'
p6655
S'PRP'
p6656
F0.9966
tp6657
a(S'for'
p6658
S'IN'
p6659
F0.996
tp6660
a(S'me'
p6661
S'PRP'
p6662
F0.986
tp6663
a(g23
g23
F0.9909
tp6664
a(S'It'
p6665
S'PRP'
p6666
F0.9845
tp6667
a(g1080
g20
F0.1582
tp6668
a(S'should'
p6669
S'MD'
p6670
F0.9555
tp6671
a(g1080
S'VB'
p6672
F0.3768
tp6673
a(S'support'
p6674
S'VB'
p6675
F0.5195
tp6676
a(S'it'
p6677
S'PRP'
p6678
F0.9933
tp6679
a(g23
g23
F0.9918
tp6680
a(S'But'
p6681
S'CC'
p6682
F0.9643
tp6683
a(S'doesnt'
p6684
S'VBP'
p6685
F0.2833
tp6686
a(g23
g23
F0.9905
tp6687
a(S'That'
p6688
S'DT'
p6689
F0.8442
tp6690
a(S'kinda'
p6691
S'RB'
p6692
F0.913
tp6693
a(S'sucks'
p6694
S'VBZ'
p6695
F0.8942
tp6696
a(g349
g349
F0.9823
tp6697
a(S'Apple'
p6698
S'NNP'
p6699
F0.9876
tp6700
a(g23
g23
F0.9961
tp6701
ag123
tp6702
a((lp6703
(S"That's"
p6704
S'DT'
p6705
F0.6049
tp6706
a(S'why'
p6707
S'WRB'
p6708
F0.9406
tp6709
a(g270
S'PRP'
p6710
F0.9982
tp6711
a(S'haaad'
p6712
S'VBD'
p6713
F0.9382
tp6714
a(S'to'
p6715
S'TO'
p6716
F0.9952
tp6717
a(S'wax'
p6718
S'VB'
p6719
F0.8816
tp6720
a(S'my'
p6721
S'PRP$'
p6722
F0.9976
tp6723
a(S'brows'
p6724
S'NNS'
p6725
F0.9001
tp6726
a(S'today'
p6727
S'NN'
p6728
F0.97
tp6729
a(S'lol'
p6730
S'UH'
p6731
F0.8896
tp6732
a(S'good'
p6733
S'JJ'
p6734
F0.906
tp6735
a(S'job'
p6736
S'NN'
p6737
F0.9438
tp6738
a(S'Apple'
p6739
S'NNP'
p6740
F0.9
tp6741
ag42
tp6742
a((lp6743
(S'RT'
p6744
S'RT'
p6745
F0.9652
tp6746
a(S'iOS'
p6747
S'NNP'
p6748
F0.844
tp6749
a(g3138
S'CD'
p6750
F0.9258
tp6751
a(S'has'
p6752
S'VBZ'
p6753
F0.9338
tp6754
a(S'made'
p6755
S'VBD'
p6756
F0.7004
tp6757
a(S'my'
p6758
S'PRP$'
p6759
F0.9922
tp6760
a(S'phone'
p6761
S'NN'
p6762
F0.9958
tp6763
a(S'10'
p6764
S'CD'
p6765
F0.996
tp6766
a(S'times'
p6767
S'NNS'
p6768
F0.9288
tp6769
a(S'worse'
p6770
S'JJ'
p6771
F0.6547
tp6772
a(g23
g23
F0.9918
tp6773
a(g270
S'PRP'
p6774
F0.9976
tp6775
a(S'guess'
p6776
S'VBP'
p6777
F0.9816
tp6778
a(S'Apple'
p6779
S'NNP'
p6780
F0.9357
tp6781
a(S"doesn't"
p6782
S'NN'
p6783
F0.3961
tp6784
a(S'have'
p6785
S'VB'
p6786
F0.9145
tp6787
a(g96
S'DT'
p6788
F0.993
tp6789
a(S'Twitter'
p6790
S'NNP'
p6791
F0.8122
tp6792
a(S'so'
p6793
S'RB'
p6794
F0.6887
tp6795
a(S"I'm"
p6796
S'PRP'
p6797
F0.8202
tp6798
a(S'tagging'
p6799
S'VBG'
p6800
F0.984
tp6801
a(S"it's"
p6802
S'PRP'
p6803
F0.714
tp6804
a(S'your'
p6805
S'PRP$'
p6806
F0.9786
tp6807
a(S'problem'
p6808
S'NN'
p6809
F0.9945
tp6810
a(S'now'
p6811
S'RB'
p6812
F0.9846
tp6813
a(g23
g23
F0.9967
tp6814
ag123
tp6815
a((lp6816
(S'the'
p6817
S'DT'
p6818
F0.9802
tp6819
a(S'new'
p6820
S'JJ'
p6821
F0.9134
tp6822
a(S'more'
p6823
S'RBR'
p6824
F0.6565
tp6825
a(S'yellow'
p6826
S'JJ'
p6827
F0.9048
tp6828
a(S'emojis'
p6829
S'NNS'
p6830
F0.9817
tp6831
a(S'look'
p6832
S'VBP'
p6833
F0.5927
tp6834
a(S'like'
p6835
S'IN'
p6836
F0.9508
tp6837
a(S'they'
p6838
S'PRP'
p6839
F0.9816
tp6840
a(S'have'
p6841
S'VBP'
p6842
F0.9618
tp6843
a(S'jaundice'
p6844
S'NN'
p6845
F0.8299
tp6846
a(g349
g349
F0.9918
tp6847
a(S'good'
p6848
S'JJ'
p6849
F0.9363
tp6850
a(S'job'
p6851
S'NN'
p6852
F0.9622
tp6853
a(S'apple'
p6854
S'NN'
p6855
F0.7789
tp6856
a(g23
g23
F0.9925
tp6857
a(S'????'
p6858
g23
F0.9496
tp6859
ag42
tp6860
a.